LIBRARY live555-adapter
EXPORTS
??0Locale@@QAE@PBDW4LocaleCategory@@@Z
??1Locale@@UAE@XZ
??_7Locale@@6B@
??_GLocale@@UAEPAXI@Z
??_R0?AVLocale@@@8
??_R1A@?0A@EA@Locale@@8
??_R2Locale@@8
??_R3Locale@@8
??_R4Locale@@6B@
?base64Decode@@YAPAEPBDAAI_N@Z
?base64Decode@@YAPAEPBDIAAI_N@Z
?base64Encode@@YAPADPBDI@Z
??0MD5Context@@QAE@XZ
??1MD5Context@@QAE@XZ
?addData@MD5Context@@QAEXPBEI@Z
?end@MD5Context@@QAEXPAD@Z
?finalize@MD5Context@@QAEXPAE@Z
?our_MD5Data@@YAPADPBEIPAD@Z
?our_MD5DataRaw@@YAPAEPBEIPAE@Z
?transform64Bytes@MD5Context@@AAEXQBE@Z
?zeroize@MD5Context@@AAEXXZ
??$__vcrt_va_start_verify_argument_type@QBD@@YAXXZ
??0Authenticator@@QAE@ABV0@@Z
??0Authenticator@@QAE@PBD0_N@Z
??0Authenticator@@QAE@XZ
??1Authenticator@@UAE@XZ
??4Authenticator@@QAEAAV0@ABV0@@Z
??MAuthenticator@@QAE_NPBV0@@Z
??_7Authenticator@@6B@
??_GAuthenticator@@UAEPAXI@Z
??_R0?AVAuthenticator@@@8
??_R1A@?0A@EA@Authenticator@@8
??_R2Authenticator@@8
??_R3Authenticator@@8
??_R4Authenticator@@6B@
?_OptionsStorage@?1??__local_stdio_printf_options@@9@4_KA
?assign@Authenticator@@AAEXPBD000_N@Z
?assignRealmAndNonce@Authenticator@@AAEXPBD0@Z
?assignUsernameAndPassword@Authenticator@@AAEXPBD0_N@Z
?computeDigestResponse@Authenticator@@QBEPBDPBD0@Z
?nonce@Authenticator@@QBEPBDXZ
?password@Authenticator@@QBEPBDXZ
?realm@Authenticator@@QBEPBDXZ
?reclaimDigestResponse@Authenticator@@QBEXPBD@Z
?reset@Authenticator@@QAEXXZ
?resetRealmAndNonce@Authenticator@@AAEXXZ
?resetUsernameAndPassword@Authenticator@@AAEXXZ
?setRealmAndNonce@Authenticator@@QAEXPBD0@Z
?setRealmAndRandomNonce@Authenticator@@QAEXPBD@Z
?setUsernameAndPassword@Authenticator@@QAEXPBD0_N@Z
?username@Authenticator@@QBEPBDXZ
??0StreamParser@@IAE@PAVFramedSource@@P6AXPAX@Z1P6AX1PAEIUtimeval@@@Z1@Z
??1StreamParser@@MAE@XZ
??_7StreamParser@@6B@
??_GStreamParser@@MAEPAXI@Z
??_R0?AVStreamParser@@@8
??_R0H@8
??_R1A@?0A@EA@StreamParser@@8
??_R2StreamParser@@8
??_R3StreamParser@@8
??_R4StreamParser@@6B@
?afterGettingBytes1@StreamParser@@AAEXIUtimeval@@@Z
?afterGettingBytes@StreamParser@@CAXPAXIIUtimeval@@I@Z
?bankSize@StreamParser@@IBEIXZ
?curBank@StreamParser@@AAEPAEXZ
?ensureValidBytes1@StreamParser@@AAEXI@Z
?ensureValidBytes@StreamParser@@AAEXI@Z
?envir@Medium@@QBEAAVUsageEnvironment@@XZ
?flushInput@StreamParser@@UAEXXZ
?getBits@StreamParser@@IAEII@Z
?lastParsed@StreamParser@@AAEPAEXZ
?nextToParse@StreamParser@@AAEPAEXZ
?onInputClosure1@StreamParser@@AAEXXZ
?onInputClosure@StreamParser@@CAXPAX@Z
?restoreSavedParserState@StreamParser@@MAEXXZ
?saveParserState@StreamParser@@IAEXXZ
?skipBits@StreamParser@@IAEXI@Z
?test4Bytes@StreamParser@@IAEIXZ
??0BitVector@@QAE@PAEII@Z
?get1Bit@BitVector@@QAEIXZ
?getBits@BitVector@@QAEII@Z
?get_expGolomb@BitVector@@QAEIXZ
?put1Bit@BitVector@@QAEXI@Z
?putBits@BitVector@@QAEXII@Z
?setup@BitVector@@QAEXPAEII@Z
?shiftBits@@YAXPAEIPBEII@Z
?skipBits@BitVector@@QAEXI@Z
??0OggFileServerMediaSubsession@@IAE@AAVOggFileServerDemux@@PAVOggTrack@@@Z
??1OggFileServerMediaSubsession@@MAE@XZ
??_7OggFileServerMediaSubsession@@6B@
??_GOggFileServerMediaSubsession@@MAEPAXI@Z
??_R0?AVFileServerMediaSubsession@@@8
??_R0?AVMedium@@@8
??_R0?AVOggFileServerMediaSubsession@@@8
??_R0?AVOnDemandServerMediaSubsession@@@8
??_R0?AVServerMediaSubsession@@@8
??_R1A@?0A@EA@FileServerMediaSubsession@@8
??_R1A@?0A@EA@Medium@@8
??_R1A@?0A@EA@OggFileServerMediaSubsession@@8
??_R1A@?0A@EA@OnDemandServerMediaSubsession@@8
??_R1A@?0A@EA@ServerMediaSubsession@@8
??_R2FileServerMediaSubsession@@8
??_R2Medium@@8
??_R2OggFileServerMediaSubsession@@8
??_R2OnDemandServerMediaSubsession@@8
??_R2ServerMediaSubsession@@8
??_R3FileServerMediaSubsession@@8
??_R3Medium@@8
??_R3OggFileServerMediaSubsession@@8
??_R3OnDemandServerMediaSubsession@@8
??_R3ServerMediaSubsession@@8
??_R4OggFileServerMediaSubsession@@6B@
?createNew@OggFileServerMediaSubsession@@SAPAV1@AAVOggFileServerDemux@@PAVOggTrack@@@Z
?createNewRTPSink@OggFileServerMediaSubsession@@MAEPAVRTPSink@@PAVGroupsock@@EPAVFramedSource@@@Z
?createNewStreamSource@OggFileServerMediaSubsession@@MAEPAVFramedSource@@IAAI@Z
?fileName@OggFileServerDemux@@QBEPBDXZ
?ourOggFile@OggFileServerDemux@@QAEPAVOggFile@@XZ
??0OggFileServerDemux@@AAE@AAVUsageEnvironment@@PBDP6AXPAV0@PAX@Z3@Z
??1OggFileServerDemux@@EAE@XZ
??_7OggFileServerDemux@@6B@
??_GOggFileServerDemux@@EAEPAXI@Z
??_R0?AVOggFileServerDemux@@@8
??_R1A@?0A@EA@OggFileServerDemux@@8
??_R2OggFileServerDemux@@8
??_R3OggFileServerDemux@@8
??_R4OggFileServerDemux@@6B@
?createNew@OggFileServerDemux@@SAXAAVUsageEnvironment@@PBDP6AXPAV1@PAX@Z3@Z
?newDemuxedTrack@OggFileServerDemux@@QAEPAVFramedSource@@II@Z
?newServerMediaSubsession@OggFileServerDemux@@QAEPAVServerMediaSubsession@@AAI@Z
?newServerMediaSubsession@OggFileServerDemux@@QAEPAVServerMediaSubsession@@XZ
?newServerMediaSubsessionByTrackNumber@OggFileServerDemux@@QAEPAVServerMediaSubsession@@I@Z
?onOggFileCreation@OggFileServerDemux@@AAEXPAVOggFile@@@Z
?onOggFileCreation@OggFileServerDemux@@CAXPAVOggFile@@PAX@Z
?trackTable@OggFile@@QAEAAVOggTrackTable@@XZ
??0OggDemuxedTrack@@AAE@AAVUsageEnvironment@@IAAVOggDemux@@@Z
??1OggDemuxedTrack@@EAE@XZ
??_7OggDemuxedTrack@@6B@
??_GOggDemuxedTrack@@EAEPAXI@Z
??_R0?AVFramedSource@@@8
??_R0?AVMediaSource@@@8
??_R0?AVOggDemuxedTrack@@@8
??_R1A@?0A@EA@FramedSource@@8
??_R1A@?0A@EA@MediaSource@@8
??_R1A@?0A@EA@OggDemuxedTrack@@8
??_R2FramedSource@@8
??_R2MediaSource@@8
??_R2OggDemuxedTrack@@8
??_R3FramedSource@@8
??_R3MediaSource@@8
??_R3OggDemuxedTrack@@8
??_R4OggDemuxedTrack@@6B@
?MIMEtype@OggDemuxedTrack@@EBEPBDXZ
?doGetNextFrame@OggDemuxedTrack@@EAEXXZ
??0LEBitVector@@QAE@PBEI@Z
??0OggFileParser@@QAE@AAVOggFile@@PAVFramedSource@@P6AXPAX@Z2PAVOggDemux@@@Z
??0PacketSizeTable@@QAE@I@Z
??1OggFileParser@@UAE@XZ
??1PacketSizeTable@@QAE@XZ
??_7OggFileParser@@6B@
??_C@_0L@LKCCILBG@audio?1OPUS?$AA@
??_GOggFileParser@@UAEPAXI@Z
??_GPacketSizeTable@@QAEPAXI@Z
??_R0?AVOggFileParser@@@8
??_R1A@?0A@EA@OggFileParser@@8
??_R2OggFileParser@@8
??_R3OggFileParser@@8
??_R4OggFileParser@@6B@
?continueParsing@OggFileParser@@QAEXXZ
?continueParsing@OggFileParser@@SAXPAXPAEIUtimeval@@@Z
?deliverPacketWithinPage@OggFileParser@@AAE_NXZ
?durationInMicroseconds@OggDemuxedTrack@@AAEAAIXZ
?frameSize@OggDemuxedTrack@@AAEAAIXZ
?get1Byte@StreamParser@@IAEEXZ
?get4Bytes@StreamParser@@IAEIXZ
?getBits@LEBitVector@@QAEII@Z
?getBytes@StreamParser@@IAEXPAEI@Z
?isCurrentlyAwaitingData@FramedSource@@QBE_NXZ
?maxSize@OggDemuxedTrack@@AAEAAIXZ
?needHeaders@OggFileParser@@AAE_NXZ
?nextPresentationTime@OggDemuxedTrack@@AAEAAUtimeval@@XZ
?noMoreBits@LEBitVector@@QBE_NXZ
?numTruncatedBytes@OggDemuxedTrack@@AAEAAIXZ
?parse@OggFileParser@@AAE_NXZ
?parseAndDeliverPage@OggFileParser@@AAE_NXZ
?parseAndDeliverPages@OggFileParser@@AAEXXZ
?parseInitialPage@OggFileParser@@AAEEXZ
?parseStartOfFile@OggFileParser@@AAE_NXZ
?parseStartOfPage@OggFileParser@@AAEXAAEAAI@Z
?presentationTime@OggDemuxedTrack@@AAEAAUtimeval@@XZ
?skipBits@LEBitVector@@QAEXI@Z
?skipBytes@StreamParser@@IAEXI@Z
?testBytes@StreamParser@@IAEXPAEI@Z
?to@OggDemuxedTrack@@AAEAAPAEXZ
?validateHeader@OggFileParser@@AAE_NPAVOggTrack@@PBEI@Z
?weNeedHeaders@OggTrack@@QBE_NXZ
??0OggDemux@@IAE@AAVOggFile@@@Z
??0OggFile@@AAE@AAVUsageEnvironment@@PBDP6AXPAV0@PAX@Z3@Z
??0OggTrack@@QAE@XZ
??0OggTrackTable@@QAE@XZ
??0OggTrackTableIterator@@QAE@AAVOggTrackTable@@@Z
??1OggDemux@@MAE@XZ
??1OggFile@@EAE@XZ
??1OggTrack@@UAE@XZ
??1OggTrackTable@@UAE@XZ
??1OggTrackTableIterator@@UAE@XZ
??_7OggDemux@@6B@
??_7OggFile@@6B@
??_7OggTrack@@6B@
??_7OggTrackTable@@6B@
??_7OggTrackTableIterator@@6B@
??_GOggDemux@@MAEPAXI@Z
??_GOggFile@@EAEPAXI@Z
??_GOggTrack@@UAEPAXI@Z
??_GOggTrackTable@@UAEPAXI@Z
??_GOggTrackTableIterator@@UAEPAXI@Z
??_R0?AVOggDemux@@@8
??_R0?AVOggFile@@@8
??_R0?AVOggTrack@@@8
??_R0?AVOggTrackTable@@@8
??_R0?AVOggTrackTableIterator@@@8
??_R1A@?0A@EA@OggDemux@@8
??_R1A@?0A@EA@OggFile@@8
??_R1A@?0A@EA@OggTrack@@8
??_R1A@?0A@EA@OggTrackTable@@8
??_R1A@?0A@EA@OggTrackTableIterator@@8
??_R2OggDemux@@8
??_R2OggFile@@8
??_R2OggTrack@@8
??_R2OggTrackTable@@8
??_R2OggTrackTableIterator@@8
??_R3OggDemux@@8
??_R3OggFile@@8
??_R3OggTrack@@8
??_R3OggTrackTable@@8
??_R3OggTrackTableIterator@@8
??_R4OggDemux@@6B@
??_R4OggFile@@6B@
??_R4OggTrack@@6B@
??_R4OggTrackTable@@6B@
??_R4OggTrackTableIterator@@6B@
?add@OggTrackTable@@QAEXPAVOggTrack@@@Z
?addTrack@OggFile@@AAEXPAVOggTrack@@@Z
?continueReading@OggDemux@@AAEXXZ
?createNew@OggFile@@SAXAAVUsageEnvironment@@PBDP6AXPAV1@PAX@Z3@Z
?createRTPSinkForTrackNumber@OggFile@@QAEPAVRTPSink@@IPAVGroupsock@@E@Z
?createSourceForStreaming@OggFile@@QAEPAVFramedSource@@PAV2@IAAI1@Z
?fileName@OggFile@@QBEPBDXZ
?handleEndOfBosPageParsing@OggFile@@AAEXXZ
?handleEndOfBosPageParsing@OggFile@@CAXPAX@Z
?handleEndOfFile@OggDemux@@AAEXXZ
?handleEndOfFile@OggDemux@@CAXPAX@Z
?lookup@OggFile@@QAEPAVOggTrack@@I@Z
?lookup@OggTrackTable@@QAEPAVOggTrack@@I@Z
?lookupDemuxedTrack@OggDemux@@IAEPAVOggDemuxedTrack@@I@Z
?newDemux@OggFile@@QAEPAVOggDemux@@XZ
?newDemuxedTrack@OggDemux@@QAEPAVFramedSource@@AAI@Z
?newDemuxedTrackByTrackNumber@OggDemux@@QAEPAVFramedSource@@I@Z
?next@OggTrackTableIterator@@QAEPAVOggTrack@@XZ
?numTracks@OggFile@@QBEIXZ
?numTracks@OggTrackTable@@QBEIXZ
?removeDemux@OggFile@@AAEXPAVOggDemux@@@Z
?removeTrack@OggDemux@@AAEXI@Z
??0MP3AudioMatroskaFileServerMediaSubsession@@AAE@AAVMatroskaFileServerDemux@@PAVMatroskaTrack@@_NPAVInterleaving@@@Z
??1MP3AudioMatroskaFileServerMediaSubsession@@EAE@XZ
??_7MP3AudioMatroskaFileServerMediaSubsession@@6B@
??_GMP3AudioMatroskaFileServerMediaSubsession@@EAEPAXI@Z
??_R0?AVMP3AudioFileServerMediaSubsession@@@8
??_R0?AVMP3AudioMatroskaFileServerMediaSubsession@@@8
??_R1A@?0A@EA@MP3AudioFileServerMediaSubsession@@8
??_R1A@?0A@EA@MP3AudioMatroskaFileServerMediaSubsession@@8
??_R2MP3AudioFileServerMediaSubsession@@8
??_R2MP3AudioMatroskaFileServerMediaSubsession@@8
??_R3MP3AudioFileServerMediaSubsession@@8
??_R3MP3AudioMatroskaFileServerMediaSubsession@@8
??_R4MP3AudioMatroskaFileServerMediaSubsession@@6B@
?createNew@MP3AudioMatroskaFileServerMediaSubsession@@SAPAV1@AAVMatroskaFileServerDemux@@PAVMatroskaTrack@@_NPAVInterleaving@@@Z
?createNewStreamSource@MP3AudioMatroskaFileServerMediaSubsession@@EAEPAVFramedSource@@IAAI@Z
?fileDuration@MatroskaFileServerDemux@@QBEMXZ
?fileName@MatroskaFileServerDemux@@QBEPBDXZ
?seekStreamSource@MP3AudioMatroskaFileServerMediaSubsession@@EAEXPAVFramedSource@@AANNAA_K@Z
??0MatroskaFileServerMediaSubsession@@IAE@AAVMatroskaFileServerDemux@@PAVMatroskaTrack@@@Z
??1MatroskaFileServerMediaSubsession@@MAE@XZ
??_7MatroskaFileServerMediaSubsession@@6B@
??_GMatroskaFileServerMediaSubsession@@MAEPAXI@Z
??_R0?AVMatroskaFileServerMediaSubsession@@@8
??_R1A@?0A@EA@MatroskaFileServerMediaSubsession@@8
??_R2MatroskaFileServerMediaSubsession@@8
??_R3MatroskaFileServerMediaSubsession@@8
??_R4MatroskaFileServerMediaSubsession@@6B@
?createNew@MatroskaFileServerMediaSubsession@@SAPAV1@AAVMatroskaFileServerDemux@@PAVMatroskaTrack@@@Z
?createNewRTPSink@MatroskaFileServerMediaSubsession@@MAEPAVRTPSink@@PAVGroupsock@@EPAVFramedSource@@@Z
?createNewStreamSource@MatroskaFileServerMediaSubsession@@MAEPAVFramedSource@@IAAI@Z
?duration@MatroskaFileServerMediaSubsession@@MBEMXZ
?inputSource@FramedFilter@@QBEPAVFramedSource@@XZ
?ourMatroskaFile@MatroskaFileServerDemux@@QAEPAVMatroskaFile@@XZ
?seekStreamSource@MatroskaFileServerMediaSubsession@@MAEXPAVFramedSource@@AANNAA_K@Z
??0MatroskaFileServerDemux@@AAE@AAVUsageEnvironment@@PBDP6AXPAV0@PAX@Z31@Z
??1MatroskaFileServerDemux@@EAE@XZ
??_7MatroskaFileServerDemux@@6B@
??_GMatroskaFileServerDemux@@EAEPAXI@Z
??_R0?AVMatroskaFileServerDemux@@@8
??_R1A@?0A@EA@MatroskaFileServerDemux@@8
??_R2MatroskaFileServerDemux@@8
??_R3MatroskaFileServerDemux@@8
??_R4MatroskaFileServerDemux@@6B@
?chosenAudioTrackNumber@MatroskaFile@@QAEIXZ
?chosenSubtitleTrackNumber@MatroskaFile@@QAEIXZ
?chosenVideoTrackNumber@MatroskaFile@@QAEIXZ
?createNew@MatroskaFileServerDemux@@SAXAAVUsageEnvironment@@PBDP6AXPAV1@PAX@Z31@Z
?newDemuxedTrack@MatroskaFileServerDemux@@QAEPAVFramedSource@@II@Z
?newServerMediaSubsession@MatroskaFileServerDemux@@QAEPAVServerMediaSubsession@@AAI@Z
?newServerMediaSubsession@MatroskaFileServerDemux@@QAEPAVServerMediaSubsession@@XZ
?newServerMediaSubsessionByTrackNumber@MatroskaFileServerDemux@@QAEPAVServerMediaSubsession@@I@Z
?onMatroskaFileCreation@MatroskaFileServerDemux@@AAEXPAVMatroskaFile@@@Z
?onMatroskaFileCreation@MatroskaFileServerDemux@@CAXPAVMatroskaFile@@PAX@Z
??0MatroskaDemuxedTrack@@AAE@AAVUsageEnvironment@@IAAVMatroskaDemux@@@Z
??1MatroskaDemuxedTrack@@EAE@XZ
??_7MatroskaDemuxedTrack@@6B@
??_GMatroskaDemuxedTrack@@EAEPAXI@Z
??_R0?AVMatroskaDemuxedTrack@@@8
??_R1A@?0A@EA@MatroskaDemuxedTrack@@8
??_R2MatroskaDemuxedTrack@@8
??_R3MatroskaDemuxedTrack@@8
??_R4MatroskaDemuxedTrack@@6B@
?MIMEtype@MatroskaDemuxedTrack@@EBEPBDXZ
?doGetNextFrame@MatroskaDemuxedTrack@@EAEXXZ
?seekToTime@MatroskaDemuxedTrack@@QAEXAAN@Z
??0EBMLDataSize@@QAE@XZ
??0EBMLId@@QAE@XZ
??0EBMLNumber@@QAE@_N@Z
??1EBMLDataSize@@UAE@XZ
??1EBMLId@@UAE@XZ
??1EBMLNumber@@UAE@XZ
??_7EBMLDataSize@@6B@
??_7EBMLId@@6B@
??_7EBMLNumber@@6B@
??_GEBMLDataSize@@UAEPAXI@Z
??_GEBMLId@@UAEPAXI@Z
??_GEBMLNumber@@UAEPAXI@Z
??_R0?AVEBMLDataSize@@@8
??_R0?AVEBMLId@@@8
??_R0?AVEBMLNumber@@@8
??_R1A@?0A@EA@EBMLDataSize@@8
??_R1A@?0A@EA@EBMLId@@8
??_R1A@?0A@EA@EBMLNumber@@8
??_R2EBMLDataSize@@8
??_R2EBMLId@@8
??_R2EBMLNumber@@8
??_R3EBMLDataSize@@8
??_R3EBMLId@@8
??_R3EBMLNumber@@8
??_R4EBMLDataSize@@6B@
??_R4EBMLId@@6B@
??_R4EBMLNumber@@6B@
?hexString@EBMLNumber@@QBEPADXZ
?stringName@EBMLId@@QBEPBDXZ
?val@EBMLNumber@@QBE_KXZ
??0MatroskaFileParser@@QAE@AAVMatroskaFile@@PAVFramedSource@@P6AXPAX@Z2PAVMatroskaDemux@@@Z
??1MatroskaFileParser@@UAE@XZ
??8EBMLNumber@@QBE_N_K@Z
??9EBMLNumber@@QBE_N_K@Z
??_7MatroskaFileParser@@6B@
??_GMatroskaFileParser@@UAEPAXI@Z
??_R0?AVMatroskaFileParser@@@8
??_R1A@?0A@EA@MatroskaFileParser@@8
??_R2MatroskaFileParser@@8
??_R3MatroskaFileParser@@8
??_R4MatroskaFileParser@@6B@
?continueParsing@MatroskaFileParser@@QAEXXZ
?continueParsing@MatroskaFileParser@@SAXPAXPAEIUtimeval@@@Z
?curOffset@StreamParser@@IBEIXZ
?deliverFrameBytes@MatroskaFileParser@@AAEXXZ
?deliverFrameWithinBlock@MatroskaFileParser@@AAE_NXZ
?durationImbalance@MatroskaDemuxedTrack@@AAEAAHXZ
?durationInMicroseconds@MatroskaDemuxedTrack@@AAEAAIXZ
?frameSize@MatroskaDemuxedTrack@@AAEAAIXZ
?getCommonFrameBytes@MatroskaFileParser@@AAEXPAVMatroskaTrack@@PAEII@Z
?haveSubframes@MatroskaTrack@@QBE_NXZ
?lookForNextBlock@MatroskaFileParser@@AAEXXZ
?lookForNextTrack@MatroskaFileParser@@AAEXXZ
?maxSize@MatroskaDemuxedTrack@@AAEIXZ
?numTruncatedBytes@MatroskaDemuxedTrack@@AAEAAIXZ
?parse@MatroskaFileParser@@AAE_NXZ
?parseBlock@MatroskaFileParser@@AAEXXZ
?parseCues@MatroskaFileParser@@AAE_NXZ
?parseEBMLIdAndSize@MatroskaFileParser@@AAE_NAAVEBMLId@@AAVEBMLDataSize@@@Z
?parseEBMLNumber@MatroskaFileParser@@AAE_NAAVEBMLNumber@@@Z
?parseEBMLVal_binary@MatroskaFileParser@@AAE_NAAVEBMLDataSize@@AAPAE@Z
?parseEBMLVal_float@MatroskaFileParser@@AAE_NAAVEBMLDataSize@@AAM@Z
?parseEBMLVal_string@MatroskaFileParser@@AAE_NAAVEBMLDataSize@@AAPAD@Z
?parseEBMLVal_unsigned64@MatroskaFileParser@@AAE_NAAVEBMLDataSize@@AA_K@Z
?parseEBMLVal_unsigned@MatroskaFileParser@@AAE_NAAVEBMLDataSize@@AAI@Z
?parseStartOfFile@MatroskaFileParser@@AAE_NXZ
?parseTrack@MatroskaFileParser@@AAE_NXZ
?presentationTime@MatroskaDemuxedTrack@@AAEAAUtimeval@@XZ
?prevPresentationTime@MatroskaDemuxedTrack@@AAEAAUtimeval@@XZ
?resetStateAfterSeeking@MatroskaFileParser@@AAEXXZ
?restoreSavedParserState@MatroskaFileParser@@EAEXXZ
?seekToEndOfFile@MatroskaFileParser@@AAEXXZ
?seekToFilePosition@MatroskaFileParser@@AAEX_K@Z
?seekToTime@MatroskaFileParser@@QAEXAAN@Z
?setParseState@MatroskaFileParser@@AAEXXZ
?skipHeader@MatroskaFileParser@@AAEXABVEBMLDataSize@@@Z
?skipRemainingHeaderBytes@MatroskaFileParser@@AAEX_N@Z
?to@MatroskaDemuxedTrack@@AAEPAEXZ
??0CuePoint@@QAE@N_KI@Z
??0Iterator@MatroskaTrackTable@@QAE@AAV1@@Z
??0MatroskaDemux@@IAE@AAVMatroskaFile@@@Z
??0MatroskaFile@@AAE@AAVUsageEnvironment@@PBDP6AXPAV0@PAX@Z31@Z
??0MatroskaTrack@@QAE@XZ
??0MatroskaTrackTable@@QAE@XZ
??1CuePoint@@UAE@XZ
??1Iterator@MatroskaTrackTable@@UAE@XZ
??1MatroskaDemux@@MAE@XZ
??1MatroskaFile@@EAE@XZ
??1MatroskaTrack@@UAE@XZ
??1MatroskaTrackTable@@UAE@XZ
??_7CuePoint@@6B@
??_7Iterator@MatroskaTrackTable@@6B@
??_7MatroskaDemux@@6B@
??_7MatroskaFile@@6B@
??_7MatroskaTrack@@6B@
??_7MatroskaTrackTable@@6B@
??_GCuePoint@@UAEPAXI@Z
??_GIterator@MatroskaTrackTable@@UAEPAXI@Z
??_GMatroskaDemux@@MAEPAXI@Z
??_GMatroskaFile@@EAEPAXI@Z
??_GMatroskaTrack@@UAEPAXI@Z
??_GMatroskaTrackTable@@UAEPAXI@Z
??_R0?AVCuePoint@@@8
??_R0?AVIterator@MatroskaTrackTable@@@8
??_R0?AVMatroskaDemux@@@8
??_R0?AVMatroskaFile@@@8
??_R0?AVMatroskaTrack@@@8
??_R0?AVMatroskaTrackTable@@@8
??_R1A@?0A@EA@CuePoint@@8
??_R1A@?0A@EA@Iterator@MatroskaTrackTable@@8
??_R1A@?0A@EA@MatroskaDemux@@8
??_R1A@?0A@EA@MatroskaFile@@8
??_R1A@?0A@EA@MatroskaTrack@@8
??_R1A@?0A@EA@MatroskaTrackTable@@8
??_R2CuePoint@@8
??_R2Iterator@MatroskaTrackTable@@8
??_R2MatroskaDemux@@8
??_R2MatroskaFile@@8
??_R2MatroskaTrack@@8
??_R2MatroskaTrackTable@@8
??_R3CuePoint@@8
??_R3Iterator@MatroskaTrackTable@@8
??_R3MatroskaDemux@@8
??_R3MatroskaFile@@8
??_R3MatroskaTrack@@8
??_R3MatroskaTrackTable@@8
??_R4CuePoint@@6B@
??_R4Iterator@MatroskaTrackTable@@6B@
??_R4MatroskaDemux@@6B@
??_R4MatroskaFile@@6B@
??_R4MatroskaTrack@@6B@
??_R4MatroskaTrackTable@@6B@
?add@MatroskaTrackTable@@QAEXPAVMatroskaTrack@@I@Z
?addCuePoint@CuePoint@@SAXAAPAV1@N_KIAA_N@Z
?addCuePoint@MatroskaFile@@AAEXN_KI@Z
?addTrack@MatroskaFile@@AAEXPAVMatroskaTrack@@I@Z
?continueReading@MatroskaDemux@@AAEXXZ
?createNew@MatroskaFile@@SAXAAVUsageEnvironment@@PBDP6AXPAV1@PAX@Z31@Z
?createRTPSinkForTrackNumber@MatroskaFile@@QAEPAVRTPSink@@IPAVGroupsock@@E@Z
?createSourceForStreaming@MatroskaFile@@QAEPAVFramedSource@@PAV2@IAAI1@Z
?fileDuration@MatroskaFile@@QAEMXZ
?fileName@MatroskaFile@@QBEPBDXZ
?fprintf@CuePoint@@SAXPAU_iobuf@@PAV1@@Z
?handleEndOfFile@MatroskaDemux@@AAEXXZ
?handleEndOfFile@MatroskaDemux@@CAXPAX@Z
?handleEndOfTrackHeaderParsing@MatroskaFile@@AAEXXZ
?handleEndOfTrackHeaderParsing@MatroskaFile@@CAXPAX@Z
?increaseMaxSizeTo@OutPacketBuffer@@SAXI@Z
?left@CuePoint@@ABEPAV1@XZ
?lookup@CuePoint@@QAE_NAANAA_KAAI@Z
?lookup@MatroskaFile@@QBEPAVMatroskaTrack@@I@Z
?lookup@MatroskaTrackTable@@QAEPAVMatroskaTrack@@I@Z
?lookupCuePoint@MatroskaFile@@AAE_NAANAA_KAAI@Z
?lookupDemuxedTrack@MatroskaDemux@@IAEPAVMatroskaDemuxedTrack@@I@Z
?newDemux@MatroskaFile@@QAEPAVMatroskaDemux@@XZ
?newDemuxedTrack@MatroskaDemux@@QAEPAVFramedSource@@AAI@Z
?newDemuxedTrack@MatroskaDemux@@QAEPAVFramedSource@@XZ
?newDemuxedTrackByTrackNumber@MatroskaDemux@@QAEPAVFramedSource@@I@Z
?next@Iterator@MatroskaTrackTable@@QAEPAVMatroskaTrack@@XZ
?numTracks@MatroskaTrackTable@@QBEIXZ
?printCuePoints@MatroskaFile@@AAEXPAU_iobuf@@@Z
?removeDemux@MatroskaFile@@AAEXPAVMatroskaDemux@@@Z
?removeTrack@MatroskaDemux@@AAEXI@Z
?right@CuePoint@@ABEPAV1@XZ
?rotate@CuePoint@@CAXIAAPAV1@@Z
?seekToTime@MatroskaDemux@@AAEXAAN@Z
?segmentDuration@MatroskaFile@@QAEMXZ
?timecodeScale@MatroskaFile@@QAEIXZ
??0MPEG2TransportStreamTrickModeFilter@@IAE@AAVUsageEnvironment@@PAVFramedSource@@PAVMPEG2TransportStreamIndexFile@@H@Z
??1MPEG2TransportStreamTrickModeFilter@@MAE@XZ
??_7MPEG2TransportStreamTrickModeFilter@@6B@
??_GMPEG2TransportStreamTrickModeFilter@@MAEPAXI@Z
??_R0?AVFramedFilter@@@8
??_R0?AVMPEG2TransportStreamTrickModeFilter@@@8
??_R1A@?0A@EA@FramedFilter@@8
??_R1A@?0A@EA@MPEG2TransportStreamTrickModeFilter@@8
??_R2FramedFilter@@8
??_R2MPEG2TransportStreamTrickModeFilter@@8
??_R3FramedFilter@@8
??_R3MPEG2TransportStreamTrickModeFilter@@8
??_R4MPEG2TransportStreamTrickModeFilter@@6B@
?afterGettingFrame1@MPEG2TransportStreamTrickModeFilter@@AAEXI@Z
?afterGettingFrame@MPEG2TransportStreamTrickModeFilter@@CAXPAXIIUtimeval@@I@Z
?attemptDeliveryToClient@MPEG2TransportStreamTrickModeFilter@@AAEXXZ
?createNew@MPEG2TransportStreamTrickModeFilter@@SAPAV1@AAVUsageEnvironment@@PAVFramedSource@@PAVMPEG2TransportStreamIndexFile@@H@Z
?doGetNextFrame@MPEG2TransportStreamTrickModeFilter@@EAEXXZ
?doStopGettingFrames@MPEG2TransportStreamTrickModeFilter@@EAEXXZ
?onSourceClosure1@MPEG2TransportStreamTrickModeFilter@@AAEXXZ
?onSourceClosure@MPEG2TransportStreamTrickModeFilter@@CAXPAX@Z
?readTransportPacket@MPEG2TransportStreamTrickModeFilter@@AAEXK@Z
?seekTo@MPEG2TransportStreamTrickModeFilter@@QAE_NKK@Z
?seekToTransportPacket@MPEG2TransportStreamTrickModeFilter@@AAEXK@Z
?stopReading@MPEG2TransportStreamIndexFile@@QAEXXZ
??0MPEG2TransportStreamIndexFile@@AAE@AAVUsageEnvironment@@PBD@Z
??1MPEG2TransportStreamIndexFile@@UAE@XZ
??_7MPEG2TransportStreamIndexFile@@6B@
??_GMPEG2TransportStreamIndexFile@@UAEPAXI@Z
??_R0?AVMPEG2TransportStreamIndexFile@@@8
??_R1A@?0A@EA@MPEG2TransportStreamIndexFile@@8
??_R2MPEG2TransportStreamIndexFile@@8
??_R3MPEG2TransportStreamIndexFile@@8
??_R4MPEG2TransportStreamIndexFile@@6B@
?closeFid@MPEG2TransportStreamIndexFile@@AAEXXZ
?createNew@MPEG2TransportStreamIndexFile@@SAPAV1@AAVUsageEnvironment@@PBD@Z
?getPlayingDuration@MPEG2TransportStreamIndexFile@@QAEMXZ
?lookupPCRFromTSPacketNum@MPEG2TransportStreamIndexFile@@QAEXAAK_NAAM0@Z
?lookupTSPacketNumFromNPT@MPEG2TransportStreamIndexFile@@QAEXAAMAAK1@Z
?mpegVersion@MPEG2TransportStreamIndexFile@@QAEHXZ
?offsetFromBuf@MPEG2TransportStreamIndexFile@@AAEEXZ
?openFid@MPEG2TransportStreamIndexFile@@AAE_NXZ
?pcrFromBuf@MPEG2TransportStreamIndexFile@@AAEMXZ
?readIndexRecord@MPEG2TransportStreamIndexFile@@AAE_NK@Z
?readIndexRecordValues@MPEG2TransportStreamIndexFile@@QAE_NKAAKAAE1AAM1@Z
?readOneIndexRecord@MPEG2TransportStreamIndexFile@@AAE_NK@Z
?recordTypeFromBuf@MPEG2TransportStreamIndexFile@@AAEEXZ
?rewindToCleanPoint@MPEG2TransportStreamIndexFile@@AAE_NAAK@Z
?seekToIndexRecord@MPEG2TransportStreamIndexFile@@AAE_NK@Z
?setMPEGVersionFromRecordType@MPEG2TransportStreamIndexFile@@AAEXE@Z
?sizeFromBuf@MPEG2TransportStreamIndexFile@@AAEEXZ
?tsPacketNumFromBuf@MPEG2TransportStreamIndexFile@@AAEKXZ
??0IndexRecord@@QAE@EEKM@Z
??0MPEG2IFrameIndexFromTransportStream@@IAE@AAVUsageEnvironment@@PAVFramedSource@@@Z
??1IndexRecord@@UAE@XZ
??1MPEG2IFrameIndexFromTransportStream@@MAE@XZ
??_7IndexRecord@@6B@
??_7MPEG2IFrameIndexFromTransportStream@@6B@
??_GIndexRecord@@UAEPAXI@Z
??_GMPEG2IFrameIndexFromTransportStream@@MAEPAXI@Z
??_R0?AVIndexRecord@@@8
??_R0?AVMPEG2IFrameIndexFromTransportStream@@@8
??_R1A@?0A@EA@IndexRecord@@8
??_R1A@?0A@EA@MPEG2IFrameIndexFromTransportStream@@8
??_R2IndexRecord@@8
??_R2MPEG2IFrameIndexFromTransportStream@@8
??_R3IndexRecord@@8
??_R3MPEG2IFrameIndexFromTransportStream@@8
??_R4IndexRecord@@6B@
??_R4MPEG2IFrameIndexFromTransportStream@@6B@
?addAfter@IndexRecord@@QAEXPAV1@@Z
?addToTail@MPEG2IFrameIndexFromTransportStream@@AAEXPAVIndexRecord@@@Z
?afterGettingFrame1@MPEG2IFrameIndexFromTransportStream@@AAEXIIUtimeval@@I@Z
?afterGettingFrame@MPEG2IFrameIndexFromTransportStream@@CAXPAXIIUtimeval@@I@Z
?analyzePAT@MPEG2IFrameIndexFromTransportStream@@AAEXPAEI@Z
?analyzePMT@MPEG2IFrameIndexFromTransportStream@@AAEXPAEI@Z
?compactParseBuffer@MPEG2IFrameIndexFromTransportStream@@AAEXXZ
?createNew@MPEG2IFrameIndexFromTransportStream@@SAPAV1@AAVUsageEnvironment@@PAVFramedSource@@@Z
?deliverIndexRecord@MPEG2IFrameIndexFromTransportStream@@AAE_NXZ
?doGetNextFrame@MPEG2IFrameIndexFromTransportStream@@EAEXXZ
?handleInputClosure1@MPEG2IFrameIndexFromTransportStream@@AAEXXZ
?handleInputClosure@MPEG2IFrameIndexFromTransportStream@@CAXPAX@Z
?next@IndexRecord@@QBEPAV1@XZ
?parseFrame@MPEG2IFrameIndexFromTransportStream@@AAE_NXZ
?parseToNextCode@MPEG2IFrameIndexFromTransportStream@@AAE_NAAE@Z
?pcr@IndexRecord@@QBEMXZ
?recordType@IndexRecord@@QAEAAW4RecordType@@XZ
?setFirstFlag@IndexRecord@@QAEXXZ
?size@IndexRecord@@QAEAAEXZ
?startOffset@IndexRecord@@QBEEXZ
?transportPacketNumber@IndexRecord@@QBEKXZ
?unlink@IndexRecord@@QAEXXZ
??0AVIFileSink@@AAE@AAVUsageEnvironment@@AAVMediaSession@@PBDIGGI_N@Z
??0AVIIndexRecord@@QAE@IIII@Z
??0AVISubsessionIOState@@QAE@AAVAVIFileSink@@AAVMediaSubsession@@@Z
??0SubsessionBuffer@@QAE@I@Z
??1AVIFileSink@@EAE@XZ
??1AVISubsessionIOState@@UAE@XZ
??1SubsessionBuffer@@UAE@XZ
??_7AVIFileSink@@6B@
??_7AVISubsessionIOState@@6B@
??_7SubsessionBuffer@@6B@
??_GAVIFileSink@@EAEPAXI@Z
??_GAVISubsessionIOState@@UAEPAXI@Z
??_GSubsessionBuffer@@UAEPAXI@Z
??_R0?AVAVIFileSink@@@8
??_R0?AVAVISubsessionIOState@@@8
??_R0?AVSubsessionBuffer@@@8
??_R1A@?0A@EA@AVIFileSink@@8
??_R1A@?0A@EA@AVISubsessionIOState@@8
??_R1A@?0A@EA@SubsessionBuffer@@8
??_R2AVIFileSink@@8
??_R2AVISubsessionIOState@@8
??_R2SubsessionBuffer@@8
??_R3AVIFileSink@@8
??_R3AVISubsessionIOState@@8
??_R3SubsessionBuffer@@8
??_R4AVIFileSink@@6B@
??_R4AVISubsessionIOState@@6B@
??_R4SubsessionBuffer@@6B@
?add4ByteString@AVIFileSink@@AAEIPBD@Z
?addByte@AVIFileSink@@AAEIE@Z
?addBytes@SubsessionBuffer@@QAEXI@Z
?addFileHeader_AVI@AVIFileSink@@AAEIXZ
?addFileHeader_JUNK@AVIFileSink@@AAEIXZ
?addFileHeader_avih@AVIFileSink@@AAEIXZ
?addFileHeader_hdrl@AVIFileSink@@AAEIXZ
?addFileHeader_movi@AVIFileSink@@AAEIXZ
?addFileHeader_strf@AVIFileSink@@AAEIXZ
?addFileHeader_strh@AVIFileSink@@AAEIXZ
?addFileHeader_strl@AVIFileSink@@AAEIXZ
?addHalfWord@AVIFileSink@@AAEIG@Z
?addIndexRecord@AVIFileSink@@AAEXPAVAVIIndexRecord@@@Z
?addWord@AVIFileSink@@AAEII@Z
?addZeroWords@AVIFileSink@@AAEII@Z
?afterGettingFrame@AVIFileSink@@CAXPAXIIUtimeval@@I@Z
?afterGettingFrame@AVISubsessionIOState@@QAEXIUtimeval@@@Z
?bytesAvailable@SubsessionBuffer@@QBEIXZ
?bytesInUse@SubsessionBuffer@@QBEIXZ
?chunkId@AVIIndexRecord@@QBEIXZ
?codecName@MediaSubsession@@QBEPBDXZ
?completeOutputFile@AVIFileSink@@AAEXXZ
?continuePlaying@AVIFileSink@@AAE_NXZ
?createNew@AVIFileSink@@SAPAV1@AAVUsageEnvironment@@AAVMediaSession@@PBDIGGI_N@Z
?curPacketRTPSeqNum@RTPSource@@QBEGXZ
?dataEnd@SubsessionBuffer@@QAEPAEXZ
?dataStart@SubsessionBuffer@@QAEPAEXZ
?envir@AVISubsessionIOState@@QBEAAVUsageEnvironment@@XZ
?flags@AVIIndexRecord@@QBEIXZ
?mediumName@MediaSubsession@@QBEPBDXZ
?next@AVIIndexRecord@@QAEAAPAV1@XZ
?numChannels@MediaSubsession@@QBEIXZ
?offset@AVIIndexRecord@@QBEIXZ
?onRTCPBye@AVIFileSink@@CAXPAX@Z
?onSourceClosure1@AVIFileSink@@AAEXXZ
?onSourceClosure@AVIFileSink@@CAXPAX@Z
?onSourceClosure@AVISubsessionIOState@@QAEXXZ
?presentationTime@SubsessionBuffer@@QBEABUtimeval@@XZ
?readSource@MediaSubsession@@QAEPAVFramedSource@@XZ
?reset@SubsessionBuffer@@QAEXXZ
?rtcpInstance@MediaSubsession@@QAEPAVRTCPInstance@@XZ
?rtpSource@MediaSubsession@@QAEPAVRTPSource@@XZ
?rtpTimestampFrequency@MediaSubsession@@QBEIXZ
?setAVIstate@AVISubsessionIOState@@QAEXI@Z
?setPresentationTime@SubsessionBuffer@@QAEXABUtimeval@@@Z
?setWord@AVIFileSink@@AAEXII@Z
?size@AVIIndexRecord@@QBEIXZ
?startPlaying@AVIFileSink@@QAE_NP6AXPAX@Z0@Z
?useFrame@AVISubsessionIOState@@AAEXAAVSubsessionBuffer@@@Z
?videoFPS@MediaSubsession@@QBEIXZ
?videoHeight@MediaSubsession@@QBEGXZ
?videoWidth@MediaSubsession@@QBEGXZ
??0QTGenericBufferedPacket@@QAE@AAVQuickTimeGenericRTPSource@@@Z
??0QTGenericBufferedPacketFactory@@QAE@XZ
??0QuickTimeGenericRTPSource@@AAE@AAVUsageEnvironment@@PAVGroupsock@@EIPBD@Z
??1QTGenericBufferedPacket@@UAE@XZ
??1QTGenericBufferedPacketFactory@@UAE@XZ
??1QuickTimeGenericRTPSource@@MAE@XZ
??_7QTGenericBufferedPacket@@6B@
??_7QTGenericBufferedPacketFactory@@6B@
??_7QuickTimeGenericRTPSource@@6B@
??_GQTGenericBufferedPacket@@UAEPAXI@Z
??_GQTGenericBufferedPacketFactory@@UAEPAXI@Z
??_GQuickTimeGenericRTPSource@@MAEPAXI@Z
??_R0?AVBufferedPacket@@@8
??_R0?AVBufferedPacketFactory@@@8
??_R0?AVMultiFramedRTPSource@@@8
??_R0?AVQTGenericBufferedPacket@@@8
??_R0?AVQTGenericBufferedPacketFactory@@@8
??_R0?AVQuickTimeGenericRTPSource@@@8
??_R0?AVRTPSource@@@8
??_R1A@?0A@EA@BufferedPacket@@8
??_R1A@?0A@EA@BufferedPacketFactory@@8
??_R1A@?0A@EA@MultiFramedRTPSource@@8
??_R1A@?0A@EA@QTGenericBufferedPacket@@8
??_R1A@?0A@EA@QTGenericBufferedPacketFactory@@8
??_R1A@?0A@EA@QuickTimeGenericRTPSource@@8
??_R1A@?0A@EA@RTPSource@@8
??_R2BufferedPacket@@8
??_R2BufferedPacketFactory@@8
??_R2MultiFramedRTPSource@@8
??_R2QTGenericBufferedPacket@@8
??_R2QTGenericBufferedPacketFactory@@8
??_R2QuickTimeGenericRTPSource@@8
??_R2RTPSource@@8
??_R3BufferedPacket@@8
??_R3BufferedPacketFactory@@8
??_R3MultiFramedRTPSource@@8
??_R3QTGenericBufferedPacket@@8
??_R3QTGenericBufferedPacketFactory@@8
??_R3QuickTimeGenericRTPSource@@8
??_R3RTPSource@@8
??_R4QTGenericBufferedPacket@@6B@
??_R4QTGenericBufferedPacketFactory@@6B@
??_R4QuickTimeGenericRTPSource@@6B@
?MIMEtype@QuickTimeGenericRTPSource@@EBEPBDXZ
?createNew@QuickTimeGenericRTPSource@@SAPAV1@AAVUsageEnvironment@@PAVGroupsock@@EIPBD@Z
?createNewPacket@QTGenericBufferedPacketFactory@@EAEPAVBufferedPacket@@PAVMultiFramedRTPSource@@@Z
?data@BufferedPacket@@QBEPAEXZ
?dataSize@BufferedPacket@@QBEIXZ
?nextEnclosedFrameSize@QTGenericBufferedPacket@@EAEIAAPAEI@Z
?processSpecialHeader@QuickTimeGenericRTPSource@@EAE_NPAVBufferedPacket@@AAI@Z
?rtpMarkerBit@BufferedPacket@@QBE_NXZ
??0ChunkDescriptor@@QAE@_JIIIUtimeval@@@Z
??0Count64@@QAE@XZ
??0QuickTimeFileSink@@IAE@AAVUsageEnvironment@@AAVMediaSession@@PBDIGGI_N333@Z
??0SubsessionIOState@@QAE@AAVQuickTimeFileSink@@AAVMediaSubsession@@@Z
??0SyncFrame@@QAE@I@Z
??0hinf@SubsessionIOState@@QAE@XZ
??1QuickTimeFileSink@@MAE@XZ
??1SubsessionIOState@@UAE@XZ
??YCount64@@QAEXI@Z
??_7QuickTimeFileSink@@6B@
??_7SubsessionIOState@@6B@
??_C@_0BF@IHFLHAOJ@sprop?9parameter?9sets?$AA@
??_GQuickTimeFileSink@@MAEPAXI@Z
??_GSubsessionIOState@@UAEPAXI@Z
??_R0?AVQuickTimeFileSink@@@8
??_R0?AVSubsessionIOState@@@8
??_R1A@?0A@EA@QuickTimeFileSink@@8
??_R1A@?0A@EA@SubsessionIOState@@8
??_R2QuickTimeFileSink@@8
??_R2SubsessionIOState@@8
??_R3QuickTimeFileSink@@8
??_R3SubsessionIOState@@8
??_R4QuickTimeFileSink@@6B@
??_R4SubsessionIOState@@6B@
?_OptionsStorage@?1??__local_stdio_scanf_options@@9@4_KA
?add4ByteString@QuickTimeFileSink@@AAEIPBD@Z
?addArbitraryString@QuickTimeFileSink@@AAEIPBD_N@Z
?addAtomHeader64@QuickTimeFileSink@@AAEIPBD@Z
?addAtomHeader@QuickTimeFileSink@@AAEIPBD@Z
?addAtom_Fclp@QuickTimeFileSink@@AAEIXZ
?addAtom_Hclp@QuickTimeFileSink@@AAEIXZ
?addAtom_Qclp@QuickTimeFileSink@@AAEIXZ
?addAtom_alis@QuickTimeFileSink@@AAEIXZ
?addAtom_avc1@QuickTimeFileSink@@AAEIXZ
?addAtom_avcC@QuickTimeFileSink@@AAEIXZ
?addAtom_co64@QuickTimeFileSink@@AAEIXZ
?addAtom_dimm@QuickTimeFileSink@@AAEIXZ
?addAtom_dinf@QuickTimeFileSink@@AAEIXZ
?addAtom_dmax@QuickTimeFileSink@@AAEIXZ
?addAtom_dmed@QuickTimeFileSink@@AAEIXZ
?addAtom_dref@QuickTimeFileSink@@AAEIXZ
?addAtom_drep@QuickTimeFileSink@@AAEIXZ
?addAtom_dummy@QuickTimeFileSink@@AAEIXZ
?addAtom_edts@QuickTimeFileSink@@AAEIXZ
?addAtom_elst@QuickTimeFileSink@@AAEIXZ
?addAtom_esds@QuickTimeFileSink@@AAEIXZ
?addAtom_frma@QuickTimeFileSink@@AAEIXZ
?addAtom_ftyp@QuickTimeFileSink@@AAEIXZ
?addAtom_genericMedia@QuickTimeFileSink@@AAEIXZ
?addAtom_gmhd@QuickTimeFileSink@@AAEIXZ
?addAtom_gmin@QuickTimeFileSink@@AAEIXZ
?addAtom_h263@QuickTimeFileSink@@AAEIXZ
?addAtom_hdlr2@QuickTimeFileSink@@AAEIXZ
?addAtom_hdlr@QuickTimeFileSink@@AAEIXZ
?addAtom_hinf@QuickTimeFileSink@@AAEIXZ
?addAtom_hint@QuickTimeFileSink@@AAEIXZ
?addAtom_hnti@QuickTimeFileSink@@AAEIXZ
?addAtom_iods@QuickTimeFileSink@@AAEIXZ
?addAtom_mdhd@QuickTimeFileSink@@AAEIXZ
?addAtom_mdia@QuickTimeFileSink@@AAEIXZ
?addAtom_minf@QuickTimeFileSink@@AAEIXZ
?addAtom_moov@QuickTimeFileSink@@AAEIXZ
?addAtom_mp4a@QuickTimeFileSink@@AAEIXZ
?addAtom_mp4v@QuickTimeFileSink@@AAEIXZ
?addAtom_mvhd@QuickTimeFileSink@@AAEIXZ
?addAtom_name@QuickTimeFileSink@@AAEIXZ
?addAtom_npck@QuickTimeFileSink@@AAEIXZ
?addAtom_nump@QuickTimeFileSink@@AAEIXZ
?addAtom_payt@QuickTimeFileSink@@AAEIXZ
?addAtom_pmax@QuickTimeFileSink@@AAEIXZ
?addAtom_rtp@QuickTimeFileSink@@AAEIXZ
?addAtom_sdp@QuickTimeFileSink@@AAEIXZ
?addAtom_smhd@QuickTimeFileSink@@AAEIXZ
?addAtom_soundMediaGeneral@QuickTimeFileSink@@AAEIXZ
?addAtom_srcq@QuickTimeFileSink@@AAEIXZ
?addAtom_stbl@QuickTimeFileSink@@AAEIXZ
?addAtom_stsc@QuickTimeFileSink@@AAEIXZ
?addAtom_stsd@QuickTimeFileSink@@AAEIXZ
?addAtom_stss@QuickTimeFileSink@@AAEIXZ
?addAtom_stsz@QuickTimeFileSink@@AAEIXZ
?addAtom_stts@QuickTimeFileSink@@AAEIXZ
?addAtom_tims@QuickTimeFileSink@@AAEIXZ
?addAtom_tkhd@QuickTimeFileSink@@AAEIXZ
?addAtom_tmax@QuickTimeFileSink@@AAEIXZ
?addAtom_tmin@QuickTimeFileSink@@AAEIXZ
?addAtom_totl@QuickTimeFileSink@@AAEIXZ
?addAtom_tpay@QuickTimeFileSink@@AAEIXZ
?addAtom_tpyl@QuickTimeFileSink@@AAEIXZ
?addAtom_trak@QuickTimeFileSink@@AAEIXZ
?addAtom_tref@QuickTimeFileSink@@AAEIXZ
?addAtom_trpy@QuickTimeFileSink@@AAEIXZ
?addAtom_udta@QuickTimeFileSink@@AAEIXZ
?addAtom_vmhd@QuickTimeFileSink@@AAEIXZ
?addAtom_wave@QuickTimeFileSink@@AAEIXZ
?addByte@QuickTimeFileSink@@AAEIE@Z
?addHalfWord@QuickTimeFileSink@@AAEIG@Z
?addWord64@QuickTimeFileSink@@AAEI_K@Z
?addWord@QuickTimeFileSink@@AAEII@Z
?addZeroWords@QuickTimeFileSink@@AAEII@Z
?afterGettingFrame@QuickTimeFileSink@@CAXPAXIIUtimeval@@I@Z
?afterGettingFrame@SubsessionIOState@@QAEXIUtimeval@@@Z
?attrVal_unsigned@MediaSubsession@@QBEIPBD@Z
?completeOutputFile@QuickTimeFileSink@@AAEXXZ
?continuePlaying@QuickTimeFileSink@@AAE_NXZ
?createNew@QuickTimeFileSink@@SAPAV1@AAVUsageEnvironment@@AAVMediaSession@@PBDIGGI_N333@Z
?curPacketMarkerBit@RTPSource@@QBE_NXZ
?envir@SubsessionIOState@@QBEAAVUsageEnvironment@@XZ
?extendChunk@ChunkDescriptor@@QAEPAV1@_JIIIUtimeval@@@Z
?fCurrentTrackNumber@SubsessionIOState@@2IA
?fmtp_spropparametersets@MediaSubsession@@QBEPBDXZ
?hasHintTrack@SubsessionIOState@@QBE_NXZ
?isHintTrack@SubsessionIOState@@QBE_NXZ
?movieTimeScale@QuickTimeFileSink@@ABEIXZ
?noteRecordedFrame@QuickTimeFileSink@@MAEXAAVMediaSubsession@@IABUtimeval@@@Z
?onRTCPBye@QuickTimeFileSink@@CAXPAX@Z
?onSourceClosure1@QuickTimeFileSink@@AAEXXZ
?onSourceClosure@QuickTimeFileSink@@CAXPAX@Z
?onSourceClosure@SubsessionIOState@@QAEXXZ
?rtpPayloadFormat@RTPSource@@QBEEXZ
?savedSDPLines@MediaSubsession@@QBEPBDXZ
?setFinalQTstate@SubsessionIOState@@QAEXXZ
?setHintTrack@SubsessionIOState@@SAXPAV1@0@Z
?setQTstate@SubsessionIOState@@QAE_NXZ
?setWord64@QuickTimeFileSink@@AAEX_J_K@Z
?setWord@QuickTimeFileSink@@AAEX_JI@Z
?startPlaying@QuickTimeFileSink@@QAE_NP6AXPAX@Z0@Z
?syncOK@SubsessionIOState@@QAE_NUtimeval@@@Z
?timestampFrequency@RTPSource@@QBEIXZ
?useFrame1@SubsessionIOState@@AAEIIUtimeval@@I_J@Z
?useFrame@SubsessionIOState@@AAEXAAVSubsessionBuffer@@@Z
?useFrameForHinting@SubsessionIOState@@AAEXIUtimeval@@I@Z
??0PresentationTimeSessionNormalizer@@QAE@AAVUsageEnvironment@@@Z
??0PresentationTimeSubsessionNormalizer@@AAE@AAVPresentationTimeSessionNormalizer@@PAVFramedSource@@PAVRTPSource@@PBDPAV0@@Z
??0ProxyRTSPClient@@QAE@AAVProxyServerMediaSession@@PBD11GHH@Z
??0ProxyServerMediaSession@@IAE@AAVUsageEnvironment@@PAVGenericMediaServer@@PBD222GHHPAVMediaTranscodingTable@@P6APAVProxyRTSPClient@@AAV0@222GHH@ZG_N@Z
??0ProxyServerMediaSubsession@@QAE@AAVMediaSubsession@@G_N@Z
??1PresentationTimeSessionNormalizer@@UAE@XZ
??1PresentationTimeSubsessionNormalizer@@EAE@XZ
??1ProxyRTSPClient@@UAE@XZ
??1ProxyServerMediaSession@@UAE@XZ
??1ProxyServerMediaSubsession@@UAE@XZ
??6@YAAAVUsageEnvironment@@AAV0@ABVProxyRTSPClient@@@Z
??6@YAAAVUsageEnvironment@@AAV0@ABVProxyServerMediaSession@@@Z
??6@YAAAVUsageEnvironment@@AAV0@ABVProxyServerMediaSubsession@@@Z
??_7PresentationTimeSessionNormalizer@@6B@
??_7PresentationTimeSubsessionNormalizer@@6B@
??_7ProxyRTSPClient@@6B@
??_7ProxyServerMediaSession@@6B@
??_7ProxyServerMediaSubsession@@6B@
??_C@_09EOOHJLHH@sprop?9vps?$AA@
??_C@_09GLIMMEKL@sprop?9pps?$AA@
??_C@_09HJDJGLEF@sprop?9sps?$AA@
??_GPresentationTimeSessionNormalizer@@UAEPAXI@Z
??_GPresentationTimeSubsessionNormalizer@@EAEPAXI@Z
??_GProxyRTSPClient@@UAEPAXI@Z
??_GProxyServerMediaSession@@UAEPAXI@Z
??_GProxyServerMediaSubsession@@UAEPAXI@Z
??_R0?AVPresentationTimeSessionNormalizer@@@8
??_R0?AVPresentationTimeSubsessionNormalizer@@@8
??_R0?AVProxyRTSPClient@@@8
??_R0?AVProxyServerMediaSession@@@8
??_R0?AVProxyServerMediaSubsession@@@8
??_R0?AVRTSPClient@@@8
??_R0?AVServerMediaSession@@@8
??_R1A@?0A@EA@PresentationTimeSessionNormalizer@@8
??_R1A@?0A@EA@PresentationTimeSubsessionNormalizer@@8
??_R1A@?0A@EA@ProxyRTSPClient@@8
??_R1A@?0A@EA@ProxyServerMediaSession@@8
??_R1A@?0A@EA@ProxyServerMediaSubsession@@8
??_R1A@?0A@EA@RTSPClient@@8
??_R1A@?0A@EA@ServerMediaSession@@8
??_R2PresentationTimeSessionNormalizer@@8
??_R2PresentationTimeSubsessionNormalizer@@8
??_R2ProxyRTSPClient@@8
??_R2ProxyServerMediaSession@@8
??_R2ProxyServerMediaSubsession@@8
??_R2RTSPClient@@8
??_R2ServerMediaSession@@8
??_R3PresentationTimeSessionNormalizer@@8
??_R3PresentationTimeSubsessionNormalizer@@8
??_R3ProxyRTSPClient@@8
??_R3ProxyServerMediaSession@@8
??_R3ProxyServerMediaSubsession@@8
??_R3RTSPClient@@8
??_R3ServerMediaSession@@8
??_R4PresentationTimeSessionNormalizer@@6B@
??_R4PresentationTimeSubsessionNormalizer@@6B@
??_R4ProxyRTSPClient@@6B@
??_R4ProxyServerMediaSession@@6B@
??_R4ProxyServerMediaSubsession@@6B@
?afterGettingFrame@PresentationTimeSubsessionNormalizer@@AAEXIIUtimeval@@I@Z
?afterGettingFrame@PresentationTimeSubsessionNormalizer@@CAXPAXIIUtimeval@@I@Z
?auth@ProxyRTSPClient@@AAEPAVAuthenticator@@XZ
?bandwidth@MediaSubsession@@QBEIXZ
?closeStreamSource@ProxyServerMediaSubsession@@EAEXPAVFramedSource@@@Z
?codecName@ProxyServerMediaSubsession@@QBEPBDXZ
?continueAfterDESCRIBE@ProxyRTSPClient@@QAEXPBD@Z
?continueAfterDESCRIBE@ProxyServerMediaSession@@AAEXPBD@Z
?continueAfterLivenessCommand@ProxyRTSPClient@@QAEXH_N@Z
?continueAfterPLAY@ProxyRTSPClient@@QAEXH@Z
?continueAfterSETUP@ProxyRTSPClient@@QAEXH@Z
?createGroupsock@ProxyServerMediaSession@@MAEPAVGroupsock@@ABUin_addr@@VPort@@@Z
?createGroupsock@ProxyServerMediaSubsession@@EAEPAVGroupsock@@ABUin_addr@@VPort@@@Z
?createNew@ProxyServerMediaSession@@SAPAV1@AAVUsageEnvironment@@PAVGenericMediaServer@@PBD222GHHPAVMediaTranscodingTable@@@Z
?createNewPresentationTimeSubsessionNormalizer@PresentationTimeSessionNormalizer@@QAEPAVPresentationTimeSubsessionNormalizer@@PAVFramedSource@@PAVRTPSource@@PBD@Z
?createNewRTPSink@ProxyServerMediaSubsession@@EAEPAVRTPSink@@PAVGroupsock@@EPAVFramedSource@@@Z
?createNewStreamSource@ProxyServerMediaSubsession@@EAEPAVFramedSource@@IAAI@Z
?createRTCP@ProxyServerMediaSession@@MAEPAVRTCPInstance@@PAVGroupsock@@IPBEPAVRTPSink@@@Z
?createRTCP@ProxyServerMediaSubsession@@EAEPAVRTCPInstance@@PAVGroupsock@@IPBEPAVRTPSink@@@Z
?defaultCreateNewProxyRTSPClientFunc@@YAPAVProxyRTSPClient@@AAVProxyServerMediaSession@@PBD11GHH@Z
?doGetNextFrame@PresentationTimeSubsessionNormalizer@@EAEXXZ
?enableRTCPReports@RTPSink@@QAEAA_NXZ
?fmtp_sproppps@MediaSubsession@@QBEPBDXZ
?fmtp_spropsps@MediaSubsession@@QBEPBDXZ
?fmtp_spropvps@MediaSubsession@@QBEPBDXZ
?handleSubsessionTimeout@ProxyRTSPClient@@AAEXXZ
?normalizePresentationTime@PresentationTimeSessionNormalizer@@AAEXPAVPresentationTimeSubsessionNormalizer@@AAUtimeval@@ABU3@@Z
?numSubsessions@ServerMediaSession@@QBEIXZ
?parentSession@MediaSubsession@@QAEAAVMediaSession@@XZ
?protocolName@MediaSubsession@@QBEPBDXZ
?receiveRawJPEGFrames@MediaSubsession@@QAEXXZ
?receiveRawMP3ADUs@MediaSubsession@@QAEXXZ
?removePresentationTimeSubsessionNormalizer@PresentationTimeSessionNormalizer@@AAEXPAVPresentationTimeSubsessionNormalizer@@@Z
?reset@ProxyRTSPClient@@AAEXXZ
?resetDESCRIBEState@ProxyServerMediaSession@@AAEXXZ
?scheduleDESCRIBECommand@ProxyRTSPClient@@AAEXXZ
?scheduleLivenessCommand@ProxyRTSPClient@@AAEXXZ
?sendDESCRIBE@ProxyRTSPClient@@CAXPAX@Z
?sendLivenessCommand@ProxyRTSPClient@@CAXPAX@Z
?sessionTimeoutParameter@RTSPClient@@QBEIXZ
?setMBitOnNextPacket@SimpleRTPSink@@QAEXXZ
?setRTPSink@PresentationTimeSubsessionNormalizer@@QAEXPAVRTPSink@@@Z
?subsessionByeHandler@ProxyServerMediaSubsession@@AAEXXZ
?subsessionByeHandler@ProxyServerMediaSubsession@@CAXPAX@Z
?subsessionTimeout@ProxyRTSPClient@@CAXPAX@Z
?taskScheduler@UsageEnvironment@@QBEAAVTaskScheduler@@XZ
?url@ProxyServerMediaSession@@QBEPBDXZ
?url@RTSPClient@@QBEPBDXZ
?verbosityLevel@ProxyServerMediaSubsession@@ABEHXZ
??0MPEG2TransportUDPServerMediaSubsession@@IAE@AAVUsageEnvironment@@PBDABVPort@@_N@Z
??1MPEG2TransportUDPServerMediaSubsession@@MAE@XZ
??_7MPEG2TransportUDPServerMediaSubsession@@6B@
??_GMPEG2TransportUDPServerMediaSubsession@@MAEPAXI@Z
??_R0?AVMPEG2TransportUDPServerMediaSubsession@@@8
??_R1A@?0A@EA@MPEG2TransportUDPServerMediaSubsession@@8
??_R2MPEG2TransportUDPServerMediaSubsession@@8
??_R3MPEG2TransportUDPServerMediaSubsession@@8
??_R4MPEG2TransportUDPServerMediaSubsession@@6B@
?createNew@MPEG2TransportUDPServerMediaSubsession@@SAPAV1@AAVUsageEnvironment@@PBDABVPort@@_N@Z
?createNewRTPSink@MPEG2TransportUDPServerMediaSubsession@@MAEPAVRTPSink@@PAVGroupsock@@EPAVFramedSource@@@Z
?createNewStreamSource@MPEG2TransportUDPServerMediaSubsession@@MAEPAVFramedSource@@IAAI@Z
??0AC3AudioFileServerMediaSubsession@@AAE@AAVUsageEnvironment@@PBD_N@Z
??1AC3AudioFileServerMediaSubsession@@EAE@XZ
??_7AC3AudioFileServerMediaSubsession@@6B@
??_GAC3AudioFileServerMediaSubsession@@EAEPAXI@Z
??_R0?AVAC3AudioFileServerMediaSubsession@@@8
??_R1A@?0A@EA@AC3AudioFileServerMediaSubsession@@8
??_R2AC3AudioFileServerMediaSubsession@@8
??_R3AC3AudioFileServerMediaSubsession@@8
??_R4AC3AudioFileServerMediaSubsession@@6B@
?createNew@AC3AudioFileServerMediaSubsession@@SAPAV1@AAVUsageEnvironment@@PBD_N@Z
?createNewRTPSink@AC3AudioFileServerMediaSubsession@@EAEPAVRTPSink@@PAVGroupsock@@EPAVFramedSource@@@Z
?createNewStreamSource@AC3AudioFileServerMediaSubsession@@EAEPAVFramedSource@@IAAI@Z
??0DVVideoFileServerMediaSubsession@@AAE@AAVUsageEnvironment@@PBD_N@Z
??1DVVideoFileServerMediaSubsession@@EAE@XZ
??_7DVVideoFileServerMediaSubsession@@6B@
??_GDVVideoFileServerMediaSubsession@@EAEPAXI@Z
??_R0?AVDVVideoFileServerMediaSubsession@@@8
??_R1A@?0A@EA@DVVideoFileServerMediaSubsession@@8
??_R2DVVideoFileServerMediaSubsession@@8
??_R3DVVideoFileServerMediaSubsession@@8
??_R4DVVideoFileServerMediaSubsession@@6B@
?createNew@DVVideoFileServerMediaSubsession@@SAPAV1@AAVUsageEnvironment@@PBD_N@Z
?createNewRTPSink@DVVideoFileServerMediaSubsession@@EAEPAVRTPSink@@PAVGroupsock@@EPAVFramedSource@@@Z
?createNewStreamSource@DVVideoFileServerMediaSubsession@@EAEPAVFramedSource@@IAAI@Z
?duration@DVVideoFileServerMediaSubsession@@EBEMXZ
?fileSize@ByteStreamFileSource@@QBE_KXZ
?getAuxSDPLine@DVVideoFileServerMediaSubsession@@EAEPBDPAVRTPSink@@PAVFramedSource@@@Z
?seekStreamSource@DVVideoFileServerMediaSubsession@@EAEXPAVFramedSource@@AANNAA_K@Z
?setStreamSourceDuration@DVVideoFileServerMediaSubsession@@EAEXPAVFramedSource@@NAA_K@Z
??0ADTSAudioFileServerMediaSubsession@@IAE@AAVUsageEnvironment@@PBD_N@Z
??1ADTSAudioFileServerMediaSubsession@@MAE@XZ
??_7ADTSAudioFileServerMediaSubsession@@6B@
??_GADTSAudioFileServerMediaSubsession@@MAEPAXI@Z
??_R0?AVADTSAudioFileServerMediaSubsession@@@8
??_R1A@?0A@EA@ADTSAudioFileServerMediaSubsession@@8
??_R2ADTSAudioFileServerMediaSubsession@@8
??_R3ADTSAudioFileServerMediaSubsession@@8
??_R4ADTSAudioFileServerMediaSubsession@@6B@
?configStr@ADTSAudioFileSource@@QBEPBDXZ
?createNew@ADTSAudioFileServerMediaSubsession@@SAPAV1@AAVUsageEnvironment@@PBD_N@Z
?createNewRTPSink@ADTSAudioFileServerMediaSubsession@@MAEPAVRTPSink@@PAVGroupsock@@EPAVFramedSource@@@Z
?createNewStreamSource@ADTSAudioFileServerMediaSubsession@@MAEPAVFramedSource@@IAAI@Z
?numChannels@ADTSAudioFileSource@@QBEIXZ
?samplingFrequency@ADTSAudioFileSource@@QBEIXZ
??0ClientTrickPlayState@@QAE@PAVMPEG2TransportStreamIndexFile@@@Z
??0MPEG2TransportFileServerMediaSubsession@@IAE@AAVUsageEnvironment@@PBDPAVMPEG2TransportStreamIndexFile@@_N@Z
??1MPEG2TransportFileServerMediaSubsession@@MAE@XZ
??_7MPEG2TransportFileServerMediaSubsession@@6B@
??_GMPEG2TransportFileServerMediaSubsession@@MAEPAXI@Z
??_R0?AVMPEG2TransportFileServerMediaSubsession@@@8
??_R1A@?0A@EA@MPEG2TransportFileServerMediaSubsession@@8
??_R2MPEG2TransportFileServerMediaSubsession@@8
??_R3MPEG2TransportFileServerMediaSubsession@@8
??_R4MPEG2TransportFileServerMediaSubsession@@6B@
?areChangingScale@ClientTrickPlayState@@QBE_NXZ
?changeInputSource@MPEG2TransportStreamFramer@@QAEXPAVFramedSource@@@Z
?createNew@MPEG2TransportFileServerMediaSubsession@@SAPAV1@AAVUsageEnvironment@@PBD1_N@Z
?createNewRTPSink@MPEG2TransportFileServerMediaSubsession@@EAEPAVRTPSink@@PAVGroupsock@@EPAVFramedSource@@@Z
?createNewStreamSource@MPEG2TransportFileServerMediaSubsession@@EAEPAVFramedSource@@IAAI@Z
?deleteStream@MPEG2TransportFileServerMediaSubsession@@EAEXIAAPAX@Z
?duration@MPEG2TransportFileServerMediaSubsession@@EBEMXZ
?forgetInputSource@MPEG2TransportStreamTrickModeFilter@@QAEXXZ
?lookupClient@MPEG2TransportFileServerMediaSubsession@@AAEPAVClientTrickPlayState@@I@Z
?newClientTrickPlayState@MPEG2TransportFileServerMediaSubsession@@MAEPAVClientTrickPlayState@@XZ
?nextIndexRecordNum@MPEG2TransportStreamTrickModeFilter@@QBEKXZ
?pauseStream@MPEG2TransportFileServerMediaSubsession@@EAEXIPAX@Z
?reseekOriginalTransportStreamSource@ClientTrickPlayState@@IAEXXZ
?seekStream@MPEG2TransportFileServerMediaSubsession@@EAEXIPAXAANNAA_K@Z
?setNextScale@ClientTrickPlayState@@QAEXM@Z
?setSource@ClientTrickPlayState@@QAEXPAVMPEG2TransportStreamFramer@@@Z
?setStreamScale@MPEG2TransportFileServerMediaSubsession@@EAEXIPAXM@Z
?startStream@MPEG2TransportFileServerMediaSubsession@@EAEXIPAXP6AX0@Z0AAGAAIP6AX0E@Z0@Z
?testScaleFactor@MPEG2TransportFileServerMediaSubsession@@EAEXAAM@Z
?tsPacketCount@MPEG2TransportStreamFramer@@QBE_KXZ
?updateStateFromNPT@ClientTrickPlayState@@QAEKNN@Z
?updateStateOnPlayChange@ClientTrickPlayState@@QAEX_N@Z
?updateStateOnScaleChange@ClientTrickPlayState@@QAEXXZ
?updateTSRecordNum@ClientTrickPlayState@@IAEXXZ
??0MPEG1or2DemuxedServerMediaSubsession@@AAE@AAVMPEG1or2FileServerDemux@@E_N1N@Z
??1MPEG1or2DemuxedServerMediaSubsession@@EAE@XZ
??_7MPEG1or2DemuxedServerMediaSubsession@@6B@
??_GMPEG1or2DemuxedServerMediaSubsession@@EAEPAXI@Z
??_R0?AVMPEG1or2DemuxedServerMediaSubsession@@@8
??_R1A@?0A@EA@MPEG1or2DemuxedServerMediaSubsession@@8
??_R2MPEG1or2DemuxedServerMediaSubsession@@8
??_R3MPEG1or2DemuxedServerMediaSubsession@@8
??_R4MPEG1or2DemuxedServerMediaSubsession@@6B@
?createNew@MPEG1or2DemuxedServerMediaSubsession@@SAPAV1@AAVMPEG1or2FileServerDemux@@E_N1N@Z
?createNewRTPSink@MPEG1or2DemuxedServerMediaSubsession@@EAEPAVRTPSink@@PAVGroupsock@@EPAVFramedSource@@@Z
?createNewStreamSource@MPEG1or2DemuxedServerMediaSubsession@@EAEPAVFramedSource@@IAAI@Z
?duration@MPEG1or2DemuxedServerMediaSubsession@@EBEMXZ
?fileDuration@MPEG1or2FileServerDemux@@QBEMXZ
?fileSize@MPEG1or2FileServerDemux@@QBEIXZ
?inputSource@MPEG1or2Demux@@QBEPAVFramedSource@@XZ
?seekStreamSource@MPEG1or2DemuxedServerMediaSubsession@@EAEXPAVFramedSource@@AANNAA_K@Z
?sourceDemux@MPEG1or2DemuxedElementaryStream@@QBEAAVMPEG1or2Demux@@XZ
??0MFSD_DummySink@@QAE@AAVMPEG1or2Demux@@_N@Z
??0MPEG1or2FileServerDemux@@AAE@AAVUsageEnvironment@@PBD_N@Z
??1MFSD_DummySink@@UAE@XZ
??1MPEG1or2FileServerDemux@@EAE@XZ
??_7MFSD_DummySink@@6B@
??_7MPEG1or2FileServerDemux@@6B@
??_GMFSD_DummySink@@UAEPAXI@Z
??_GMPEG1or2FileServerDemux@@EAEPAXI@Z
??_R0?AVMFSD_DummySink@@@8
??_R0?AVMPEG1or2FileServerDemux@@@8
??_R0?AVMediaSink@@@8
??_R1A@?0A@EA@MFSD_DummySink@@8
??_R1A@?0A@EA@MPEG1or2FileServerDemux@@8
??_R1A@?0A@EA@MediaSink@@8
??_R2MFSD_DummySink@@8
??_R2MPEG1or2FileServerDemux@@8
??_R2MediaSink@@8
??_R3MFSD_DummySink@@8
??_R3MPEG1or2FileServerDemux@@8
??_R3MediaSink@@8
??_R4MFSD_DummySink@@6B@
??_R4MPEG1or2FileServerDemux@@6B@
?afterGettingFrame1@MFSD_DummySink@@AAEXXZ
?afterGettingFrame@MFSD_DummySink@@CAXPAXIIUtimeval@@I@Z
?continuePlaying@MFSD_DummySink@@EAE_NXZ
?createNew@MPEG1or2FileServerDemux@@SAPAV1@AAVUsageEnvironment@@PBD_N@Z
?lastSeenSCR@MPEG1or2Demux@@QAEAAVSCR@1@XZ
?newAC3AudioServerMediaSubsession@MPEG1or2FileServerDemux@@QAEPAVServerMediaSubsession@@XZ
?newAudioServerMediaSubsession@MPEG1or2FileServerDemux@@QAEPAVServerMediaSubsession@@XZ
?newElementaryStream@MPEG1or2FileServerDemux@@AAEPAVMPEG1or2DemuxedElementaryStream@@IE@Z
?newVideoServerMediaSubsession@MPEG1or2FileServerDemux@@QAEPAVServerMediaSubsession@@_NN@Z
??0MPEG1or2VideoFileServerMediaSubsession@@AAE@AAVUsageEnvironment@@PBD_N2N@Z
??1MPEG1or2VideoFileServerMediaSubsession@@EAE@XZ
??_7MPEG1or2VideoFileServerMediaSubsession@@6B@
??_GMPEG1or2VideoFileServerMediaSubsession@@EAEPAXI@Z
??_R0?AVMPEG1or2VideoFileServerMediaSubsession@@@8
??_R1A@?0A@EA@MPEG1or2VideoFileServerMediaSubsession@@8
??_R2MPEG1or2VideoFileServerMediaSubsession@@8
??_R3MPEG1or2VideoFileServerMediaSubsession@@8
??_R4MPEG1or2VideoFileServerMediaSubsession@@6B@
?createNew@MPEG1or2VideoFileServerMediaSubsession@@SAPAV1@AAVUsageEnvironment@@PBD_N2N@Z
?createNewRTPSink@MPEG1or2VideoFileServerMediaSubsession@@EAEPAVRTPSink@@PAVGroupsock@@EPAVFramedSource@@@Z
?createNewStreamSource@MPEG1or2VideoFileServerMediaSubsession@@EAEPAVFramedSource@@IAAI@Z
??0MP3AudioFileServerMediaSubsession@@IAE@AAVUsageEnvironment@@PBD_N2PAVInterleaving@@@Z
??1MP3AudioFileServerMediaSubsession@@MAE@XZ
??_7MP3AudioFileServerMediaSubsession@@6B@
??_GMP3AudioFileServerMediaSubsession@@MAEPAXI@Z
??_R4MP3AudioFileServerMediaSubsession@@6B@
?createNew@MP3AudioFileServerMediaSubsession@@SAPAV1@AAVUsageEnvironment@@PBD_N2PAVInterleaving@@@Z
?createNewRTPSink@MP3AudioFileServerMediaSubsession@@MAEPAVRTPSink@@PAVGroupsock@@EPAVFramedSource@@@Z
?createNewStreamSource@MP3AudioFileServerMediaSubsession@@MAEPAVFramedSource@@IAAI@Z
?createNewStreamSourceCommon@MP3AudioFileServerMediaSubsession@@IAEPAVFramedSource@@PAV2@IAAI@Z
?duration@MP3AudioFileServerMediaSubsession@@MBEMXZ
?getBaseStreams@MP3AudioFileServerMediaSubsession@@IAEXPAVFramedSource@@AAPAV2@AAPAVADUFromMP3Source@@@Z
?seekStreamSource@MP3AudioFileServerMediaSubsession@@MAEXPAVFramedSource@@AANNAA_K@Z
?setStreamSourceScale@MP3AudioFileServerMediaSubsession@@MAEXPAVFramedSource@@M@Z
?testScaleFactor@MP3AudioFileServerMediaSubsession@@MAEXAAM@Z
??0AMRAudioFileServerMediaSubsession@@AAE@AAVUsageEnvironment@@PBD_N@Z
??1AMRAudioFileServerMediaSubsession@@EAE@XZ
??_7AMRAudioFileServerMediaSubsession@@6B@
??_GAMRAudioFileServerMediaSubsession@@EAEPAXI@Z
??_R0?AVAMRAudioFileServerMediaSubsession@@@8
??_R1A@?0A@EA@AMRAudioFileServerMediaSubsession@@8
??_R2AMRAudioFileServerMediaSubsession@@8
??_R3AMRAudioFileServerMediaSubsession@@8
??_R4AMRAudioFileServerMediaSubsession@@6B@
?createNew@AMRAudioFileServerMediaSubsession@@SAPAV1@AAVUsageEnvironment@@PBD_N@Z
?createNewRTPSink@AMRAudioFileServerMediaSubsession@@EAEPAVRTPSink@@PAVGroupsock@@EPAVFramedSource@@@Z
?createNewStreamSource@AMRAudioFileServerMediaSubsession@@EAEPAVFramedSource@@IAAI@Z
?isWideband@AMRAudioSource@@QBE_NXZ
?numChannels@AMRAudioSource@@QBEIXZ
??0WAVAudioFileServerMediaSubsession@@IAE@AAVUsageEnvironment@@PBD_N2@Z
??1WAVAudioFileServerMediaSubsession@@MAE@XZ
??_7WAVAudioFileServerMediaSubsession@@6B@
??_GWAVAudioFileServerMediaSubsession@@MAEPAXI@Z
??_R0?AVWAVAudioFileServerMediaSubsession@@@8
??_R1A@?0A@EA@WAVAudioFileServerMediaSubsession@@8
??_R2WAVAudioFileServerMediaSubsession@@8
??_R3WAVAudioFileServerMediaSubsession@@8
??_R4WAVAudioFileServerMediaSubsession@@6B@
?bitsPerSample@AudioInputDevice@@QBEEXZ
?createNew@WAVAudioFileServerMediaSubsession@@SAPAV1@AAVUsageEnvironment@@PBD_N2@Z
?createNewRTPSink@WAVAudioFileServerMediaSubsession@@MAEPAVRTPSink@@PAVGroupsock@@EPAVFramedSource@@@Z
?createNewStreamSource@WAVAudioFileServerMediaSubsession@@MAEPAVFramedSource@@IAAI@Z
?duration@WAVAudioFileServerMediaSubsession@@MBEMXZ
?numChannels@AudioInputDevice@@QBEEXZ
?samplingFrequency@AudioInputDevice@@QBEIXZ
?seekStreamSource@WAVAudioFileServerMediaSubsession@@MAEXPAVFramedSource@@AANNAA_K@Z
?setStreamSourceDuration@WAVAudioFileServerMediaSubsession@@MAEXPAVFramedSource@@NAA_K@Z
?setStreamSourceScale@WAVAudioFileServerMediaSubsession@@MAEXPAVFramedSource@@M@Z
?testScaleFactor@WAVAudioFileServerMediaSubsession@@MAEXAAM@Z
??0H263plusVideoFileServerMediaSubsession@@AAE@AAVUsageEnvironment@@PBD_N@Z
??1H263plusVideoFileServerMediaSubsession@@EAE@XZ
??_7H263plusVideoFileServerMediaSubsession@@6B@
??_GH263plusVideoFileServerMediaSubsession@@EAEPAXI@Z
??_R0?AVH263plusVideoFileServerMediaSubsession@@@8
??_R1A@?0A@EA@H263plusVideoFileServerMediaSubsession@@8
??_R2H263plusVideoFileServerMediaSubsession@@8
??_R3H263plusVideoFileServerMediaSubsession@@8
??_R4H263plusVideoFileServerMediaSubsession@@6B@
?createNew@H263plusVideoFileServerMediaSubsession@@SAPAV1@AAVUsageEnvironment@@PBD_N@Z
?createNewRTPSink@H263plusVideoFileServerMediaSubsession@@EAEPAVRTPSink@@PAVGroupsock@@EPAVFramedSource@@@Z
?createNewStreamSource@H263plusVideoFileServerMediaSubsession@@EAEPAVFramedSource@@IAAI@Z
??0H265VideoFileServerMediaSubsession@@IAE@AAVUsageEnvironment@@PBD_N@Z
??1H265VideoFileServerMediaSubsession@@MAE@XZ
??_7H265VideoFileServerMediaSubsession@@6B@
??_GH265VideoFileServerMediaSubsession@@MAEPAXI@Z
??_R0?AVH265VideoFileServerMediaSubsession@@@8
??_R1A@?0A@EA@H265VideoFileServerMediaSubsession@@8
??_R2H265VideoFileServerMediaSubsession@@8
??_R3H265VideoFileServerMediaSubsession@@8
??_R4H265VideoFileServerMediaSubsession@@6B@
?afterPlayingDummy1@H265VideoFileServerMediaSubsession@@QAEXXZ
?checkForAuxSDPLine1@H265VideoFileServerMediaSubsession@@QAEXXZ
?createNew@H265VideoFileServerMediaSubsession@@SAPAV1@AAVUsageEnvironment@@PBD_N@Z
?createNewRTPSink@H265VideoFileServerMediaSubsession@@MAEPAVRTPSink@@PAVGroupsock@@EPAVFramedSource@@@Z
?createNewStreamSource@H265VideoFileServerMediaSubsession@@MAEPAVFramedSource@@IAAI@Z
?getAuxSDPLine@H265VideoFileServerMediaSubsession@@MAEPBDPAVRTPSink@@PAVFramedSource@@@Z
?nextTask@Medium@@IAEAAPAXXZ
?setDoneFlag@H265VideoFileServerMediaSubsession@@IAEXXZ
??0H264VideoFileServerMediaSubsession@@IAE@AAVUsageEnvironment@@PBD_N@Z
??1H264VideoFileServerMediaSubsession@@MAE@XZ
??_7H264VideoFileServerMediaSubsession@@6B@
??_GH264VideoFileServerMediaSubsession@@MAEPAXI@Z
??_R0?AVH264VideoFileServerMediaSubsession@@@8
??_R1A@?0A@EA@H264VideoFileServerMediaSubsession@@8
??_R2H264VideoFileServerMediaSubsession@@8
??_R3H264VideoFileServerMediaSubsession@@8
??_R4H264VideoFileServerMediaSubsession@@6B@
?afterPlayingDummy1@H264VideoFileServerMediaSubsession@@QAEXXZ
?checkForAuxSDPLine1@H264VideoFileServerMediaSubsession@@QAEXXZ
?createNew@H264VideoFileServerMediaSubsession@@SAPAV1@AAVUsageEnvironment@@PBD_N@Z
?createNewRTPSink@H264VideoFileServerMediaSubsession@@MAEPAVRTPSink@@PAVGroupsock@@EPAVFramedSource@@@Z
?createNewStreamSource@H264VideoFileServerMediaSubsession@@MAEPAVFramedSource@@IAAI@Z
?getAuxSDPLine@H264VideoFileServerMediaSubsession@@MAEPBDPAVRTPSink@@PAVFramedSource@@@Z
?setDoneFlag@H264VideoFileServerMediaSubsession@@IAEXXZ
??0MPEG4VideoFileServerMediaSubsession@@IAE@AAVUsageEnvironment@@PBD_N@Z
??1MPEG4VideoFileServerMediaSubsession@@MAE@XZ
??_7MPEG4VideoFileServerMediaSubsession@@6B@
??_GMPEG4VideoFileServerMediaSubsession@@MAEPAXI@Z
??_R0?AVMPEG4VideoFileServerMediaSubsession@@@8
??_R1A@?0A@EA@MPEG4VideoFileServerMediaSubsession@@8
??_R2MPEG4VideoFileServerMediaSubsession@@8
??_R3MPEG4VideoFileServerMediaSubsession@@8
??_R4MPEG4VideoFileServerMediaSubsession@@6B@
?afterPlayingDummy1@MPEG4VideoFileServerMediaSubsession@@QAEXXZ
?checkForAuxSDPLine1@MPEG4VideoFileServerMediaSubsession@@QAEXXZ
?createNew@MPEG4VideoFileServerMediaSubsession@@SAPAV1@AAVUsageEnvironment@@PBD_N@Z
?createNewRTPSink@MPEG4VideoFileServerMediaSubsession@@MAEPAVRTPSink@@PAVGroupsock@@EPAVFramedSource@@@Z
?createNewStreamSource@MPEG4VideoFileServerMediaSubsession@@MAEPAVFramedSource@@IAAI@Z
?getAuxSDPLine@MPEG4VideoFileServerMediaSubsession@@MAEPBDPAVRTPSink@@PAVFramedSource@@@Z
?setDoneFlag@MPEG4VideoFileServerMediaSubsession@@IAEXXZ
??0FileServerMediaSubsession@@IAE@AAVUsageEnvironment@@PBD_N@Z
??1FileServerMediaSubsession@@MAE@XZ
??_7FileServerMediaSubsession@@6B@
??_GFileServerMediaSubsession@@MAEPAXI@Z
??_R4FileServerMediaSubsession@@6B@
??0Destinations@@QAE@ABUin_addr@@ABVPort@@1@Z
??0Destinations@@QAE@HEE@Z
??0OnDemandServerMediaSubsession@@IAE@AAVUsageEnvironment@@_NG1@Z
??0StreamState@@QAE@AAVOnDemandServerMediaSubsession@@ABVPort@@1PAVRTPSink@@PAVBasicUDPSink@@IPAVFramedSource@@PAVGroupsock@@5@Z
??1OnDemandServerMediaSubsession@@MAE@XZ
??1StreamState@@UAE@XZ
??_7OnDemandServerMediaSubsession@@6B@
??_7StreamState@@6B@
??_GOnDemandServerMediaSubsession@@MAEPAXI@Z
??_GStreamState@@UAEPAXI@Z
??_R0?AVStreamState@@@8
??_R1A@?0A@EA@StreamState@@8
??_R2StreamState@@8
??_R3StreamState@@8
??_R4OnDemandServerMediaSubsession@@6B@
??_R4StreamState@@6B@
?addStreamSocket@RTPSink@@QAEXHE@Z
?closeStreamSource@OnDemandServerMediaSubsession@@MAEXPAVFramedSource@@@Z
?createGroupsock@OnDemandServerMediaSubsession@@MAEPAVGroupsock@@ABUin_addr@@VPort@@@Z
?createRTCP@OnDemandServerMediaSubsession@@MAEPAVRTCPInstance@@PAVGroupsock@@IPBEPAVRTPSink@@@Z
?currentSeqNo@RTPSink@@QBEGXZ
?deleteStream@OnDemandServerMediaSubsession@@MAEXIAAPAX@Z
?endPlaying@StreamState@@QAEXPAVDestinations@@I@Z
?estimatedBitrate@RTPSink@@QAEAAIXZ
?getAuxSDPLine@OnDemandServerMediaSubsession@@MAEPBDPAVRTPSink@@PAVFramedSource@@@Z
?getCurrentNPT@OnDemandServerMediaSubsession@@MAEMPAX@Z
?getRTPSinkandRTCP@OnDemandServerMediaSubsession@@MAEXPAXAAPBVRTPSink@@AAPBVRTCPInstance@@@Z
?getStreamParameters@OnDemandServerMediaSubsession@@MAEXIIABVPort@@0HEEAAIAAEAA_NAAV2@4AAPAX@Z
?getStreamSource@OnDemandServerMediaSubsession@@MAEPAVFramedSource@@PAX@Z
?initialPresentationTime@RTPSink@@QBEABUtimeval@@XZ
?mediaSource@StreamState@@QBEPAVFramedSource@@XZ
?mostRecentPresentationTime@RTPSink@@QBEABUtimeval@@XZ
?nullSeekStream@OnDemandServerMediaSubsession@@MAEXIPAXNAA_K@Z
?num@Port@@QBEGXZ
?pause@StreamState@@QAEXXZ
?pauseStream@OnDemandServerMediaSubsession@@MAEXIPAX@Z
?reclaim@StreamState@@QAEXXZ
?referenceCount@StreamState@@QAEAAIXZ
?removeStreamSocket@RTCPInstance@@QAEXHE@Z
?removeStreamSocket@RTPSink@@QAEXHE@Z
?rtcpInstance@StreamState@@QBEPAVRTCPInstance@@XZ
?rtpPayloadType@RTPSink@@QBEEXZ
?rtpSink@StreamState@@QBEPAVRTPSink@@XZ
?sdpLines@OnDemandServerMediaSubsession@@MAEPBDXZ
?seekStream@OnDemandServerMediaSubsession@@MAEXIPAXAANNAA_K@Z
?seekStream@OnDemandServerMediaSubsession@@MAEXIPAXAAPAD1@Z
?seekStreamSource@OnDemandServerMediaSubsession@@MAEXPAVFramedSource@@AANNAA_K@Z
?seekStreamSource@OnDemandServerMediaSubsession@@MAEXPAVFramedSource@@AAPAD1@Z
?sendRTCPAppPacket@OnDemandServerMediaSubsession@@QAEXEPBDPAEI@Z
?sendRTCPAppPacket@StreamState@@QAEXEPBDPAEI@Z
?serverRTCPPort@StreamState@@QBEABVPort@@XZ
?serverRTPPort@StreamState@@QBEABVPort@@XZ
?setRTCPAppPacketHandler@OnDemandServerMediaSubsession@@QAEXP6AXPAXEIPAEI@Z0@Z
?setSDPLinesFromRTPSink@OnDemandServerMediaSubsession@@AAEXPAVRTPSink@@PAVFramedSource@@I@Z
?setStreamScale@OnDemandServerMediaSubsession@@MAEXIPAXM@Z
?setStreamSourceDuration@OnDemandServerMediaSubsession@@MAEXPAVFramedSource@@NAA_K@Z
?setStreamSourceScale@OnDemandServerMediaSubsession@@MAEXPAVFramedSource@@M@Z
?socketNum@Socket@@QBEHXZ
?startNPT@StreamState@@QAEAAMXZ
?startPlaying@StreamState@@QAEXPAVDestinations@@IP6AXPAX@Z1P6AX1E@Z1@Z
?startStream@OnDemandServerMediaSubsession@@MAEXIPAXP6AX0@Z0AAGAAIP6AX0E@Z0@Z
?streamDuration@StreamState@@QBEMXZ
?trackNumber@ServerMediaSubsession@@QBEIXZ
?val@AddressString@@QBEPBDXZ
??0PassiveServerMediaSubsession@@IAE@AAVRTPSink@@PAVRTCPInstance@@@Z
??0RTCPSourceRecord@@QAE@IABVPort@@@Z
??1PassiveServerMediaSubsession@@MAE@XZ
??_7PassiveServerMediaSubsession@@6B@
??_GPassiveServerMediaSubsession@@MAEPAXI@Z
??_R0?AVPassiveServerMediaSubsession@@@8
??_R1A@?0A@EA@PassiveServerMediaSubsession@@8
??_R2PassiveServerMediaSubsession@@8
??_R3PassiveServerMediaSubsession@@8
??_R4PassiveServerMediaSubsession@@6B@
?RTCPgs@RTCPInstance@@QBEPAVGroupsock@@XZ
?createNew@PassiveServerMediaSubsession@@SAPAV1@AAVRTPSink@@PAVRTCPInstance@@@Z
?creationTime@RTPSink@@QBEABUtimeval@@XZ
?deleteStream@PassiveServerMediaSubsession@@MAEXIAAPAX@Z
?getCurrentNPT@PassiveServerMediaSubsession@@MAEMPAX@Z
?getRTPSinkandRTCP@PassiveServerMediaSubsession@@MAEXPAXAAPBVRTPSink@@AAPBVRTCPInstance@@@Z
?getStreamParameters@PassiveServerMediaSubsession@@MAEXIIABVPort@@0HEEAAIAAEAA_NAAV2@4AAPAX@Z
?groupAddress@GroupEId@@QBEABUin_addr@@XZ
?groupAddress@Groupsock@@QBEABUin_addr@@XZ
?groupsockBeingUsed@RTPSink@@QAEAAVGroupsock@@XZ
?gs@RTPInterface@@QBEPAVGroupsock@@XZ
?port@Socket@@QBE?AVPort@@XZ
?rtcpIsMuxed@PassiveServerMediaSubsession@@MAE_NXZ
?sdpLines@PassiveServerMediaSubsession@@MAEPBDXZ
?startStream@PassiveServerMediaSubsession@@MAEXIPAXP6AX0@Z0AAGAAIP6AX0E@Z0@Z
?totSessionBW@RTCPInstance@@QBEIXZ
?ttl@GroupEId@@QBEEXZ
?ttl@Groupsock@@QBEEXZ
??0ServerMediaSession@@IAE@AAVUsageEnvironment@@PBD11_N1@Z
??0ServerMediaSubsession@@IAE@AAVUsageEnvironment@@@Z
??0ServerMediaSubsessionIterator@@QAE@AAVServerMediaSession@@@Z
??1ServerMediaSession@@MAE@XZ
??1ServerMediaSubsession@@MAE@XZ
??1ServerMediaSubsessionIterator@@UAE@XZ
??_7ServerMediaSession@@6B@
??_7ServerMediaSubsession@@6B@
??_7ServerMediaSubsessionIterator@@6B@
??_GServerMediaSession@@MAEPAXI@Z
??_GServerMediaSubsession@@MAEPAXI@Z
??_GServerMediaSubsessionIterator@@UAEPAXI@Z
??_R0?AVServerMediaSubsessionIterator@@@8
??_R1A@?0A@EA@ServerMediaSubsessionIterator@@8
??_R2ServerMediaSubsessionIterator@@8
??_R3ServerMediaSubsessionIterator@@8
??_R4ServerMediaSession@@6B@
??_R4ServerMediaSubsession@@6B@
??_R4ServerMediaSubsessionIterator@@6B@
?addSubsession@ServerMediaSession@@QAE_NPAVServerMediaSubsession@@@Z
?createNew@ServerMediaSession@@SAPAV1@AAVUsageEnvironment@@PBD11_N1@Z
?deleteAllSubsessions@ServerMediaSession@@QAEXXZ
?deleteStream@ServerMediaSubsession@@UAEXIAAPAX@Z
?duration@ServerMediaSession@@QBEMXZ
?duration@ServerMediaSubsession@@UBEMXZ
?generateSDPDescription@ServerMediaSession@@QAEPADXZ
?getAbsoluteTimeRange@ServerMediaSubsession@@UBEXAAPAD0@Z
?getCurrentNPT@ServerMediaSubsession@@UAEMPAX@Z
?getStreamSource@ServerMediaSubsession@@UAEPAVFramedSource@@PAX@Z
?isServerMediaSession@ServerMediaSession@@EBE_NXZ
?lookupByName@ServerMediaSession@@SA_NAAVUsageEnvironment@@PBDAAPAV1@@Z
?next@ServerMediaSubsessionIterator@@QAEPAVServerMediaSubsession@@XZ
?nullSeekStream@ServerMediaSubsession@@UAEXIPAXNAA_K@Z
?pauseStream@ServerMediaSubsession@@UAEXIPAX@Z
?rangeSDPLine@ServerMediaSubsession@@IBEPBDXZ
?reset@ServerMediaSubsessionIterator@@QAEXXZ
?seekStream@ServerMediaSubsession@@UAEXIPAXAANNAA_K@Z
?seekStream@ServerMediaSubsession@@UAEXIPAXAAPAD1@Z
?setServerAddressAndPortForSDP@ServerMediaSubsession@@QAEXIG@Z
?setStreamScale@ServerMediaSubsession@@UAEXIPAXM@Z
?testScaleFactor@ServerMediaSession@@QAEXAAM@Z
?testScaleFactor@ServerMediaSubsession@@UAEXAAM@Z
?trackId@ServerMediaSubsession@@QAEPBDXZ
??0MediaSession@@IAE@AAVUsageEnvironment@@@Z
??0MediaSubsession@@IAE@AAVMediaSession@@@Z
??0MediaSubsessionIterator@@QAE@ABVMediaSession@@@Z
??0SDPAttribute@@QAE@PBD_N@Z
??1MediaSession@@MAE@XZ
??1MediaSubsession@@MAE@XZ
??1MediaSubsessionIterator@@UAE@XZ
??1SDPAttribute@@UAE@XZ
??_7MediaSession@@6B@
??_7MediaSubsession@@6B@
??_7MediaSubsessionIterator@@6B@
??_7SDPAttribute@@6B@
??_GMediaSession@@MAEPAXI@Z
??_GMediaSubsession@@MAEPAXI@Z
??_GMediaSubsessionIterator@@UAEPAXI@Z
??_GSDPAttribute@@UAEPAXI@Z
??_R0?AVMediaSession@@@8
??_R0?AVMediaSubsession@@@8
??_R0?AVMediaSubsessionIterator@@@8
??_R0?AVSDPAttribute@@@8
??_R1A@?0A@EA@MediaSession@@8
??_R1A@?0A@EA@MediaSubsession@@8
??_R1A@?0A@EA@MediaSubsessionIterator@@8
??_R1A@?0A@EA@SDPAttribute@@8
??_R2MediaSession@@8
??_R2MediaSubsession@@8
??_R2MediaSubsessionIterator@@8
??_R2SDPAttribute@@8
??_R3MediaSession@@8
??_R3MediaSubsession@@8
??_R3MediaSubsessionIterator@@8
??_R3SDPAttribute@@8
??_R4MediaSession@@6B@
??_R4MediaSubsession@@6B@
??_R4MediaSubsessionIterator@@6B@
??_R4SDPAttribute@@6B@
?CNAME@MediaSession@@QBEPBDXZ
?_absEndTime@MediaSession@@QAEAAPADXZ
?_absEndTime@MediaSubsession@@QAEAAPADXZ
?_absStartTime@MediaSession@@QAEAAPADXZ
?_absStartTime@MediaSubsession@@QAEAAPADXZ
?absEndTime@MediaSession@@QBEPADXZ
?absEndTime@MediaSubsession@@QBEPADXZ
?absStartTime@MediaSession@@QBEPADXZ
?absStartTime@MediaSubsession@@QBEPADXZ
?addFilter@MediaSubsession@@QAEXPAVFramedFilter@@@Z
?attrVal_bool@MediaSubsession@@QBE_NPBD@Z
?attrVal_int@MediaSubsession@@QBEIPBD@Z
?attrVal_str@MediaSubsession@@QBEPBDPBD@Z
?attrVal_strToLower@MediaSubsession@@QBEPBDPBD@Z
?connectionEndpointAddress@MediaSubsession@@QBEIXZ
?connectionEndpointName@MediaSession@@QBEPADXZ
?connectionEndpointName@MediaSubsession@@QBEPBDXZ
?createNew@MediaSession@@SAPAV1@AAVUsageEnvironment@@PBD@Z
?createNewMediaSubsession@MediaSession@@MAEPAVMediaSubsession@@XZ
?createSourceObjects@MediaSubsession@@MAE_NH@Z
?curPacketRTPTimestamp@RTPSource@@ABEIXZ
?data@NetAddress@@QBEPBEXZ
?deInitiate@MediaSubsession@@QAEXXZ
?env@MediaSubsession@@IAEAAVUsageEnvironment@@XZ
?fmtp_config@MediaSubsession@@QBEPBDXZ
?getNormalPlayTime@MediaSubsession@@QAENABUtimeval@@@Z
?guessRTPTimestampFrequency@MediaSession@@KAIPBD0@Z
?initializeWithSDP@MediaSession@@IAE_NPBD@Z
?initiate@MediaSubsession@@QAE_NH@Z
?initiateByMediaType@MediaSession@@QAE_NPBDAAPAVMediaSubsession@@H@Z
?intValue@SDPAttribute@@QBEHXZ
?isMediaSession@MediaSession@@MBE_NXZ
?isSSM@MediaSubsession@@QBE_NXZ
?lookupByName@MediaSession@@SA_NAAVUsageEnvironment@@PBDAAPAV1@@Z
?lookupPayloadFormat@MediaSession@@KAPADEAAI0@Z
?next@MediaSubsessionIterator@@QAEPAVMediaSubsession@@XZ
?numAddresses@NetAddressList@@QBEIXZ
?parentSession@MediaSubsession@@QBEABVMediaSession@@XZ
?parseSDPAttribute_control@MediaSession@@IAE_NPBD@Z
?parseSDPAttribute_control@MediaSubsession@@IAE_NPBD@Z
?parseSDPAttribute_fmtp@MediaSubsession@@IAE_NPBD@Z
?parseSDPAttribute_framerate@MediaSubsession@@IAE_NPBD@Z
?parseSDPAttribute_range@MediaSession@@IAE_NPBD@Z
?parseSDPAttribute_range@MediaSubsession@@IAE_NPBD@Z
?parseSDPAttribute_rtcpmux@MediaSubsession@@IAE_NPBD@Z
?parseSDPAttribute_rtpmap@MediaSubsession@@IAE_NPBD@Z
?parseSDPAttribute_source_filter@MediaSession@@IAE_NPBD@Z
?parseSDPAttribute_source_filter@MediaSubsession@@IAE_NPBD@Z
?parseSDPAttribute_type@MediaSession@@IAE_NPBD@Z
?parseSDPAttribute_x_dimensions@MediaSubsession@@IAE_NPBD@Z
?parseSDPLine@MediaSession@@IAE_NPBDAAPBD@Z
?parseSDPLine_b@MediaSubsession@@IAE_NPBD@Z
?parseSDPLine_c@MediaSession@@IAE_NPBD@Z
?parseSDPLine_c@MediaSubsession@@IAE_NPBD@Z
?parseSDPLine_i@MediaSession@@IAE_NPBD@Z
?parseSDPLine_s@MediaSession@@IAE_NPBD@Z
?playEndTime@MediaSession@@QAEAANXZ
?playEndTime@MediaSubsession@@QBENXZ
?playStartTime@MediaSession@@QAEAANXZ
?playStartTime@MediaSubsession@@QBENXZ
?reset@MediaSubsessionIterator@@QAEXXZ
?scale@MediaSubsession@@QAEAAMXZ
?setAttribute@MediaSubsession@@IAEXPBD0_N@Z
?setClientPortNum@MediaSubsession@@QAE_NG@Z
?setDestinations@MediaSubsession@@QAEXI@Z
?setNext@MediaSubsession@@IAEXPAV1@@Z
?setSessionId@MediaSubsession@@QAEXPBD@Z
?sourceFilterAddr@MediaSession@@QBEABUin_addr@@XZ
?strValue@SDPAttribute@@QBEPBDXZ
?strValueToLower@SDPAttribute@@QBEPBDXZ
?valueIsHexadecimal@SDPAttribute@@QBE_NXZ
??0SIPClient@@AAE@AAVUsageEnvironment@@EPBDH1@Z
??1SIPClient@@MAE@XZ
??_7SIPClient@@6B@
??_GSIPClient@@MAEPAXI@Z
??_R0?AVSIPClient@@@8
??_R1A@?0A@EA@SIPClient@@8
??_R2SIPClient@@8
??_R3SIPClient@@8
??_R4SIPClient@@6B@
?createAuthenticatorString@SIPClient@@AAEPADPBVAuthenticator@@PBD1@Z
?createNew@SIPClient@@SAPAV1@AAVUsageEnvironment@@EPBDH1@Z
?disableBackgroundHandling@TaskScheduler@@QAEXH@Z
?doInviteStateMachine@SIPClient@@AAEXI@Z
?doInviteStateTerminated@SIPClient@@AAEXI@Z
?getResponse@SIPClient@@AAEIAAPADI@Z
?getResponseCode@SIPClient@@AAEIXZ
?invite1@SIPClient@@AAEPADPAVAuthenticator@@@Z
?invite@SIPClient@@QAEPADPBDPAVAuthenticator@@@Z
?inviteResponseHandler@SIPClient@@CAXPAXH@Z
?inviteWithPassword@SIPClient@@QAEPADPBD00@Z
?parseResponseCode@SIPClient@@AAE_NPBDAAI@Z
?parseSIPURL@SIPClient@@SA_NAAVUsageEnvironment@@PBDAAVNetAddress@@AAG@Z
?parseSIPURLUsernamePassword@SIPClient@@SA_NPBDAAPAD1@Z
?processURL@SIPClient@@AAE_NPBD@Z
?reset@SIPClient@@AAEXXZ
?sendACK@SIPClient@@QAE_NXZ
?sendBYE@SIPClient@@QAE_NXZ
?sendINVITE@SIPClient@@AAE_NXZ
?sendRequest@SIPClient@@AAE_NPBDI@Z
?setProxyServer@SIPClient@@QAEXIG@Z
?setUserAgentString@SIPClient@@QAEXPBD@Z
?timerAHandler@SIPClient@@CAXPAX@Z
?timerBHandler@SIPClient@@CAXPAX@Z
?timerDHandler@SIPClient@@CAXPAX@Z
?turnOffBackgroundReadHandling@TaskScheduler@@QAEXH@Z
?turnOnBackgroundReadHandling@TaskScheduler@@QAEXHP6AXPAXH@Z0@Z
??0RTSPRegisterSender@@IAE@AAVUsageEnvironment@@PBDG1P6AXPAVRTSPClient@@HPAD@ZPAVAuthenticator@@_N16H1@Z
??0RequestRecord_REGISTER@RTSPRegisterSender@@QAE@IP6AXPAVRTSPClient@@HPAD@ZPBD_N43@Z
??1RTSPRegisterSender@@MAE@XZ
??1RequestRecord_REGISTER@RTSPRegisterSender@@UAE@XZ
??_7RTSPRegisterSender@@6B@
??_7RequestRecord_REGISTER@RTSPRegisterSender@@6B@
??_GRTSPRegisterSender@@MAEPAXI@Z
??_GRequestRecord_REGISTER@RTSPRegisterSender@@UAEPAXI@Z
??_R0?AVRTSPRegisterSender@@@8
??_R0?AVRequestRecord@RTSPClient@@@8
??_R0?AVRequestRecord_REGISTER@RTSPRegisterSender@@@8
??_R1A@?0A@EA@RTSPRegisterSender@@8
??_R1A@?0A@EA@RequestRecord@RTSPClient@@8
??_R1A@?0A@EA@RequestRecord_REGISTER@RTSPRegisterSender@@8
??_R2RTSPRegisterSender@@8
??_R2RequestRecord@RTSPClient@@8
??_R2RequestRecord_REGISTER@RTSPRegisterSender@@8
??_R3RTSPRegisterSender@@8
??_R3RequestRecord@RTSPClient@@8
??_R3RequestRecord_REGISTER@RTSPRegisterSender@@8
??_R4RTSPRegisterSender@@6B@
??_R4RequestRecord_REGISTER@RTSPRegisterSender@@6B@
?commandName@RequestRecord@RTSPClient@@QBEPBDXZ
?createNew@RTSPRegisterSender@@SAPAV1@AAVUsageEnvironment@@PBDG1P6AXPAVRTSPClient@@HPAD@ZPAVAuthenticator@@_N16H1@Z
?grabConnection@RTSPRegisterSender@@QAEXAAHAAUsockaddr_in@@@Z
;?proxyURLSuffix@RequestRecord_REGISTER@RTSPRegisterSender@@QBEPBDXZ
?requestStreamingViaTCP@RequestRecord_REGISTER@RTSPRegisterSender@@QBE_NXZ
?reuseConnection@RequestRecord_REGISTER@RTSPRegisterSender@@QBE_NXZ
?rtspURLToRegister@RequestRecord_REGISTER@RTSPRegisterSender@@QBEPBDXZ
?setRequestFields@RTSPRegisterSender@@MAE_NPAVRequestRecord@RTSPClient@@AAPADAA_NAAPBD12@Z
??0RTSPClientConnectionSupportingHTTPStreaming@RTSPServerSupportingHTTPStreaming@@QAE@AAVRTSPServer@@HUsockaddr_in@@@Z
??0RTSPServerSupportingHTTPStreaming@@IAE@AAVUsageEnvironment@@HVPort@@PAVUserAuthenticationDatabase@@I@Z
??1RTSPClientConnectionSupportingHTTPStreaming@RTSPServerSupportingHTTPStreaming@@UAE@XZ
??1RTSPServerSupportingHTTPStreaming@@MAE@XZ
??_7RTSPClientConnectionSupportingHTTPStreaming@RTSPServerSupportingHTTPStreaming@@6B@
??_7RTSPServerSupportingHTTPStreaming@@6B@
??_GRTSPClientConnectionSupportingHTTPStreaming@RTSPServerSupportingHTTPStreaming@@UAEPAXI@Z
??_GRTSPServerSupportingHTTPStreaming@@MAEPAXI@Z
??_R0?AVClientConnection@GenericMediaServer@@@8
??_R0?AVGenericMediaServer@@@8
??_R0?AVRTSPClientConnection@RTSPServer@@@8
??_R0?AVRTSPClientConnectionSupportingHTTPStreaming@RTSPServerSupportingHTTPStreaming@@@8
??_R0?AVRTSPServer@@@8
??_R0?AVRTSPServerSupportingHTTPStreaming@@@8
??_R1A@?0A@EA@ClientConnection@GenericMediaServer@@8
??_R1A@?0A@EA@GenericMediaServer@@8
??_R1A@?0A@EA@RTSPClientConnection@RTSPServer@@8
??_R1A@?0A@EA@RTSPClientConnectionSupportingHTTPStreaming@RTSPServerSupportingHTTPStreaming@@8
??_R1A@?0A@EA@RTSPServer@@8
??_R1A@?0A@EA@RTSPServerSupportingHTTPStreaming@@8
??_R2ClientConnection@GenericMediaServer@@8
??_R2GenericMediaServer@@8
??_R2RTSPClientConnection@RTSPServer@@8
??_R2RTSPClientConnectionSupportingHTTPStreaming@RTSPServerSupportingHTTPStreaming@@8
??_R2RTSPServer@@8
??_R2RTSPServerSupportingHTTPStreaming@@8
??_R3ClientConnection@GenericMediaServer@@8
??_R3GenericMediaServer@@8
??_R3RTSPClientConnection@RTSPServer@@8
??_R3RTSPClientConnectionSupportingHTTPStreaming@RTSPServerSupportingHTTPStreaming@@8
??_R3RTSPServer@@8
??_R3RTSPServerSupportingHTTPStreaming@@8
??_R4RTSPClientConnectionSupportingHTTPStreaming@RTSPServerSupportingHTTPStreaming@@6B@
??_R4RTSPServerSupportingHTTPStreaming@@6B@
?afterStreaming@RTSPClientConnectionSupportingHTTPStreaming@RTSPServerSupportingHTTPStreaming@@KAXPAX@Z
?createNew@RTSPServerSupportingHTTPStreaming@@SAPAV1@AAVUsageEnvironment@@VPort@@PAVUserAuthenticationDatabase@@I@Z
?createNewClientConnection@RTSPServerSupportingHTTPStreaming@@MAEPAVClientConnection@GenericMediaServer@@HUsockaddr_in@@@Z
?envir@ClientConnection@GenericMediaServer@@IAEAAVUsageEnvironment@@XZ
?handleHTTPCmd_StreamingGET@RTSPClientConnectionSupportingHTTPStreaming@RTSPServerSupportingHTTPStreaming@@MAEXPBD0@Z
?RTSPOptionIsSupported@@YA_NPBD0@Z
?dateHeader@@YAPBDXZ
?parseRTSPRequestString@@YA_NPBDIPADI1I1I1I1IAAI@Z
?parseRangeHeader@@YA_NPBDAAN1AAPAD2AA_N@Z
?parseRangeParam@@YA_NPBDAAN1AAPAD2AA_N@Z
?parseScaleHeader@@YA_NPBDAAM@Z
??0HandlerServerForREGISTERCommand@@IAE@AAVUsageEnvironment@@P6AXPAVRTSPClient@@_N@ZHVPort@@PAVUserAuthenticationDatabase@@HPBD@Z
??0RTSPClient@@IAE@AAVUsageEnvironment@@PBDH1GH@Z
??0RequestQueue@RTSPClient@@QAE@AAV01@@Z
??0RequestQueue@RTSPClient@@QAE@XZ
??0RequestRecord@RTSPClient@@QAE@IP6AXPAV1@HPAD@ZPBD3MPAVMediaSession@@PAVMediaSubsession@@@Z
??0RequestRecord@RTSPClient@@QAE@IPBDP6AXPAV1@HPAD@ZPAVMediaSession@@PAVMediaSubsession@@INNM0@Z
??1HandlerServerForREGISTERCommand@@MAE@XZ
??1RTSPClient@@MAE@XZ
??1RequestQueue@RTSPClient@@UAE@XZ
??1RequestRecord@RTSPClient@@UAE@XZ
??_7HandlerServerForREGISTERCommand@@6B@
??_7RTSPClient@@6B@
??_7RequestQueue@RTSPClient@@6B@
??_7RequestRecord@RTSPClient@@6B@
??_GHandlerServerForREGISTERCommand@@MAEPAXI@Z
??_GRTSPClient@@MAEPAXI@Z
??_GRequestQueue@RTSPClient@@UAEPAXI@Z
??_GRequestRecord@RTSPClient@@UAEPAXI@Z
??_R0?AVHandlerServerForREGISTERCommand@@@8
??_R0?AVRequestQueue@RTSPClient@@@8
??_R1A@?0A@EA@HandlerServerForREGISTERCommand@@8
??_R1A@?0A@EA@RequestQueue@RTSPClient@@8
??_R2HandlerServerForREGISTERCommand@@8
??_R2RequestQueue@RTSPClient@@8
??_R3HandlerServerForREGISTERCommand@@8
??_R3RequestQueue@RTSPClient@@8
??_R4HandlerServerForREGISTERCommand@@6B@
??_R4RTSPClient@@6B@
??_R4RequestQueue@RTSPClient@@6B@
??_R4RequestRecord@RTSPClient@@6B@
?RTPgs@RTPSource@@QBEPAVGroupsock@@XZ
?_playEndTime@MediaSubsession@@QAEAANXZ
?_playStartTime@MediaSubsession@@QAEAANXZ
?absEndTime@RequestRecord@RTSPClient@@QBEPBDXZ
?absStartTime@RequestRecord@RTSPClient@@QBEPBDXZ
?allowedCommandNames@HandlerServerForREGISTERCommand@@MAEPBDXZ
?booleanFlags@RequestRecord@RTSPClient@@QBEIXZ
?changeResponseHandler@RTSPClient@@QAE_NIP6AXPAV1@HPAD@Z@Z
?checkForHeader@RTSPClient@@CA_NPBD0IAAPBD@Z
?clientPortNum@MediaSubsession@@QBEGXZ
;?connectToServer@RTSPClient@@AAEHHG@Z
?connectionEndpointName@MediaSubsession@@QAEAAPADXZ
?connectionHandler1@RTSPClient@@AAEXXZ
?connectionHandler@RTSPClient@@CAXPAXH@Z
?constructSubsessionURL@RTSPClient@@AAEXABVMediaSubsession@@AAPBD11@Z
?contentStr@RequestRecord@RTSPClient@@QBEPADXZ
?controlPath@MediaSession@@QBEPBDXZ
?controlPath@MediaSubsession@@QBEPBDXZ
?createAuthenticatorString@RTSPClient@@AAEPADPBD0@Z
?createBlocksizeString@RTSPClient@@AAEPAD_N@Z
?createNew@HandlerServerForREGISTERCommand@@SAPAV1@AAVUsageEnvironment@@P6AXPAVRTSPClient@@_N@ZVPort@@PAVUserAuthenticationDatabase@@HPBD@Z
?createNew@RTSPClient@@SAPAV1@AAVUsageEnvironment@@PBDH1GH@Z
?createNewRTSPClient@HandlerServerForREGISTERCommand@@MAEPAVRTSPClient@@PBDH0H@Z
?cseq@RequestRecord@RTSPClient@@QAEAAIXZ
?dequeue@RequestQueue@RTSPClient@@QAEPAVRequestRecord@2@XZ
?enableRTCPReports@RTPSource@@QAEAA_NXZ
?end@RequestRecord@RTSPClient@@QBENXZ
?enqueue@RequestQueue@RTSPClient@@QAEXPAVRequestRecord@2@@Z
?findByCSeq@RequestQueue@RTSPClient@@QAEPAVRequestRecord@2@I@Z
?grabSocket@RTSPClient@@IAEHXZ
?handleAlternativeRequestByte1@RTSPClient@@AAEXE@Z
?handleAlternativeRequestByte@RTSPClient@@CAXPAXE@Z
?handleAuthenticationFailure@RTSPClient@@AAE_NPBD@Z
?handleGET_PARAMETERResponse@RTSPClient@@AAE_NPBDAAPADPAD@Z
?handleIncomingRequest@RTSPClient@@AAEXXZ
;?handlePLAYResponse@RTSPClient@@AAE_NAAVMediaSession@@AAVMediaSubsession@@PBD222@Z
?handleRequestError@RTSPClient@@AAEXPAVRequestRecord@1@@Z
?handleResponseBytes@RTSPClient@@AAEXH@Z
?handleSETUPResponse@RTSPClient@@AAE_NAAVMediaSubsession@@PBD1_N@Z
?handleTEARDOWNResponse@RTSPClient@@AAE_NAAVMediaSession@@AAVMediaSubsession@@@Z
?handler@RequestRecord@RTSPClient@@QAEAAP6AXPAV2@HPAD@ZXZ
;?implementCmd_REGISTER@HandlerServerForREGISTERCommand@@MAEXPBD0H_N0@Z
?incomingDataHandler1@RTSPClient@@AAEXXZ
?incomingDataHandler@RTSPClient@@CAXPAXH@Z
?isEmpty@RequestQueue@RTSPClient@@QBE_NXZ
?isRTSPClient@RTSPClient@@EBE_NXZ
?lookupByName@RTSPClient@@SA_NAAVUsageEnvironment@@PBDAAPAV1@@Z
?next@RequestRecord@RTSPClient@@QAEAAPAV12@XZ
?openConnection@RTSPClient@@AAEHXZ
?parseRTPInfoParams@RTSPClient@@AAE_NAAPBDAAGAAI@Z
?parseRTSPURL@RTSPClient@@SA_NAAVUsageEnvironment@@PBDAAPAD2AAVNetAddress@@AAGPAPBD@Z
?parseResponseCode@RTSPClient@@AAE_NPBDAAIAAPBD@Z
?parseScaleParam@RTSPClient@@AAE_NPBDAAM@Z
?parseSpeedParam@RTSPClient@@AAE_NPBDAAM@Z
?parseTransportParams@RTSPClient@@AAE_NPBDAAPADAAGAAE3@Z
?putAtHead@RequestQueue@RTSPClient@@QAEXPAVRequestRecord@2@@Z
?resendCommand@RTSPClient@@AAE_NPAVRequestRecord@1@@Z
?reset@RTSPClient@@IAEXXZ
?resetResponseBuffer@RTSPClient@@AAEXXZ
?resetTCPSockets@RTSPClient@@AAEXXZ
?responseBufferSize@RTSPClient@@2IA
?responseHandlerForHTTP_GET1@RTSPClient@@AAEXHPAD@Z
?responseHandlerForHTTP_GET@RTSPClient@@CAXPAV1@HPAD@Z
?rtcpIsMuxed@MediaSubsession@@QBE_NXZ
?scale@MediaSession@@QAEAAMXZ
?scale@RequestRecord@RTSPClient@@QBEMXZ
?sendAnnounceCommand@RTSPClient@@QAEIPBDP6AXPAV1@HPAD@ZPAVAuthenticator@@@Z
?sendDescribeCommand@RTSPClient@@QAEIP6AXPAV1@HPAD@ZPAVAuthenticator@@@Z
?sendDummyUDPPackets@RTSPClient@@QAEXAAVMediaSession@@I@Z
?sendDummyUDPPackets@RTSPClient@@QAEXAAVMediaSubsession@@I@Z
?sendGetParameterCommand@RTSPClient@@QAEIAAVMediaSession@@P6AXPAV1@HPAD@ZPBDPAVAuthenticator@@@Z
?sendOptionsCommand@RTSPClient@@QAEIP6AXPAV1@HPAD@ZPAVAuthenticator@@@Z
?sendPauseCommand@RTSPClient@@QAEIAAVMediaSession@@P6AXPAV1@HPAD@ZPAVAuthenticator@@@Z
?sendPauseCommand@RTSPClient@@QAEIAAVMediaSubsession@@P6AXPAV1@HPAD@ZPAVAuthenticator@@@Z
?sendPlayCommand@RTSPClient@@QAEIAAVMediaSession@@P6AXPAV1@HPAD@ZNNMPAVAuthenticator@@@Z
?sendPlayCommand@RTSPClient@@QAEIAAVMediaSession@@P6AXPAV1@HPAD@ZPBD4MPAVAuthenticator@@@Z
?sendPlayCommand@RTSPClient@@QAEIAAVMediaSubsession@@P6AXPAV1@HPAD@ZNNMPAVAuthenticator@@@Z
?sendPlayCommand@RTSPClient@@QAEIAAVMediaSubsession@@P6AXPAV1@HPAD@ZPBD4MPAVAuthenticator@@@Z
?sendRecordCommand@RTSPClient@@QAEIAAVMediaSession@@P6AXPAV1@HPAD@ZPAVAuthenticator@@@Z
?sendRecordCommand@RTSPClient@@QAEIAAVMediaSubsession@@P6AXPAV1@HPAD@ZPAVAuthenticator@@@Z
?sendRequest@RTSPClient@@MAEIPAVRequestRecord@1@@Z
?sendSetParameterCommand@RTSPClient@@QAEIAAVMediaSession@@P6AXPAV1@HPAD@ZPBD4PAVAuthenticator@@@Z
?sendSetupCommand@RTSPClient@@QAEIAAVMediaSubsession@@P6AXPAV1@HPAD@Z_N44PAVAuthenticator@@@Z
?sendTeardownCommand@RTSPClient@@QAEIAAVMediaSession@@P6AXPAV1@HPAD@ZPAVAuthenticator@@@Z
?sendTeardownCommand@RTSPClient@@QAEIAAVMediaSubsession@@P6AXPAV1@HPAD@ZPAVAuthenticator@@@Z
?session@RequestRecord@RTSPClient@@QBEPAVMediaSession@@XZ
?sessionId@MediaSubsession@@QBEPBDXZ
?sessionURL@RTSPClient@@ABEPBDABVMediaSession@@@Z
?setBaseURL@RTSPClient@@IAEXPBD@Z
?setRequestFields@RTSPClient@@MAE_NPAVRequestRecord@1@AAPADAA_NAAPBD12@Z
?setSpeed@RTSPClient@@QAEXAAVMediaSession@@M@Z
?setStreamSocket@RTPSource@@QAEXHE@Z
?setUserAgentString@RTSPClient@@QAEXPBD@Z
?setupHTTPTunneling1@RTSPClient@@AAE_NXZ
?setupHTTPTunneling2@RTSPClient@@AAE_NXZ
?speed@MediaSession@@QAEAAMXZ
?speed@MediaSubsession@@QAEAAMXZ
?start@RequestRecord@RTSPClient@@QBENXZ
?subsession@RequestRecord@RTSPClient@@QBEPAVMediaSubsession@@XZ
;?weImplementREGISTER@HandlerServerForREGISTERCommand@@MAE_NPBDAAPAD@Z
;??0ParamsForREGISTER@RTSPClientConnection@RTSPServer@@QAE@PAV12@PBD1_N21@Z
??0RTSPClientConnection@RTSPServer@@IAE@AAV1@HUsockaddr_in@@@Z
??0RTSPClientSession@RTSPServer@@IAE@AAV1@I@Z
??0RTSPServer@@IAE@AAVUsageEnvironment@@HVPort@@PAVUserAuthenticationDatabase@@I@Z
;??0RTSPServerWithREGISTERProxying@@IAE@AAVUsageEnvironment@@HVPort@@PAVUserAuthenticationDatabase@@2I_NH@Z
??0RegisterRequestRecord@@QAE@AAVRTSPServer@@IPBDG1P6AXPAV1@IHPAD@ZPAVAuthenticator@@_N1@Z
??0streamingOverTCPRecord@@QAE@IIPAV0@@Z
??1ParamsForREGISTER@RTSPClientConnection@RTSPServer@@UAE@XZ
??1RTSPClientConnection@RTSPServer@@MAE@XZ
??1RTSPClientSession@RTSPServer@@MAE@XZ
??1RTSPServer@@MAE@XZ
??1RTSPServerWithREGISTERProxying@@MAE@XZ
??1RegisterRequestRecord@@UAE@XZ
??1streamingOverTCPRecord@@UAE@XZ
??_7ParamsForREGISTER@RTSPClientConnection@RTSPServer@@6B@
??_7RTSPClientConnection@RTSPServer@@6B@
??_7RTSPClientSession@RTSPServer@@6B@
??_7RTSPServer@@6B@
??_7RTSPServerWithREGISTERProxying@@6B@
??_7RegisterRequestRecord@@6B@
??_7streamingOverTCPRecord@@6B@
??_GParamsForREGISTER@RTSPClientConnection@RTSPServer@@UAEPAXI@Z
??_GRTSPClientConnection@RTSPServer@@MAEPAXI@Z
??_GRTSPClientSession@RTSPServer@@MAEPAXI@Z
??_GRTSPServer@@MAEPAXI@Z
??_GRTSPServerWithREGISTERProxying@@MAEPAXI@Z
??_GRegisterRequestRecord@@UAEPAXI@Z
??_GstreamingOverTCPRecord@@UAEPAXI@Z
??_R0?AVClientSession@GenericMediaServer@@@8
??_R0?AVParamsForREGISTER@RTSPClientConnection@RTSPServer@@@8
??_R0?AVRTSPClientSession@RTSPServer@@@8
??_R0?AVRTSPServerWithREGISTERProxying@@@8
??_R0?AVRegisterRequestRecord@@@8
??_R0?AVstreamingOverTCPRecord@@@8
??_R1A@?0A@EA@ClientSession@GenericMediaServer@@8
??_R1A@?0A@EA@ParamsForREGISTER@RTSPClientConnection@RTSPServer@@8
??_R1A@?0A@EA@RTSPClientSession@RTSPServer@@8
??_R1A@?0A@EA@RTSPServerWithREGISTERProxying@@8
??_R1A@?0A@EA@RegisterRequestRecord@@8
??_R1A@?0A@EA@streamingOverTCPRecord@@8
??_R2ClientSession@GenericMediaServer@@8
??_R2ParamsForREGISTER@RTSPClientConnection@RTSPServer@@8
??_R2RTSPClientSession@RTSPServer@@8
??_R2RTSPServerWithREGISTERProxying@@8
??_R2RegisterRequestRecord@@8
??_R2streamingOverTCPRecord@@8
??_R3ClientSession@GenericMediaServer@@8
??_R3ParamsForREGISTER@RTSPClientConnection@RTSPServer@@8
??_R3RTSPClientSession@RTSPServer@@8
??_R3RTSPServerWithREGISTERProxying@@8
??_R3RegisterRequestRecord@@8
??_R3streamingOverTCPRecord@@8
??_R4ParamsForREGISTER@RTSPClientConnection@RTSPServer@@6B@
??_R4RTSPClientConnection@RTSPServer@@6B@
??_R4RTSPClientSession@RTSPServer@@6B@
??_R4RTSPServer@@6B@
??_R4RTSPServerWithREGISTERProxying@@6B@
??_R4RegisterRequestRecord@@6B@
??_R4streamingOverTCPRecord@@6B@
?allowedCommandNames@RTSPServer@@MAEPBDXZ
?allowedCommandNames@RTSPServerWithREGISTERProxying@@MAEPBDXZ
?authenticationOK@RTSPClientConnection@RTSPServer@@IAE_NPBD00@Z
?changeClientInputSocket@RTSPClientConnection@RTSPServer@@IAEXHPBEI@Z
?closeSocketsRTSP@RTSPClientConnection@RTSPServer@@IAEXXZ
?continueHandlingREGISTER1@RTSPClientConnection@RTSPServer@@MAEXPAVParamsForREGISTER@12@@Z
?continueHandlingREGISTER@RTSPClientConnection@RTSPServer@@KAXPAVParamsForREGISTER@12@@Z
?createNew@RTSPServer@@SAPAV1@AAVUsageEnvironment@@VPort@@PAVUserAuthenticationDatabase@@I@Z
;?createNew@RTSPServerWithREGISTERProxying@@SAPAV1@AAVUsageEnvironment@@VPort@@PAVUserAuthenticationDatabase@@2I_NH@Z
?createNewClientConnection@RTSPServer@@MAEPAVClientConnection@GenericMediaServer@@HUsockaddr_in@@@Z
?createNewClientSession@RTSPServer@@MAEPAVClientSession@GenericMediaServer@@I@Z
?decrementReferenceCount@ServerMediaSession@@QAEXXZ
?deleteStreamByTrack@RTSPClientSession@RTSPServer@@IAEXI@Z
?deleteWhenUnreferenced@ServerMediaSession@@QAEAA_NXZ
?getAuthenticationDatabaseForCommand@RTSPServer@@MAEPAVUserAuthenticationDatabase@@PBD@Z
?getAuthenticationDatabaseForCommand@RTSPServerWithREGISTERProxying@@MAEPAVUserAuthenticationDatabase@@PBD@Z
?handleAlternativeRequestByte1@RTSPClientConnection@RTSPServer@@IAEXE@Z
?handleAlternativeRequestByte@RTSPClientConnection@RTSPServer@@KAXPAXE@Z
?handleCmd_DESCRIBE@RTSPClientConnection@RTSPServer@@MAEXPBD00@Z
?handleCmd_GET_PARAMETER@RTSPClientConnection@RTSPServer@@MAEXPBD@Z
?handleCmd_GET_PARAMETER@RTSPClientSession@RTSPServer@@MAEXPAVRTSPClientConnection@2@PAVServerMediaSubsession@@PBD@Z
?handleCmd_OPTIONS@RTSPClientConnection@RTSPServer@@MAEXXZ
?handleCmd_PAUSE@RTSPClientSession@RTSPServer@@MAEXPAVRTSPClientConnection@2@PAVServerMediaSubsession@@@Z
?handleCmd_PLAY@RTSPClientSession@RTSPServer@@MAEXPAVRTSPClientConnection@2@PAVServerMediaSubsession@@PBD@Z
;?handleCmd_REGISTER@RTSPClientConnection@RTSPServer@@MAEXPBD00_N10@Z
?handleCmd_SETUP@RTSPClientSession@RTSPServer@@MAEXPAVRTSPClientConnection@2@PBD11@Z
?handleCmd_SET_PARAMETER@RTSPClientConnection@RTSPServer@@MAEXPBD@Z
?handleCmd_SET_PARAMETER@RTSPClientSession@RTSPServer@@MAEXPAVRTSPClientConnection@2@PAVServerMediaSubsession@@PBD@Z
?handleCmd_TEARDOWN@RTSPClientSession@RTSPServer@@MAEXPAVRTSPClientConnection@2@PAVServerMediaSubsession@@@Z
?handleCmd_bad@RTSPClientConnection@RTSPServer@@MAEXXZ
?handleCmd_notFound@RTSPClientConnection@RTSPServer@@MAEXXZ
?handleCmd_notSupported@RTSPClientConnection@RTSPServer@@MAEXXZ
?handleCmd_sessionNotFound@RTSPClientConnection@RTSPServer@@MAEXXZ
?handleCmd_unsupportedTransport@RTSPClientConnection@RTSPServer@@MAEXXZ
?handleCmd_withinSession@RTSPClientSession@RTSPServer@@MAEXPAVRTSPClientConnection@2@PBD111@Z
?handleHTTPCmd_OPTIONS@RTSPClientConnection@RTSPServer@@MAEXXZ
?handleHTTPCmd_StreamingGET@RTSPClientConnection@RTSPServer@@MAEXPBD0@Z
?handleHTTPCmd_TunnelingGET@RTSPClientConnection@RTSPServer@@MAEXPBD@Z
?handleHTTPCmd_TunnelingPOST@RTSPClientConnection@RTSPServer@@MAE_NPBDPBEI@Z
?handleHTTPCmd_notFound@RTSPClientConnection@RTSPServer@@MAEXXZ
?handleHTTPCmd_notSupported@RTSPClientConnection@RTSPServer@@MAEXXZ
?handleRequestBytes@RTSPClientConnection@RTSPServer@@MAEXH@Z
?handleResponse@RegisterRequestRecord@@QAEXHPAD@Z
?httpServerPortNum@RTSPServer@@QBEGXZ
;?implementCmd_REGISTER@RTSPServer@@MAEXPBD0H_N0@Z
;?implementCmd_REGISTER@RTSPServerWithREGISTERProxying@@MAEXPBD0H_N0@Z
?incomingConnectionHandlerHTTP@RTSPServer@@AAEXXZ
?incomingConnectionHandlerHTTP@RTSPServer@@CAXPAXH@Z
?incrementReferenceCount@ServerMediaSession@@QAEXXZ
?isRTSPServer@RTSPServer@@EBE_NXZ
?lookupByName@RTSPServer@@SA_NAAVUsageEnvironment@@PBDAAPAV1@@Z
?noteTCPStreamingOnSocket@RTSPServer@@AAEXHPAVRTSPClientSession@1@I@Z
?parseHTTPRequestString@RTSPClientConnection@RTSPServer@@MAE_NPADI0I0I0I@Z
?passwordsAreMD5@UserAuthenticationDatabase@@QAE_NXZ
?realm@UserAuthenticationDatabase@@QAEPBDXZ
?reclaimStreamStates@RTSPClientSession@RTSPServer@@IAEXXZ
?referenceCount@ServerMediaSession@@QBEIXZ
?registerStream@RTSPServer@@QAEIPAVServerMediaSession@@PBDGP6AXPAV1@IHPAD@Z11_N1@Z
?resetRequestBuffer@RTSPClientConnection@RTSPServer@@IAEXXZ
;?rtspRegisterResponseHandler@@YAXPAVRTSPClient@@HPAD@Z
?rtspURL@RTSPServer@@QBEPADPBVServerMediaSession@@H@Z
?rtspURLPrefix@RTSPServer@@QBEPADH@Z
?setAuthenticationDatabase@RTSPServer@@QAEPAVUserAuthenticationDatabase@@PAV2@@Z
?setRTSPResponse@RTSPClientConnection@RTSPServer@@IAEXPBD0@Z
?setRTSPResponse@RTSPClientConnection@RTSPServer@@IAEXPBD@Z
?setRTSPResponse@RTSPClientConnection@RTSPServer@@IAEXPBDI0@Z
?setRTSPResponse@RTSPClientConnection@RTSPServer@@IAEXPBDI@Z
?setRTSPResponse@RTSPClientSession@RTSPServer@@IAEXPAVRTSPClientConnection@2@PBD@Z
?setRTSPResponse@RTSPClientSession@RTSPServer@@IAEXPAVRTSPClientConnection@2@PBDI1@Z
?setRTSPResponse@RTSPClientSession@RTSPServer@@IAEXPAVRTSPClientConnection@2@PBDI@Z
?setUpTunnelingOverHTTP@RTSPServer@@QAE_NVPort@@@Z
?specialClientAccessCheck@RTSPServer@@MAE_NHAAUsockaddr_in@@PBD@Z
?specialClientUserAccessCheck@RTSPServer@@MAE_NHAAUsockaddr_in@@PBD1@Z
?stopTCPStreamingOnSocket@RTSPServer@@AAEXH@Z
?streamName@ServerMediaSession@@QBEPBDXZ
?unnoteTCPStreamingOnSocket@RTSPServer@@AAEXHPAVRTSPClientSession@1@I@Z
;?weImplementREGISTER@RTSPServer@@MAE_NPBDAAPAD@Z
;?weImplementREGISTER@RTSPServerWithREGISTERProxying@@MAE_NPBDAAPAD@Z
??0ClientConnection@GenericMediaServer@@IAE@AAV1@HUsockaddr_in@@@Z
??0ClientSession@GenericMediaServer@@IAE@AAV1@I@Z
??0GenericMediaServer@@IAE@AAVUsageEnvironment@@HVPort@@I@Z
??0ServerMediaSessionIterator@GenericMediaServer@@QAE@AAV1@@Z
??0UserAuthenticationDatabase@@QAE@PBD_N@Z
??1ClientConnection@GenericMediaServer@@MAE@XZ
??1ClientSession@GenericMediaServer@@MAE@XZ
??1GenericMediaServer@@MAE@XZ
??1ServerMediaSessionIterator@GenericMediaServer@@UAE@XZ
??1UserAuthenticationDatabase@@UAE@XZ
??_7ClientConnection@GenericMediaServer@@6B@
??_7ClientSession@GenericMediaServer@@6B@
??_7GenericMediaServer@@6B@
??_7ServerMediaSessionIterator@GenericMediaServer@@6B@
??_7UserAuthenticationDatabase@@6B@
??_GClientConnection@GenericMediaServer@@MAEPAXI@Z
??_GClientSession@GenericMediaServer@@MAEPAXI@Z
??_GGenericMediaServer@@MAEPAXI@Z
??_GServerMediaSessionIterator@GenericMediaServer@@UAEPAXI@Z
??_GUserAuthenticationDatabase@@UAEPAXI@Z
??_R0?AVServerMediaSessionIterator@GenericMediaServer@@@8
??_R0?AVUserAuthenticationDatabase@@@8
??_R1A@?0A@EA@ServerMediaSessionIterator@GenericMediaServer@@8
??_R1A@?0A@EA@UserAuthenticationDatabase@@8
??_R2ServerMediaSessionIterator@GenericMediaServer@@8
??_R2UserAuthenticationDatabase@@8
??_R3ServerMediaSessionIterator@GenericMediaServer@@8
??_R3UserAuthenticationDatabase@@8
??_R4ClientConnection@GenericMediaServer@@6B@
??_R4ClientSession@GenericMediaServer@@6B@
??_R4GenericMediaServer@@6B@
??_R4ServerMediaSessionIterator@GenericMediaServer@@6B@
??_R4UserAuthenticationDatabase@@6B@
?addServerMediaSession@GenericMediaServer@@QAEXPAVServerMediaSession@@@Z
?addUserRecord@UserAuthenticationDatabase@@UAEXPBD0@Z
?cleanup@GenericMediaServer@@IAEXXZ
?closeAllClientSessionsForServerMediaSession@GenericMediaServer@@QAEXPAVServerMediaSession@@@Z
?closeAllClientSessionsForServerMediaSession@GenericMediaServer@@QAEXPBD@Z
?closeSockets@ClientConnection@GenericMediaServer@@IAEXXZ
?createNewClientSessionWithId@GenericMediaServer@@IAEPAVClientSession@1@XZ
?deleteServerMediaSession@GenericMediaServer@@QAEXPAVServerMediaSession@@@Z
?deleteServerMediaSession@GenericMediaServer@@QAEXPBD@Z
?envir@ClientSession@GenericMediaServer@@IAEAAVUsageEnvironment@@XZ
?incomingConnectionHandler@GenericMediaServer@@IAEXXZ
?incomingConnectionHandler@GenericMediaServer@@KAXPAXH@Z
?incomingConnectionHandlerOnSocket@GenericMediaServer@@IAEXH@Z
?incomingRequestHandler@ClientConnection@GenericMediaServer@@IAEXXZ
?incomingRequestHandler@ClientConnection@GenericMediaServer@@KAXPAXH@Z
?livenessTimeoutTask@ClientSession@GenericMediaServer@@KAXPAV12@@Z
?lookupClientSession@GenericMediaServer@@IAEPAVClientSession@1@I@Z
?lookupClientSession@GenericMediaServer@@IAEPAVClientSession@1@PBD@Z
?lookupPassword@UserAuthenticationDatabase@@UAEPBDPBD@Z
?lookupServerMediaSession@GenericMediaServer@@UAEPAVServerMediaSession@@PBD_N@Z
?next@ServerMediaSessionIterator@GenericMediaServer@@QAEPAVServerMediaSession@@XZ
?noteClientLiveness@ClientSession@GenericMediaServer@@KAXPAV12@@Z
?noteLiveness@ClientSession@GenericMediaServer@@IAEXXZ
?removeServerMediaSession@GenericMediaServer@@QAEXPAVServerMediaSession@@@Z
?removeServerMediaSession@GenericMediaServer@@QAEXPBD@Z
?removeUserRecord@UserAuthenticationDatabase@@UAEXPBD@Z
?resetRequestBuffer@ClientConnection@GenericMediaServer@@IAEXXZ
?setUpOurSocket@GenericMediaServer@@KAHAAVUsageEnvironment@@AAVPort@@@Z
??0RTCPInstance@@IAE@AAVUsageEnvironment@@PAVGroupsock@@IPBEPAVRTPSink@@PAVRTPSource@@_N@Z
??0RTCPMemberDatabase@@QAE@AAVRTCPInstance@@@Z
??0SDESItem@@QAE@EPBE@Z
??1RTCPInstance@@MAE@XZ
??1RTCPMemberDatabase@@UAE@XZ
??_7RTCPInstance@@6B@
??_7RTCPMemberDatabase@@6B@
??_GOutPacketBuffer@@QAEPAXI@Z
??_GRTCPInstance@@MAEPAXI@Z
??_GRTCPMemberDatabase@@UAEPAXI@Z
??_R0?AVRTCPInstance@@@8
??_R0?AVRTCPMemberDatabase@@@8
??_R1A@?0A@EA@RTCPInstance@@8
??_R1A@?0A@EA@RTCPMemberDatabase@@8
??_R2RTCPInstance@@8
??_R2RTCPMemberDatabase@@8
??_R3RTCPInstance@@8
??_R3RTCPMemberDatabase@@8
??_R4RTCPInstance@@6B@
??_R4RTCPMemberDatabase@@6B@
?SSRC@RTPReceptionStats@@QBEIXZ
;?SSRC@RTPSink@@IBEIXZ
?SSRC@RTPSource@@QBEIXZ
;?addBYE@RTCPInstance@@AAEXXZ
?addRR@RTCPInstance@@AAEXXZ
?addReport@RTCPInstance@@AAE_N_N@Z
?addSDES@RTCPInstance@@AAEXXZ
?addSR@RTCPInstance@@AAEXXZ
?addStreamSocket@RTCPInstance@@QAEXHE@Z
?baseExtSeqNumReceived@RTPReceptionStats@@QBEIXZ
?checkNewSSRC@RTCPInstance@@QAEHXZ
?createNew@RTCPInstance@@SAPAV1@AAVUsageEnvironment@@PAVGroupsock@@IPBEPAVRTPSink@@PAVRTPSource@@_N@Z
?curPacketSize@OutPacketBuffer@@QBEIXZ
?data@SDESItem@@QBEPBEXZ
?deregisterForMultiplexedRTCPPackets@RTPSource@@QAEXXZ
?enqueueCommonReportPrefix@RTCPInstance@@AAEXEII@Z
?enqueueCommonReportSuffix@RTCPInstance@@AAEXXZ
?enqueueReportBlock@RTCPInstance@@AAEXPAVRTPReceptionStats@@@Z
?forgetOurGroupsock@RTPInterface@@QAEXXZ
?highestExtSeqNumReceived@RTPReceptionStats@@QBEIXZ
?incomingReportHandler1@RTCPInstance@@IAEXXZ
?incomingReportHandler@RTCPInstance@@CAXPAV1@H@Z
?injectReport@RTCPInstance@@QAEXPBEIABUsockaddr_in@@@Z
?isMember@RTCPMemberDatabase@@QBE_NI@Z
?isRTCPInstance@RTCPInstance@@EBE_NXZ
?lastReceivedSR_NTPlsw@RTPReceptionStats@@QBEIXZ
?lastReceivedSR_NTPmsw@RTPReceptionStats@@QBEIXZ
?lastReceivedSR_time@RTPReceptionStats@@QBEABUtimeval@@XZ
?lastResetExtSeqNumReceived@RTPReceptionStats@@QBEIXZ
?lookupByName@RTCPInstance@@SA_NAAVUsageEnvironment@@PBDAAPAV1@@Z
?nextTimestampHasBeenPreset@RTPSink@@QBE_NXZ
?noteArrivingRR@RTCPInstance@@MAEXABUsockaddr_in@@HE@Z
?noteMembership@RTCPMemberDatabase@@QAE_NII@Z
?numActiveSourcesSinceLastReset@RTPReceptionStatsDB@@QBEIXZ
?numMembers@RTCPInstance@@QBEIXZ
?numMembers@RTCPMemberDatabase@@QBEIXZ
?numPacketsReceivedSinceLastReset@RTPReceptionStats@@QBEIXZ
?octetCount@RTPSink@@IBEIXZ
?onExpire1@RTCPInstance@@AAEXXZ
?onExpire@RTCPInstance@@CAXPAV1@@Z
?onReceive@RTCPInstance@@AAEXHHI@Z
?packet@OutPacketBuffer@@QBEPAEXZ
?packetCount@RTPSink@@IBEIXZ
?packetType@RTCPInstance@@QAEHXZ
?processIncomingReport@RTCPInstance@@AAEXIABUsockaddr_in@@HE@Z
?reapOldMembers@RTCPMemberDatabase@@QAEXI@Z
?receivedPacketSize@RTCPInstance@@QAEHXZ
?receptionStatsDB@RTPSource@@QBEAAVRTPReceptionStatsDB@@XZ
?registerForMultiplexedRTCPPackets@RTPSource@@QAEXPAVRTCPInstance@@@Z
?remove@RTCPMemberDatabase@@QAE_NI@Z
?removeLastReceivedSSRC@RTCPInstance@@QAEXXZ
?removeSSRC@RTCPInstance@@QAEXI_N@Z
?reschedule@RTCPInstance@@QAEXN@Z
?resetOffset@OutPacketBuffer@@QAEXXZ
?schedule@RTCPInstance@@QAEXN@Z
?sendAppPacket@RTCPInstance@@QAEXEPBDPAEI@Z
;?sendBYE@RTCPInstance@@QAEXXZ
?sendBuiltPacket@RTCPInstance@@AAEXXZ
?sendReport@RTCPInstance@@QAEXXZ
?sentPacketSize@RTCPInstance@@QAEHXZ
?setAppHandler@RTCPInstance@@QAEXP6AXPAXEIPAEI@Z0@Z
?setByeHandler@RTCPInstance@@QAEXP6AXPAX@Z0_N@Z
?setRRHandler@RTCPInstance@@QAEXP6AXPAX@Z0@Z
?setSRHandler@RTCPInstance@@QAEXP6AXPAX@Z0@Z
?setSpecificRRHandler@RTCPInstance@@QAEXIVPort@@P6AXPAX@Z1@Z
?setStreamSocket@RTCPInstance@@QAEXHE@Z
?totNumPacketsReceived@RTPReceptionStats@@QBEIXZ
?totalSize@SDESItem@@QBEIXZ
?transmissionStatsDB@RTPSink@@QBEAAVRTPTransmissionStatsDB@@XZ
?typeOfEvent@RTCPInstance@@QAEHXZ
?unsetSpecificRRHandler@RTCPInstance@@QAEXIVPort@@@Z
??0RTPInterface@@QAE@PAVMedium@@PAVGroupsock@@@Z
??0SocketDescriptor@@QAE@AAVUsageEnvironment@@H@Z
??0tcpStreamRecord@@QAE@HEPAV0@@Z
??1RTPInterface@@UAE@XZ
??1SocketDescriptor@@UAE@XZ
??1tcpStreamRecord@@UAE@XZ
??_7RTPInterface@@6B@
??_7SocketDescriptor@@6B@
??_7tcpStreamRecord@@6B@
??_GRTPInterface@@UAEPAXI@Z
??_GSocketDescriptor@@UAEPAXI@Z
??_GtcpStreamRecord@@UAEPAXI@Z
??_R0?AVRTPInterface@@@8
??_R0?AVSocketDescriptor@@@8
??_R0?AVtcpStreamRecord@@@8
??_R1A@?0A@EA@RTPInterface@@8
??_R1A@?0A@EA@SocketDescriptor@@8
??_R1A@?0A@EA@tcpStreamRecord@@8
??_R2RTPInterface@@8
??_R2SocketDescriptor@@8
??_R2tcpStreamRecord@@8
??_R3RTPInterface@@8
??_R3SocketDescriptor@@8
??_R3tcpStreamRecord@@8
??_R4RTPInterface@@6B@
??_R4SocketDescriptor@@6B@
??_R4tcpStreamRecord@@6B@
?IsEmpty@HashTable@@QBE_NXZ
?addStreamSocket@RTPInterface@@QAEXHE@Z
?clearServerRequestAlternativeByteHandler@RTPInterface@@SAXAAVUsageEnvironment@@H@Z
?deregisterRTPInterface@SocketDescriptor@@QAEXE@Z
?envir@RTPInterface@@QBEAAVUsageEnvironment@@XZ
?handleRead@RTPInterface@@QAE_NPAEIAAIAAUsockaddr_in@@AAHAAEAA_N@Z
?lookupRTPInterface@SocketDescriptor@@QAEPAVRTPInterface@@E@Z
?registerRTPInterface@SocketDescriptor@@QAEXEPAVRTPInterface@@@Z
?removeStreamSocket@RTPInterface@@QAEXHE@Z
?sendDataOverTCP@RTPInterface@@AAE_NHPBEI_N@Z
?sendPacket@RTPInterface@@QAE_NPAEI@Z
?sendRTPorRTCPPacketOverTCP@RTPInterface@@AAE_NPAEIHE@Z
?setServerRequestAlternativeByteHandler@RTPInterface@@SAXAAVUsageEnvironment@@HP6AXPAXE@Z1@Z
?setServerRequestAlternativeByteHandler@SocketDescriptor@@QAEXP6AXPAXE@Z0@Z
?setStreamSocket@RTPInterface@@QAEXHE@Z
?startNetworkReading@RTPInterface@@QAEXP6AXPAXH@Z@Z
?stopNetworkReading@RTPInterface@@QAEXXZ
?tcpReadHandler1@SocketDescriptor@@AAE_NH@Z
?tcpReadHandler@SocketDescriptor@@CAXPAV1@H@Z
??0TextRTPSink@@IAE@AAVUsageEnvironment@@PAVGroupsock@@EIPBD@Z
??1TextRTPSink@@MAE@XZ
??_7TextRTPSink@@6B@
??_GTextRTPSink@@MAEPAXI@Z
??_R0?AVMultiFramedRTPSink@@@8
??_R0?AVRTPSink@@@8
??_R0?AVTextRTPSink@@@8
??_R1A@?0A@EA@MultiFramedRTPSink@@8
??_R1A@?0A@EA@RTPSink@@8
??_R1A@?0A@EA@TextRTPSink@@8
??_R2MultiFramedRTPSink@@8
??_R2RTPSink@@8
??_R2TextRTPSink@@8
??_R3MultiFramedRTPSink@@8
??_R3RTPSink@@8
??_R3TextRTPSink@@8
??_R4TextRTPSink@@6B@
?sdpMediaType@TextRTPSink@@EBEPBDXZ
??0VideoRTPSink@@IAE@AAVUsageEnvironment@@PAVGroupsock@@EIPBD@Z
??1VideoRTPSink@@MAE@XZ
??_7VideoRTPSink@@6B@
??_GVideoRTPSink@@MAEPAXI@Z
??_R0?AVVideoRTPSink@@@8
??_R1A@?0A@EA@VideoRTPSink@@8
??_R2VideoRTPSink@@8
??_R3VideoRTPSink@@8
??_R4VideoRTPSink@@6B@
?sdpMediaType@VideoRTPSink@@EBEPBDXZ
??0AudioRTPSink@@IAE@AAVUsageEnvironment@@PAVGroupsock@@EIPBDI@Z
??1AudioRTPSink@@MAE@XZ
??_7AudioRTPSink@@6B@
??_GAudioRTPSink@@MAEPAXI@Z
??_R0?AVAudioRTPSink@@@8
??_R1A@?0A@EA@AudioRTPSink@@8
??_R2AudioRTPSink@@8
??_R3AudioRTPSink@@8
??_R4AudioRTPSink@@6B@
?sdpMediaType@AudioRTPSink@@EBEPBDXZ
??0MultiFramedRTPSink@@IAE@AAVUsageEnvironment@@PAVGroupsock@@EIPBDI@Z
??1MultiFramedRTPSink@@MAE@XZ
??_7MultiFramedRTPSink@@6B@
??_GMultiFramedRTPSink@@MAEPAXI@Z
??_R4MultiFramedRTPSink@@6B@
?afterGettingFrame1@MultiFramedRTPSink@@AAEXIIUtimeval@@I@Z
?afterGettingFrame@MultiFramedRTPSink@@CAXPAXIIUtimeval@@I@Z
?allowFragmentationAfterStart@MultiFramedRTPSink@@MBE_NXZ
?allowOtherFramesAfterLastFragment@MultiFramedRTPSink@@MBE_NXZ
?buildAndSendPacket@MultiFramedRTPSink@@AAEX_N@Z
?computeOverflowForNewFrame@MultiFramedRTPSink@@MBEII@Z
?continuePlaying@MultiFramedRTPSink@@MAE_NXZ
?curPtr@OutPacketBuffer@@QBEPAEXZ
?doSpecialFrameHandling@MultiFramedRTPSink@@MAEXIPAEIUtimeval@@I@Z
?frameCanAppearAfterPacketStart@MultiFramedRTPSink@@MBE_NPBEI@Z
?frameSpecificHeaderSize@MultiFramedRTPSink@@MBEIXZ
?haveOverflowData@OutPacketBuffer@@QBE_NXZ
?increment@OutPacketBuffer@@QAEXI@Z
?isFirstFrameInPacket@MultiFramedRTPSink@@IBE_NXZ
?isPreferredSize@OutPacketBuffer@@QBE_NXZ
?isTooBigForAPacket@MultiFramedRTPSink@@ABE_NI@Z
?isTooBigForAPacket@OutPacketBuffer@@QBE_NI@Z
?numOverflowBytes@OutPacketBuffer@@QBEII@Z
?ourHandleClosure@MultiFramedRTPSink@@CAXPAX@Z
?overflowDataSize@OutPacketBuffer@@QBEIXZ
?overflowDurationInMicroseconds@OutPacketBuffer@@QBEIXZ
?overflowPresentationTime@OutPacketBuffer@@QBE?AUtimeval@@XZ
?packFrame@MultiFramedRTPSink@@AAEXXZ
?resetOverflowData@OutPacketBuffer@@QAEXXZ
?sendNext@MultiFramedRTPSink@@CAXPAX@Z
?sendPacketIfNecessary@MultiFramedRTPSink@@AAEXXZ
?setFramePadding@MultiFramedRTPSink@@IAEXI@Z
?setFrameSpecificHeaderBytes@MultiFramedRTPSink@@IAEXPBEII@Z
?setFrameSpecificHeaderWord@MultiFramedRTPSink@@IAEXII@Z
?setMarkerBit@MultiFramedRTPSink@@IAEXXZ
?setPacketSizes@MultiFramedRTPSink@@QAEXII@Z
?setSpecialHeaderBytes@MultiFramedRTPSink@@IAEXPBEII@Z
?setSpecialHeaderWord@MultiFramedRTPSink@@IAEXII@Z
?setTimestamp@MultiFramedRTPSink@@IAEXUtimeval@@@Z
?specialHeaderSize@MultiFramedRTPSink@@MBEIXZ
?stopPlaying@MultiFramedRTPSink@@UAEXXZ
?totalBufferSize@OutPacketBuffer@@QBEIXZ
?totalBytesAvailable@OutPacketBuffer@@QBEIXZ
?wouldOverflow@OutPacketBuffer@@QBE_NI@Z
??0Iterator@RTPTransmissionStatsDB@@QAE@AAV1@@Z
??0RTPSink@@IAE@AAVUsageEnvironment@@PAVGroupsock@@EIPBDI@Z
??0RTPTransmissionStats@@AAE@AAVRTPSink@@I@Z
??0RTPTransmissionStatsDB@@AAE@AAVRTPSink@@@Z
??1Iterator@RTPTransmissionStatsDB@@UAE@XZ
??1RTPSink@@MAE@XZ
??1RTPTransmissionStats@@EAE@XZ
??1RTPTransmissionStatsDB@@EAE@XZ
??_7Iterator@RTPTransmissionStatsDB@@6B@
??_7RTPSink@@6B@
??_7RTPTransmissionStats@@6B@
??_7RTPTransmissionStatsDB@@6B@
??_GIterator@RTPTransmissionStatsDB@@UAEPAXI@Z
??_GRTPSink@@MAEPAXI@Z
??_GRTPTransmissionStats@@EAEPAXI@Z
??_GRTPTransmissionStatsDB@@EAEPAXI@Z
??_R0?AVIterator@RTPTransmissionStatsDB@@@8
??_R0?AVRTPTransmissionStats@@@8
??_R0?AVRTPTransmissionStatsDB@@@8
??_R1A@?0A@EA@Iterator@RTPTransmissionStatsDB@@8
??_R1A@?0A@EA@RTPTransmissionStats@@8
??_R1A@?0A@EA@RTPTransmissionStatsDB@@8
??_R2Iterator@RTPTransmissionStatsDB@@8
??_R2RTPTransmissionStats@@8
??_R2RTPTransmissionStatsDB@@8
??_R3Iterator@RTPTransmissionStatsDB@@8
??_R3RTPTransmissionStats@@8
??_R3RTPTransmissionStatsDB@@8
??_R4Iterator@RTPTransmissionStatsDB@@6B@
??_R4RTPSink@@6B@
??_R4RTPTransmissionStats@@6B@
??_R4RTPTransmissionStatsDB@@6B@
?add@RTPTransmissionStatsDB@@AAEXIPAVRTPTransmissionStats@@@Z
?auxSDPLine@RTPSink@@UAEPBDXZ
?convertToRTPTimestamp@RTPSink@@IAEIUtimeval@@@Z
?getTotalBitrate@RTPSink@@QAEXAAIAAN@Z
?getTotalOctetCount@RTPTransmissionStats@@QAEXAAI0@Z
?getTotalPacketCount@RTPTransmissionStats@@QAEXAAI0@Z
?isRTPSink@RTPSink@@EBE_NXZ
?lookup@RTPTransmissionStatsDB@@QBEPAVRTPTransmissionStats@@I@Z
?lookupByName@RTPSink@@SA_NAAVUsageEnvironment@@PBDAAPAV1@@Z
?next@Iterator@RTPTransmissionStatsDB@@QAEPAVRTPTransmissionStats@@XZ
?noteIncomingRR@RTPTransmissionStats@@AAEXABUsockaddr_in@@IIIII@Z
?noteIncomingRR@RTPTransmissionStatsDB@@QAEXIABUsockaddr_in@@IIIII@Z
?numChannels@RTPSink@@QBEIXZ
?packetsLostBetweenRR@RTPTransmissionStats@@QBEHXZ
?packetsReceivedSinceLastRR@RTPTransmissionStats@@QBEIXZ
?presetNextTimestamp@RTPSink@@QAEIXZ
?removeRecord@RTPTransmissionStatsDB@@QAEXI@Z
?resetPresentationTimes@RTPSink@@QAEXXZ
?roundTripDelay@RTPTransmissionStats@@QBEIXZ
?rtpPayloadFormatName@RTPSink@@QBEPBDXZ
?rtpTimestampFrequency@RTPSink@@QBEIXZ
?rtpmapLine@RTPSink@@UBEPADXZ
?sdpMediaType@RTPSink@@UBEPBDXZ
??0VP9VideoRTPSource@@IAE@AAVUsageEnvironment@@PAVGroupsock@@EI@Z
??1VP9VideoRTPSource@@MAE@XZ
??_7VP9VideoRTPSource@@6B@
??_GVP9VideoRTPSource@@MAEPAXI@Z
??_R0?AVVP9VideoRTPSource@@@8
??_R1A@?0A@EA@VP9VideoRTPSource@@8
??_R2VP9VideoRTPSource@@8
??_R3VP9VideoRTPSource@@8
??_R4VP9VideoRTPSource@@6B@
?MIMEtype@VP9VideoRTPSource@@MBEPBDXZ
?createNew@VP9VideoRTPSource@@SAPAV1@AAVUsageEnvironment@@PAVGroupsock@@EI@Z
?processSpecialHeader@VP9VideoRTPSource@@MAE_NPAVBufferedPacket@@AAI@Z
??0VP8VideoRTPSource@@IAE@AAVUsageEnvironment@@PAVGroupsock@@EI@Z
??1VP8VideoRTPSource@@MAE@XZ
??_7VP8VideoRTPSource@@6B@
??_GVP8VideoRTPSource@@MAEPAXI@Z
??_R0?AVVP8VideoRTPSource@@@8
??_R1A@?0A@EA@VP8VideoRTPSource@@8
??_R2VP8VideoRTPSource@@8
??_R3VP8VideoRTPSource@@8
??_R4VP8VideoRTPSource@@6B@
?MIMEtype@VP8VideoRTPSource@@MBEPBDXZ
?createNew@VP8VideoRTPSource@@SAPAV1@AAVUsageEnvironment@@PAVGroupsock@@EI@Z
?processSpecialHeader@VP8VideoRTPSource@@MAE_NPAVBufferedPacket@@AAI@Z
??0TheoraBufferedPacket@@QAE@XZ
??0TheoraBufferedPacketFactory@@QAE@XZ
??0TheoraVideoRTPSource@@IAE@AAVUsageEnvironment@@PAVGroupsock@@E@Z
??1TheoraBufferedPacket@@UAE@XZ
??1TheoraBufferedPacketFactory@@UAE@XZ
??1TheoraVideoRTPSource@@MAE@XZ
??_7TheoraBufferedPacket@@6B@
??_7TheoraBufferedPacketFactory@@6B@
??_7TheoraVideoRTPSource@@6B@
??_GTheoraBufferedPacket@@UAEPAXI@Z
??_GTheoraBufferedPacketFactory@@UAEPAXI@Z
??_GTheoraVideoRTPSource@@MAEPAXI@Z
??_R0?AVTheoraBufferedPacket@@@8
??_R0?AVTheoraBufferedPacketFactory@@@8
??_R0?AVTheoraVideoRTPSource@@@8
??_R1A@?0A@EA@TheoraBufferedPacket@@8
??_R1A@?0A@EA@TheoraBufferedPacketFactory@@8
??_R1A@?0A@EA@TheoraVideoRTPSource@@8
??_R2TheoraBufferedPacket@@8
??_R2TheoraBufferedPacketFactory@@8
??_R2TheoraVideoRTPSource@@8
??_R3TheoraBufferedPacket@@8
??_R3TheoraBufferedPacketFactory@@8
??_R3TheoraVideoRTPSource@@8
??_R4TheoraBufferedPacket@@6B@
??_R4TheoraBufferedPacketFactory@@6B@
??_R4TheoraVideoRTPSource@@6B@
?MIMEtype@TheoraVideoRTPSource@@MBEPBDXZ
?createNew@TheoraVideoRTPSource@@SAPAV1@AAVUsageEnvironment@@PAVGroupsock@@E@Z
?createNewPacket@TheoraBufferedPacketFactory@@EAEPAVBufferedPacket@@PAVMultiFramedRTPSource@@@Z
?nextEnclosedFrameSize@TheoraBufferedPacket@@EAEIAAPAEI@Z
?processSpecialHeader@TheoraVideoRTPSource@@MAE_NPAVBufferedPacket@@AAI@Z
??0VorbisAudioRTPSource@@IAE@AAVUsageEnvironment@@PAVGroupsock@@EI@Z
??0VorbisBufferedPacket@@QAE@XZ
??0VorbisBufferedPacketFactory@@QAE@XZ
??1VorbisAudioRTPSource@@MAE@XZ
??1VorbisBufferedPacket@@UAE@XZ
??1VorbisBufferedPacketFactory@@UAE@XZ
??_7VorbisAudioRTPSource@@6B@
??_7VorbisBufferedPacket@@6B@
??_7VorbisBufferedPacketFactory@@6B@
??_GVorbisAudioRTPSource@@MAEPAXI@Z
??_GVorbisBufferedPacket@@UAEPAXI@Z
??_GVorbisBufferedPacketFactory@@UAEPAXI@Z
??_R0?AVVorbisAudioRTPSource@@@8
??_R0?AVVorbisBufferedPacket@@@8
??_R0?AVVorbisBufferedPacketFactory@@@8
??_R1A@?0A@EA@VorbisAudioRTPSource@@8
??_R1A@?0A@EA@VorbisBufferedPacket@@8
??_R1A@?0A@EA@VorbisBufferedPacketFactory@@8
??_R2VorbisAudioRTPSource@@8
??_R2VorbisBufferedPacket@@8
??_R2VorbisBufferedPacketFactory@@8
??_R3VorbisAudioRTPSource@@8
??_R3VorbisBufferedPacket@@8
??_R3VorbisBufferedPacketFactory@@8
??_R4VorbisAudioRTPSource@@6B@
??_R4VorbisBufferedPacket@@6B@
??_R4VorbisBufferedPacketFactory@@6B@
?MIMEtype@VorbisAudioRTPSource@@MBEPBDXZ
?createNew@VorbisAudioRTPSource@@SAPAV1@AAVUsageEnvironment@@PAVGroupsock@@EI@Z
?createNewPacket@VorbisBufferedPacketFactory@@EAEPAVBufferedPacket@@PAVMultiFramedRTPSource@@@Z
?nextEnclosedFrameSize@VorbisBufferedPacket@@EAEIAAPAEI@Z
?parseVorbisOrTheoraConfigStr@@YAXPBDAAPAEAAI12122@Z
?processSpecialHeader@VorbisAudioRTPSource@@MAE_NPAVBufferedPacket@@AAI@Z
??0JPEGBufferedPacket@@QAE@XZ
??0JPEGBufferedPacketFactory@@QAE@XZ
??0JPEGVideoRTPSource@@AAE@AAVUsageEnvironment@@PAVGroupsock@@EIII@Z
??1JPEGBufferedPacket@@UAE@XZ
??1JPEGBufferedPacketFactory@@UAE@XZ
??1JPEGVideoRTPSource@@MAE@XZ
??_7JPEGBufferedPacket@@6B@
??_7JPEGBufferedPacketFactory@@6B@
??_7JPEGVideoRTPSource@@6B@
??_GJPEGBufferedPacket@@UAEPAXI@Z
??_GJPEGBufferedPacketFactory@@UAEPAXI@Z
??_GJPEGVideoRTPSource@@MAEPAXI@Z
??_R0?AVJPEGBufferedPacket@@@8
??_R0?AVJPEGBufferedPacketFactory@@@8
??_R0?AVJPEGVideoRTPSource@@@8
??_R1A@?0A@EA@JPEGBufferedPacket@@8
??_R1A@?0A@EA@JPEGBufferedPacketFactory@@8
??_R1A@?0A@EA@JPEGVideoRTPSource@@8
??_R2JPEGBufferedPacket@@8
??_R2JPEGBufferedPacketFactory@@8
??_R2JPEGVideoRTPSource@@8
??_R3JPEGBufferedPacket@@8
??_R3JPEGBufferedPacketFactory@@8
??_R3JPEGVideoRTPSource@@8
??_R4JPEGBufferedPacket@@6B@
??_R4JPEGBufferedPacketFactory@@6B@
??_R4JPEGVideoRTPSource@@6B@
?MIMEtype@JPEGVideoRTPSource@@EBEPBDXZ
?createNew@JPEGVideoRTPSource@@SAPAV1@AAVUsageEnvironment@@PAVGroupsock@@EIII@Z
?createNewPacket@JPEGBufferedPacketFactory@@EAEPAVBufferedPacket@@PAVMultiFramedRTPSource@@@Z
?nextEnclosedFrameSize@JPEGBufferedPacket@@EAEIAAPAEI@Z
?processSpecialHeader@JPEGVideoRTPSource@@EAE_NPAVBufferedPacket@@AAI@Z
?reset@JPEGBufferedPacket@@EAEXXZ
??0AMRBufferedPacket@@QAE@AAVRawAMRRTPSource@@@Z
??0AMRBufferedPacketFactory@@QAE@XZ
??0AMRDeinterleaver@@AAE@AAVUsageEnvironment@@_NIIPAVRawAMRRTPSource@@@Z
??0AMRDeinterleavingBuffer@@QAE@II@Z
??0FrameDescriptor@AMRDeinterleavingBuffer@@QAE@XZ
??0RawAMRRTPSource@@AAE@AAVUsageEnvironment@@PAVGroupsock@@E_N222@Z
??1AMRBufferedPacket@@UAE@XZ
??1AMRBufferedPacketFactory@@UAE@XZ
??1AMRDeinterleaver@@EAE@XZ
??1AMRDeinterleavingBuffer@@UAE@XZ
??1FrameDescriptor@AMRDeinterleavingBuffer@@UAE@XZ
??1RawAMRRTPSource@@EAE@XZ
??_7AMRBufferedPacket@@6B@
??_7AMRBufferedPacketFactory@@6B@
??_7AMRDeinterleaver@@6B@
??_7AMRDeinterleavingBuffer@@6B@
??_7FrameDescriptor@AMRDeinterleavingBuffer@@6B@
??_7RawAMRRTPSource@@6B@
??_EFrameDescriptor@AMRDeinterleavingBuffer@@UAEPAXI@Z
??_GAMRBufferedPacket@@UAEPAXI@Z
??_GAMRBufferedPacketFactory@@UAEPAXI@Z
??_GAMRDeinterleaver@@EAEPAXI@Z
??_GAMRDeinterleavingBuffer@@UAEPAXI@Z
??_GRawAMRRTPSource@@EAEPAXI@Z
??_H@YGXPAXIIP6EPAX0@Z@Z
??_I@YGXPAXIIP6EX0@Z@Z
??_R0?AVAMRAudioSource@@@8
??_R0?AVAMRBufferedPacket@@@8
??_R0?AVAMRBufferedPacketFactory@@@8
??_R0?AVAMRDeinterleaver@@@8
??_R0?AVAMRDeinterleavingBuffer@@@8
??_R0?AVFrameDescriptor@AMRDeinterleavingBuffer@@@8
??_R0?AVRawAMRRTPSource@@@8
??_R1A@?0A@EA@AMRAudioSource@@8
??_R1A@?0A@EA@AMRBufferedPacket@@8
??_R1A@?0A@EA@AMRBufferedPacketFactory@@8
??_R1A@?0A@EA@AMRDeinterleaver@@8
??_R1A@?0A@EA@AMRDeinterleavingBuffer@@8
??_R1A@?0A@EA@FrameDescriptor@AMRDeinterleavingBuffer@@8
??_R1A@?0A@EA@RawAMRRTPSource@@8
??_R2AMRAudioSource@@8
??_R2AMRBufferedPacket@@8
??_R2AMRBufferedPacketFactory@@8
??_R2AMRDeinterleaver@@8
??_R2AMRDeinterleavingBuffer@@8
??_R2FrameDescriptor@AMRDeinterleavingBuffer@@8
??_R2RawAMRRTPSource@@8
??_R3AMRAudioSource@@8
??_R3AMRBufferedPacket@@8
??_R3AMRBufferedPacketFactory@@8
??_R3AMRDeinterleaver@@8
??_R3AMRDeinterleavingBuffer@@8
??_R3FrameDescriptor@AMRDeinterleavingBuffer@@8
??_R3RawAMRRTPSource@@8
??_R4AMRBufferedPacket@@6B@
??_R4AMRBufferedPacketFactory@@6B@
??_R4AMRDeinterleaver@@6B@
??_R4AMRDeinterleavingBuffer@@6B@
??_R4FrameDescriptor@AMRDeinterleavingBuffer@@6B@
??_R4RawAMRRTPSource@@6B@
?ILL@RawAMRRTPSource@@QBEEXZ
?ILP@RawAMRRTPSource@@QBEEXZ
?MIMEtype@RawAMRRTPSource@@EBEPBDXZ
?TOC@RawAMRRTPSource@@QBEPAEXZ
?TOCSize@RawAMRRTPSource@@QBEIXZ
?afterGettingFrame1@AMRDeinterleaver@@AAEXIUtimeval@@@Z
?afterGettingFrame@AMRDeinterleaver@@CAXPAXIIUtimeval@@I@Z
?createNew@AMRAudioRTPSource@@SAPAVAMRAudioSource@@AAVUsageEnvironment@@PAVGroupsock@@AAPAVRTPSource@@E_NI3I33@Z
?createNew@AMRDeinterleaver@@SAPAV1@AAVUsageEnvironment@@_NIIPAVRawAMRRTPSource@@@Z
?createNew@RawAMRRTPSource@@SAPAV1@AAVUsageEnvironment@@PAVGroupsock@@E_N222@Z
?createNewBuffer@AMRDeinterleavingBuffer@@AAEPAEXZ
?createNewPacket@AMRBufferedPacketFactory@@EAEPAVBufferedPacket@@PAVMultiFramedRTPSource@@@Z
?curBitIndex@BitVector@@QBEIXZ
?deliverIncomingFrame@AMRDeinterleavingBuffer@@QAEXIPAVRawAMRRTPSource@@Utimeval@@@Z
?doGetNextFrame@AMRDeinterleaver@@EAEXXZ
?doStopGettingFrames@AMRDeinterleaver@@EAEXXZ
?frameIndex@RawAMRRTPSource@@QAEAAIXZ
?hasBeenSynchronizedUsingRTCP@RawAMRRTPSource@@EAE_NXZ
?inputBuffer@AMRDeinterleavingBuffer@@QAEPAEXZ
?inputBufferSize@AMRDeinterleavingBuffer@@QBEIXZ
?isSynchronized@RawAMRRTPSource@@QAEAA_NXZ
?isWideband@RawAMRRTPSource@@QBE_NXZ
?nextEnclosedFrameSize@AMRBufferedPacket@@EAEIAAPAEI@Z
?processSpecialHeader@RawAMRRTPSource@@EAE_NPAVBufferedPacket@@AAI@Z
?retrieveFrame@AMRDeinterleavingBuffer@@QAE_NPAEIAAI1AAEAAUtimeval@@AA_N@Z
??0FrameDescriptor@QCELPDeinterleavingBuffer@@QAE@XZ
??0QCELPBufferedPacket@@QAE@AAVRawQCELPRTPSource@@@Z
??0QCELPBufferedPacketFactory@@QAE@XZ
??0QCELPDeinterleaver@@AAE@AAVUsageEnvironment@@PAVRawQCELPRTPSource@@@Z
??0QCELPDeinterleavingBuffer@@QAE@XZ
??0RawQCELPRTPSource@@AAE@AAVUsageEnvironment@@PAVGroupsock@@EI@Z
??1FrameDescriptor@QCELPDeinterleavingBuffer@@UAE@XZ
??1QCELPBufferedPacket@@UAE@XZ
??1QCELPBufferedPacketFactory@@UAE@XZ
??1QCELPDeinterleaver@@EAE@XZ
??1QCELPDeinterleavingBuffer@@UAE@XZ
??1RawQCELPRTPSource@@EAE@XZ
??_7FrameDescriptor@QCELPDeinterleavingBuffer@@6B@
??_7QCELPBufferedPacket@@6B@
??_7QCELPBufferedPacketFactory@@6B@
??_7QCELPDeinterleaver@@6B@
??_7QCELPDeinterleavingBuffer@@6B@
??_7RawQCELPRTPSource@@6B@
??_GFrameDescriptor@QCELPDeinterleavingBuffer@@UAEPAXI@Z
??_GQCELPBufferedPacket@@UAEPAXI@Z
??_GQCELPBufferedPacketFactory@@UAEPAXI@Z
??_GQCELPDeinterleaver@@EAEPAXI@Z
??_GQCELPDeinterleavingBuffer@@UAEPAXI@Z
??_GRawQCELPRTPSource@@EAEPAXI@Z
??_R0?AVFrameDescriptor@QCELPDeinterleavingBuffer@@@8
??_R0?AVQCELPBufferedPacket@@@8
??_R0?AVQCELPBufferedPacketFactory@@@8
??_R0?AVQCELPDeinterleaver@@@8
??_R0?AVQCELPDeinterleavingBuffer@@@8
??_R0?AVRawQCELPRTPSource@@@8
??_R1A@?0A@EA@FrameDescriptor@QCELPDeinterleavingBuffer@@8
??_R1A@?0A@EA@QCELPBufferedPacket@@8
??_R1A@?0A@EA@QCELPBufferedPacketFactory@@8
??_R1A@?0A@EA@QCELPDeinterleaver@@8
??_R1A@?0A@EA@QCELPDeinterleavingBuffer@@8
??_R1A@?0A@EA@RawQCELPRTPSource@@8
??_R2FrameDescriptor@QCELPDeinterleavingBuffer@@8
??_R2QCELPBufferedPacket@@8
??_R2QCELPBufferedPacketFactory@@8
??_R2QCELPDeinterleaver@@8
??_R2QCELPDeinterleavingBuffer@@8
??_R2RawQCELPRTPSource@@8
??_R3FrameDescriptor@QCELPDeinterleavingBuffer@@8
??_R3QCELPBufferedPacket@@8
??_R3QCELPBufferedPacketFactory@@8
??_R3QCELPDeinterleaver@@8
??_R3QCELPDeinterleavingBuffer@@8
??_R3RawQCELPRTPSource@@8
??_R4FrameDescriptor@QCELPDeinterleavingBuffer@@6B@
??_R4QCELPBufferedPacket@@6B@
??_R4QCELPBufferedPacketFactory@@6B@
??_R4QCELPDeinterleaver@@6B@
??_R4QCELPDeinterleavingBuffer@@6B@
??_R4RawQCELPRTPSource@@6B@
?MIMEtype@RawQCELPRTPSource@@EBEPBDXZ
?afterGettingFrame1@QCELPDeinterleaver@@AAEXIUtimeval@@@Z
?afterGettingFrame@QCELPDeinterleaver@@CAXPAXIIUtimeval@@I@Z
?createNew@QCELPAudioRTPSource@@SAPAVFramedSource@@AAVUsageEnvironment@@PAVGroupsock@@AAPAVRTPSource@@EI@Z
?createNew@QCELPDeinterleaver@@SAPAV1@AAVUsageEnvironment@@PAVRawQCELPRTPSource@@@Z
?createNew@RawQCELPRTPSource@@SAPAV1@AAVUsageEnvironment@@PAVGroupsock@@EI@Z
?createNewPacket@QCELPBufferedPacketFactory@@EAEPAVBufferedPacket@@PAVMultiFramedRTPSource@@@Z
?deliverIncomingFrame@QCELPDeinterleavingBuffer@@QAEXIEEEGUtimeval@@@Z
?doGetNextFrame@QCELPDeinterleaver@@EAEXXZ
?doStopGettingFrames@QCELPDeinterleaver@@EAEXXZ
?frameIndex@RawQCELPRTPSource@@QAEAAEXZ
?hasBeenSynchronizedUsingRTCP@RawQCELPRTPSource@@EAE_NXZ
?inputBuffer@QCELPDeinterleavingBuffer@@QAEPAEXZ
?inputBufferSize@QCELPDeinterleavingBuffer@@QBEIXZ
?interleaveL@RawQCELPRTPSource@@QBEEXZ
?interleaveN@RawQCELPRTPSource@@QBEEXZ
?nextEnclosedFrameSize@QCELPBufferedPacket@@EAEIAAPAEI@Z
?processSpecialHeader@RawQCELPRTPSource@@EAE_NPAVBufferedPacket@@AAI@Z
?retrieveFrame@QCELPDeinterleavingBuffer@@QAE_NPAEIAAI1AAUtimeval@@@Z
??0H265BufferedPacket@@QAE@AAVH265VideoRTPSource@@@Z
??0H265BufferedPacketFactory@@QAE@XZ
??0H265VideoRTPSource@@IAE@AAVUsageEnvironment@@PAVGroupsock@@E_NI@Z
??1H265BufferedPacket@@UAE@XZ
??1H265BufferedPacketFactory@@UAE@XZ
??1H265VideoRTPSource@@MAE@XZ
??_7H265BufferedPacket@@6B@
??_7H265BufferedPacketFactory@@6B@
??_7H265VideoRTPSource@@6B@
??_GH265BufferedPacket@@UAEPAXI@Z
??_GH265BufferedPacketFactory@@UAEPAXI@Z
??_GH265VideoRTPSource@@MAEPAXI@Z
??_R0?AVH265BufferedPacket@@@8
??_R0?AVH265BufferedPacketFactory@@@8
??_R0?AVH265VideoRTPSource@@@8
??_R1A@?0A@EA@H265BufferedPacket@@8
??_R1A@?0A@EA@H265BufferedPacketFactory@@8
??_R1A@?0A@EA@H265VideoRTPSource@@8
??_R2H265BufferedPacket@@8
??_R2H265BufferedPacketFactory@@8
??_R2H265VideoRTPSource@@8
??_R3H265BufferedPacket@@8
??_R3H265BufferedPacketFactory@@8
??_R3H265VideoRTPSource@@8
??_R4H265BufferedPacket@@6B@
??_R4H265BufferedPacketFactory@@6B@
??_R4H265VideoRTPSource@@6B@
?MIMEtype@H265VideoRTPSource@@MBEPBDXZ
?computeAbsDonFromDON@H265VideoRTPSource@@AAEXG@Z
?createNew@H265VideoRTPSource@@SAPAV1@AAVUsageEnvironment@@PAVGroupsock@@E_NI@Z
?createNewPacket@H265BufferedPacketFactory@@EAEPAVBufferedPacket@@PAVMultiFramedRTPSource@@@Z
?nextEnclosedFrameSize@H265BufferedPacket@@EAEIAAPAEI@Z
?processSpecialHeader@H265VideoRTPSource@@MAE_NPAVBufferedPacket@@AAI@Z
?useCount@BufferedPacket@@QBEIXZ
??0H264BufferedPacket@@QAE@AAVH264VideoRTPSource@@@Z
??0H264BufferedPacketFactory@@QAE@XZ
??0H264VideoRTPSource@@IAE@AAVUsageEnvironment@@PAVGroupsock@@EI@Z
??1H264BufferedPacket@@UAE@XZ
??1H264BufferedPacketFactory@@UAE@XZ
??1H264VideoRTPSource@@MAE@XZ
??1SPropRecord@@QAE@XZ
??_7H264BufferedPacket@@6B@
??_7H264BufferedPacketFactory@@6B@
??_7H264VideoRTPSource@@6B@
??_ESPropRecord@@QAEPAXI@Z
??_GH264BufferedPacket@@UAEPAXI@Z
??_GH264BufferedPacketFactory@@UAEPAXI@Z
??_GH264VideoRTPSource@@MAEPAXI@Z
??_R0?AVH264BufferedPacket@@@8
??_R0?AVH264BufferedPacketFactory@@@8
??_R0?AVH264VideoRTPSource@@@8
??_R1A@?0A@EA@H264BufferedPacket@@8
??_R1A@?0A@EA@H264BufferedPacketFactory@@8
??_R1A@?0A@EA@H264VideoRTPSource@@8
??_R2H264BufferedPacket@@8
??_R2H264BufferedPacketFactory@@8
??_R2H264VideoRTPSource@@8
??_R3H264BufferedPacket@@8
??_R3H264BufferedPacketFactory@@8
??_R3H264VideoRTPSource@@8
??_R4H264BufferedPacket@@6B@
??_R4H264BufferedPacketFactory@@6B@
??_R4H264VideoRTPSource@@6B@
?MIMEtype@H264VideoRTPSource@@MBEPBDXZ
?createNew@H264VideoRTPSource@@SAPAV1@AAVUsageEnvironment@@PAVGroupsock@@EI@Z
?createNewPacket@H264BufferedPacketFactory@@EAEPAVBufferedPacket@@PAVMultiFramedRTPSource@@@Z
?nextEnclosedFrameSize@H264BufferedPacket@@EAEIAAPAEI@Z
?parseSPropParameterSets@@YAPAVSPropRecord@@PBDAAI@Z
?processSpecialHeader@H264VideoRTPSource@@MAE_NPAVBufferedPacket@@AAI@Z
??0H261VideoRTPSource@@AAE@AAVUsageEnvironment@@PAVGroupsock@@EI@Z
??1H261VideoRTPSource@@MAE@XZ
??_7H261VideoRTPSource@@6B@
??_GH261VideoRTPSource@@MAEPAXI@Z
??_R0?AVH261VideoRTPSource@@@8
??_R1A@?0A@EA@H261VideoRTPSource@@8
??_R2H261VideoRTPSource@@8
??_R3H261VideoRTPSource@@8
??_R4H261VideoRTPSource@@6B@
?MIMEtype@H261VideoRTPSource@@EBEPBDXZ
?createNew@H261VideoRTPSource@@SAPAV1@AAVUsageEnvironment@@PAVGroupsock@@EI@Z
?processSpecialHeader@H261VideoRTPSource@@EAE_NPAVBufferedPacket@@AAI@Z
??0SimpleRTPSource@@IAE@AAVUsageEnvironment@@PAVGroupsock@@EIPBDI_N@Z
??1SimpleRTPSource@@MAE@XZ
??_7SimpleRTPSource@@6B@
??_GSimpleRTPSource@@MAEPAXI@Z
??_R0?AVSimpleRTPSource@@@8
??_R1A@?0A@EA@SimpleRTPSource@@8
??_R2SimpleRTPSource@@8
??_R3SimpleRTPSource@@8
??_R4SimpleRTPSource@@6B@
?MIMEtype@SimpleRTPSource@@EBEPBDXZ
?createNew@SimpleRTPSource@@SAPAV1@AAVUsageEnvironment@@PAVGroupsock@@EIPBDI_N@Z
?processSpecialHeader@SimpleRTPSource@@EAE_NPAVBufferedPacket@@AAI@Z
??0BufferedPacket@@QAE@XZ
??0BufferedPacketFactory@@QAE@XZ
??0MultiFramedRTPSource@@IAE@AAVUsageEnvironment@@PAVGroupsock@@EIPAVBufferedPacketFactory@@@Z
??0ReorderingPacketBuffer@@QAE@PAVBufferedPacketFactory@@@Z
??1BufferedPacket@@UAE@XZ
??1BufferedPacketFactory@@UAE@XZ
??1MultiFramedRTPSource@@MAE@XZ
??1ReorderingPacketBuffer@@UAE@XZ
??_7BufferedPacket@@6B@
??_7BufferedPacketFactory@@6B@
??_7MultiFramedRTPSource@@6B@
??_7ReorderingPacketBuffer@@6B@
??_GBufferedPacket@@UAEPAXI@Z
??_GBufferedPacketFactory@@UAEPAXI@Z
??_GMultiFramedRTPSource@@MAEPAXI@Z
??_GReorderingPacketBuffer@@UAEPAXI@Z
??_R0?AVReorderingPacketBuffer@@@8
??_R1A@?0A@EA@ReorderingPacketBuffer@@8
??_R2ReorderingPacketBuffer@@8
??_R3ReorderingPacketBuffer@@8
??_R4BufferedPacket@@6B@
??_R4BufferedPacketFactory@@6B@
??_R4MultiFramedRTPSource@@6B@
??_R4ReorderingPacketBuffer@@6B@
?appendData@BufferedPacket@@QAEXPAEI@Z
?assignMiscParams@BufferedPacket@@QAEXGIUtimeval@@_N10@Z
?bytesAvailable@BufferedPacket@@QBEIXZ
?createNewPacket@BufferedPacketFactory@@UAEPAVBufferedPacket@@PAVMultiFramedRTPSource@@@Z
?doGetNextFrame1@MultiFramedRTPSource@@AAEXXZ
?doGetNextFrame@MultiFramedRTPSource@@EAEXXZ
?doStopGettingFrames@MultiFramedRTPSource@@MAEXXZ
?fillInData@BufferedPacket@@QAE_NAAVRTPInterface@@AAUsockaddr_in@@AA_N@Z
?freePacket@ReorderingPacketBuffer@@QAEXPAVBufferedPacket@@@Z
?getFreePacket@ReorderingPacketBuffer@@QAEPAVBufferedPacket@@PAVMultiFramedRTPSource@@@Z
?getNextCompletedPacket@ReorderingPacketBuffer@@QAEPAVBufferedPacket@@AA_N@Z
?getNextEnclosedFrameParameters@BufferedPacket@@MAEXAAPAEIAAI1@Z
?hasUsableData@BufferedPacket@@QBE_NXZ
?isEmpty@ReorderingPacketBuffer@@QBE_NXZ
?isFirstPacket@BufferedPacket@@QAEAA_NXZ
?networkReadHandler1@MultiFramedRTPSource@@AAEXXZ
?networkReadHandler@MultiFramedRTPSource@@CAXPAV1@H@Z
?nextEnclosedFrameSize@BufferedPacket@@MAEIAAPAEI@Z
?nextPacket@BufferedPacket@@QAEAAPAV1@XZ
?packetIsUsableInJitterCalculation@MultiFramedRTPSource@@MAE_NPAEI@Z
?processSpecialHeader@MultiFramedRTPSource@@MAE_NPAVBufferedPacket@@AAI@Z
?releaseUsedPacket@ReorderingPacketBuffer@@QAEXPAVBufferedPacket@@@Z
?removePadding@BufferedPacket@@QAEXI@Z
?reset@BufferedPacket@@MAEXXZ
?reset@MultiFramedRTPSource@@AAEXXZ
?reset@ReorderingPacketBuffer@@QAEXXZ
?resetHaveSeenFirstPacket@ReorderingPacketBuffer@@QAEXXZ
?rtpSeqNo@BufferedPacket@@QBEGXZ
?setPacketReorderingThresholdTime@MultiFramedRTPSource@@EAEXI@Z
?setThresholdTime@ReorderingPacketBuffer@@QAEXI@Z
?skip@BufferedPacket@@QAEXI@Z
?storePacket@ReorderingPacketBuffer@@QAE_NPAVBufferedPacket@@@Z
?timeReceived@BufferedPacket@@QBEABUtimeval@@XZ
?use@BufferedPacket@@QAEXPAEIAAI1AAG1AAUtimeval@@AA_N4@Z
??0Iterator@RTPReceptionStatsDB@@QAE@AAV1@@Z
??0RTPReceptionStats@@IAE@I@Z
??0RTPReceptionStats@@IAE@IG@Z
??0RTPReceptionStatsDB@@IAE@XZ
??0RTPSource@@IAE@AAVUsageEnvironment@@PAVGroupsock@@EI@Z
??1Iterator@RTPReceptionStatsDB@@UAE@XZ
??1RTPReceptionStats@@MAE@XZ
??1RTPReceptionStatsDB@@MAE@XZ
??1RTPSource@@MAE@XZ
??_7Iterator@RTPReceptionStatsDB@@6B@
??_7RTPReceptionStats@@6B@
??_7RTPReceptionStatsDB@@6B@
??_7RTPSource@@6B@
??_GIterator@RTPReceptionStatsDB@@UAEPAXI@Z
??_GRTPReceptionStats@@MAEPAXI@Z
??_GRTPReceptionStatsDB@@MAEPAXI@Z
??_GRTPSource@@MAEPAXI@Z
??_R0?AVIterator@RTPReceptionStatsDB@@@8
??_R0?AVRTPReceptionStats@@@8
??_R0?AVRTPReceptionStatsDB@@@8
??_R1A@?0A@EA@Iterator@RTPReceptionStatsDB@@8
??_R1A@?0A@EA@RTPReceptionStats@@8
??_R1A@?0A@EA@RTPReceptionStatsDB@@8
??_R2Iterator@RTPReceptionStatsDB@@8
??_R2RTPReceptionStats@@8
??_R2RTPReceptionStatsDB@@8
??_R3Iterator@RTPReceptionStatsDB@@8
??_R3RTPReceptionStats@@8
??_R3RTPReceptionStatsDB@@8
??_R4Iterator@RTPReceptionStatsDB@@6B@
??_R4RTPReceptionStats@@6B@
??_R4RTPReceptionStatsDB@@6B@
??_R4RTPSource@@6B@
?add@RTPReceptionStatsDB@@IAEXIPAVRTPReceptionStats@@@Z
?getAttributes@RTPSource@@EBEXXZ
?hasBeenSynchronizedUsingRTCP@RTPSource@@UAE_NXZ
?init@RTPReceptionStats@@AAEXI@Z
?initSeqNum@RTPReceptionStats@@AAEXG@Z
?isRTPSource@RTPSource@@EBE_NXZ
?jitter@RTPReceptionStats@@QBEIXZ
?lookup@RTPReceptionStatsDB@@QBEPAVRTPReceptionStats@@I@Z
?lookupByName@RTPSource@@SA_NAAVUsageEnvironment@@PBDAAPAV1@@Z
?next@Iterator@RTPReceptionStatsDB@@QAEPAVRTPReceptionStats@@_N@Z
?noteIncomingPacket@RTPReceptionStats@@AAEXGII_NAAUtimeval@@AA_NI@Z
?noteIncomingPacket@RTPReceptionStatsDB@@QAEXIGII_NAAUtimeval@@AA_NI@Z
?noteIncomingSR@RTPReceptionStats@@AAEXIII@Z
?noteIncomingSR@RTPReceptionStatsDB@@QAEXIIII@Z
?removeRecord@RTPReceptionStatsDB@@QAEXI@Z
?reset@RTPReceptionStats@@AAEXXZ
?reset@RTPReceptionStatsDB@@QAEXXZ
?seqNumLT@@YA_NGG@Z
?totNumKBytesReceived@RTPReceptionStats@@QBENXZ
??0EndianSwap16@@IAE@AAVUsageEnvironment@@PAVFramedSource@@@Z
??0EndianSwap24@@IAE@AAVUsageEnvironment@@PAVFramedSource@@@Z
??0HostFromNetworkOrder16@@IAE@AAVUsageEnvironment@@PAVFramedSource@@@Z
??0NetworkFromHostOrder16@@IAE@AAVUsageEnvironment@@PAVFramedSource@@@Z
??0PCMFromuLawAudioSource@@IAE@AAVUsageEnvironment@@PAVFramedSource@@@Z
??0uLawFromPCMAudioSource@@IAE@AAVUsageEnvironment@@PAVFramedSource@@H@Z
??1EndianSwap16@@MAE@XZ
??1EndianSwap24@@MAE@XZ
??1HostFromNetworkOrder16@@MAE@XZ
??1NetworkFromHostOrder16@@MAE@XZ
??1PCMFromuLawAudioSource@@MAE@XZ
??1uLawFromPCMAudioSource@@MAE@XZ
??_7EndianSwap16@@6B@
??_7EndianSwap24@@6B@
??_7HostFromNetworkOrder16@@6B@
??_7NetworkFromHostOrder16@@6B@
??_7PCMFromuLawAudioSource@@6B@
??_7uLawFromPCMAudioSource@@6B@
??_GEndianSwap16@@MAEPAXI@Z
??_GEndianSwap24@@MAEPAXI@Z
??_GHostFromNetworkOrder16@@MAEPAXI@Z
??_GNetworkFromHostOrder16@@MAEPAXI@Z
??_GPCMFromuLawAudioSource@@MAEPAXI@Z
??_GuLawFromPCMAudioSource@@MAEPAXI@Z
??_R0?AVEndianSwap16@@@8
??_R0?AVEndianSwap24@@@8
??_R0?AVHostFromNetworkOrder16@@@8
??_R0?AVNetworkFromHostOrder16@@@8
??_R0?AVPCMFromuLawAudioSource@@@8
??_R0?AVuLawFromPCMAudioSource@@@8
??_R1A@?0A@EA@EndianSwap16@@8
??_R1A@?0A@EA@EndianSwap24@@8
??_R1A@?0A@EA@HostFromNetworkOrder16@@8
??_R1A@?0A@EA@NetworkFromHostOrder16@@8
??_R1A@?0A@EA@PCMFromuLawAudioSource@@8
??_R1A@?0A@EA@uLawFromPCMAudioSource@@8
??_R2EndianSwap16@@8
??_R2EndianSwap24@@8
??_R2HostFromNetworkOrder16@@8
??_R2NetworkFromHostOrder16@@8
??_R2PCMFromuLawAudioSource@@8
??_R2uLawFromPCMAudioSource@@8
??_R3EndianSwap16@@8
??_R3EndianSwap24@@8
??_R3HostFromNetworkOrder16@@8
??_R3NetworkFromHostOrder16@@8
??_R3PCMFromuLawAudioSource@@8
??_R3uLawFromPCMAudioSource@@8
??_R4EndianSwap16@@6B@
??_R4EndianSwap24@@6B@
??_R4HostFromNetworkOrder16@@6B@
??_R4NetworkFromHostOrder16@@6B@
??_R4PCMFromuLawAudioSource@@6B@
??_R4uLawFromPCMAudioSource@@6B@
?afterGettingFrame1@EndianSwap16@@AAEXIIUtimeval@@I@Z
?afterGettingFrame1@EndianSwap24@@AAEXIIUtimeval@@I@Z
?afterGettingFrame1@HostFromNetworkOrder16@@AAEXIIUtimeval@@I@Z
?afterGettingFrame1@NetworkFromHostOrder16@@AAEXIIUtimeval@@I@Z
?afterGettingFrame1@PCMFromuLawAudioSource@@AAEXIIUtimeval@@I@Z
?afterGettingFrame1@uLawFromPCMAudioSource@@AAEXIIUtimeval@@I@Z
?afterGettingFrame@EndianSwap16@@CAXPAXIIUtimeval@@I@Z
?afterGettingFrame@EndianSwap24@@CAXPAXIIUtimeval@@I@Z
?afterGettingFrame@HostFromNetworkOrder16@@CAXPAXIIUtimeval@@I@Z
?afterGettingFrame@NetworkFromHostOrder16@@CAXPAXIIUtimeval@@I@Z
?afterGettingFrame@PCMFromuLawAudioSource@@CAXPAXIIUtimeval@@I@Z
?afterGettingFrame@uLawFromPCMAudioSource@@CAXPAXIIUtimeval@@I@Z
?createNew@EndianSwap16@@SAPAV1@AAVUsageEnvironment@@PAVFramedSource@@@Z
?createNew@EndianSwap24@@SAPAV1@AAVUsageEnvironment@@PAVFramedSource@@@Z
?createNew@HostFromNetworkOrder16@@SAPAV1@AAVUsageEnvironment@@PAVFramedSource@@@Z
?createNew@NetworkFromHostOrder16@@SAPAV1@AAVUsageEnvironment@@PAVFramedSource@@@Z
?createNew@PCMFromuLawAudioSource@@SAPAV1@AAVUsageEnvironment@@PAVFramedSource@@@Z
?createNew@uLawFromPCMAudioSource@@SAPAV1@AAVUsageEnvironment@@PAVFramedSource@@H@Z
?doGetNextFrame@EndianSwap16@@EAEXXZ
?doGetNextFrame@EndianSwap24@@EAEXXZ
?doGetNextFrame@HostFromNetworkOrder16@@EAEXXZ
?doGetNextFrame@NetworkFromHostOrder16@@EAEXXZ
?doGetNextFrame@PCMFromuLawAudioSource@@EAEXXZ
?doGetNextFrame@uLawFromPCMAudioSource@@EAEXXZ
?CloseOutputFile@@YAXPAU_iobuf@@@Z
?OpenOutputFile@@YAPAU_iobuf@@AAVUsageEnvironment@@PBD@Z
??0TCPStreamSink@@IAE@AAVUsageEnvironment@@H@Z
??1TCPStreamSink@@MAE@XZ
??_7TCPStreamSink@@6B@
??_GTCPStreamSink@@MAEPAXI@Z
??_R0?AVTCPStreamSink@@@8
??_R1A@?0A@EA@TCPStreamSink@@8
??_R2TCPStreamSink@@8
??_R3TCPStreamSink@@8
??_R4TCPStreamSink@@6B@
?afterGettingFrame@TCPStreamSink@@AAEXII@Z
?afterGettingFrame@TCPStreamSink@@CAXPAXIIUtimeval@@I@Z
?continuePlaying@TCPStreamSink@@MAE_NXZ
?createNew@TCPStreamSink@@SAPAV1@AAVUsageEnvironment@@H@Z
?freeBufferSpace@TCPStreamSink@@ABEIXZ
?numUnwrittenBytes@TCPStreamSink@@ABEIXZ
?ourOnSourceClosure1@TCPStreamSink@@AAEXXZ
?ourOnSourceClosure@TCPStreamSink@@CAXPAX@Z
?processBuffer@TCPStreamSink@@AAEXXZ
?socketWritableHandler1@TCPStreamSink@@AAEXXZ
?socketWritableHandler@TCPStreamSink@@CAXPAXH@Z
??0T140IdleFilter@@QAE@AAVUsageEnvironment@@PAVFramedSource@@@Z
??0T140TextRTPSink@@IAE@AAVUsageEnvironment@@PAVGroupsock@@E@Z
??1T140IdleFilter@@UAE@XZ
??1T140TextRTPSink@@MAE@XZ
??_7T140IdleFilter@@6B@
??_7T140TextRTPSink@@6B@
??_GT140IdleFilter@@UAEPAXI@Z
??_GT140TextRTPSink@@MAEPAXI@Z
??_R0?AVT140IdleFilter@@@8
??_R0?AVT140TextRTPSink@@@8
??_R1A@?0A@EA@T140IdleFilter@@8
??_R1A@?0A@EA@T140TextRTPSink@@8
??_R2T140IdleFilter@@8
??_R2T140TextRTPSink@@8
??_R3T140IdleFilter@@8
??_R3T140TextRTPSink@@8
??_R4T140IdleFilter@@6B@
??_R4T140TextRTPSink@@6B@
?afterGettingFrame@T140IdleFilter@@AAEXIIUtimeval@@I@Z
?afterGettingFrame@T140IdleFilter@@CAXPAXIIUtimeval@@I@Z
?continuePlaying@T140TextRTPSink@@MAE_NXZ
?createNew@T140TextRTPSink@@SAPAV1@AAVUsageEnvironment@@PAVGroupsock@@E@Z
?deliverEmptyFrame@T140IdleFilter@@AAEXXZ
?deliverFromBuffer@T140IdleFilter@@AAEXXZ
?doGetNextFrame@T140IdleFilter@@EAEXXZ
?doSpecialFrameHandling@T140TextRTPSink@@MAEXIPAEIUtimeval@@I@Z
?doStopGettingFrames@T140IdleFilter@@EAEXXZ
?frameCanAppearAfterPacketStart@T140TextRTPSink@@MBE_NPBEI@Z
?handleIdleTimeout@T140IdleFilter@@AAEXXZ
?handleIdleTimeout@T140IdleFilter@@CAXPAX@Z
?onSourceClosure@T140IdleFilter@@AAEXXZ
?onSourceClosure@T140IdleFilter@@CAXPAX@Z
?reassignInputSource@FramedFilter@@QAEXPAVFramedSource@@@Z
??0AMRAudioRTPSink@@IAE@AAVUsageEnvironment@@PAVGroupsock@@E_NI@Z
??1AMRAudioRTPSink@@MAE@XZ
??_7AMRAudioRTPSink@@6B@
??_GAMRAudioRTPSink@@MAEPAXI@Z
??_R0?AVAMRAudioRTPSink@@@8
??_R1A@?0A@EA@AMRAudioRTPSink@@8
??_R2AMRAudioRTPSink@@8
??_R3AMRAudioRTPSink@@8
??_R4AMRAudioRTPSink@@6B@
?auxSDPLine@AMRAudioRTPSink@@EAEPBDXZ
?createNew@AMRAudioRTPSink@@SAPAV1@AAVUsageEnvironment@@PAVGroupsock@@E_NI@Z
?doSpecialFrameHandling@AMRAudioRTPSink@@EAEXIPAEIUtimeval@@I@Z
?frameCanAppearAfterPacketStart@AMRAudioRTPSink@@EBE_NPBEI@Z
?isFirstPacket@MultiFramedRTPSink@@IBE_NXZ
?lastFrameHeader@AMRAudioSource@@QBEEXZ
?numFramesUsedSoFar@MultiFramedRTPSink@@IBEIXZ
?sourceIsCompatibleWithUs@AMRAudioRTPSink@@EAE_NAAVMediaSource@@@Z
?specialHeaderSize@AMRAudioRTPSink@@EBEIXZ
??0SimpleRTPSink@@IAE@AAVUsageEnvironment@@PAVGroupsock@@EIPBD2I_N3@Z
??1SimpleRTPSink@@MAE@XZ
??_7SimpleRTPSink@@6B@
??_GSimpleRTPSink@@MAEPAXI@Z
??_R0?AVSimpleRTPSink@@@8
??_R1A@?0A@EA@SimpleRTPSink@@8
??_R2SimpleRTPSink@@8
??_R3SimpleRTPSink@@8
??_R4SimpleRTPSink@@6B@
?createNew@SimpleRTPSink@@SAPAV1@AAVUsageEnvironment@@PAVGroupsock@@EIPBD2I_N3@Z
?doSpecialFrameHandling@SimpleRTPSink@@MAEXIPAEIUtimeval@@I@Z
?frameCanAppearAfterPacketStart@SimpleRTPSink@@MBE_NPBEI@Z
?sdpMediaType@SimpleRTPSink@@MBEPBDXZ
??0JPEGVideoRTPSink@@IAE@AAVUsageEnvironment@@PAVGroupsock@@@Z
??1JPEGVideoRTPSink@@MAE@XZ
??_7JPEGVideoRTPSink@@6B@
??_GJPEGVideoRTPSink@@MAEPAXI@Z
??_R0?AVJPEGVideoRTPSink@@@8
??_R1A@?0A@EA@JPEGVideoRTPSink@@8
??_R2JPEGVideoRTPSink@@8
??_R3JPEGVideoRTPSink@@8
??_R4JPEGVideoRTPSink@@6B@
?createNew@JPEGVideoRTPSink@@SAPAV1@AAVUsageEnvironment@@PAVGroupsock@@@Z
?curFragmentationOffset@MultiFramedRTPSink@@IBEIXZ
?doSpecialFrameHandling@JPEGVideoRTPSink@@EAEXIPAEIUtimeval@@I@Z
?frameCanAppearAfterPacketStart@JPEGVideoRTPSink@@EBE_NPBEI@Z
?sourceIsCompatibleWithUs@JPEGVideoRTPSink@@EAE_NAAVMediaSource@@@Z
?specialHeaderSize@JPEGVideoRTPSink@@EBEIXZ
??0GSMAudioRTPSink@@IAE@AAVUsageEnvironment@@PAVGroupsock@@@Z
??1GSMAudioRTPSink@@MAE@XZ
??_7GSMAudioRTPSink@@6B@
??_GGSMAudioRTPSink@@MAEPAXI@Z
??_R0?AVGSMAudioRTPSink@@@8
??_R1A@?0A@EA@GSMAudioRTPSink@@8
??_R2GSMAudioRTPSink@@8
??_R3GSMAudioRTPSink@@8
??_R4GSMAudioRTPSink@@6B@
?createNew@GSMAudioRTPSink@@SAPAV1@AAVUsageEnvironment@@PAVGroupsock@@@Z
?frameCanAppearAfterPacketStart@GSMAudioRTPSink@@EBE_NPBEI@Z
??0VP9VideoRTPSink@@IAE@AAVUsageEnvironment@@PAVGroupsock@@E@Z
??1VP9VideoRTPSink@@MAE@XZ
??_7VP9VideoRTPSink@@6B@
??_GVP9VideoRTPSink@@MAEPAXI@Z
??_R0?AVVP9VideoRTPSink@@@8
??_R1A@?0A@EA@VP9VideoRTPSink@@8
??_R2VP9VideoRTPSink@@8
??_R3VP9VideoRTPSink@@8
??_R4VP9VideoRTPSink@@6B@
?createNew@VP9VideoRTPSink@@SAPAV1@AAVUsageEnvironment@@PAVGroupsock@@E@Z
?doSpecialFrameHandling@VP9VideoRTPSink@@EAEXIPAEIUtimeval@@I@Z
?frameCanAppearAfterPacketStart@VP9VideoRTPSink@@EBE_NPBEI@Z
?specialHeaderSize@VP9VideoRTPSink@@EBEIXZ
??0VP8VideoRTPSink@@IAE@AAVUsageEnvironment@@PAVGroupsock@@E@Z
??1VP8VideoRTPSink@@MAE@XZ
??_7VP8VideoRTPSink@@6B@
??_GVP8VideoRTPSink@@MAEPAXI@Z
??_R0?AVVP8VideoRTPSink@@@8
??_R1A@?0A@EA@VP8VideoRTPSink@@8
??_R2VP8VideoRTPSink@@8
??_R3VP8VideoRTPSink@@8
??_R4VP8VideoRTPSink@@6B@
?createNew@VP8VideoRTPSink@@SAPAV1@AAVUsageEnvironment@@PAVGroupsock@@E@Z
?doSpecialFrameHandling@VP8VideoRTPSink@@EAEXIPAEIUtimeval@@I@Z
?frameCanAppearAfterPacketStart@VP8VideoRTPSink@@EBE_NPBEI@Z
?specialHeaderSize@VP8VideoRTPSink@@EBEIXZ
??0TheoraVideoRTPSink@@IAE@AAVUsageEnvironment@@PAVGroupsock@@EPAEI2I2II@Z
??1TheoraVideoRTPSink@@MAE@XZ
??_7TheoraVideoRTPSink@@6B@
??_GTheoraVideoRTPSink@@MAEPAXI@Z
??_R0?AVTheoraVideoRTPSink@@@8
??_R1A@?0A@EA@TheoraVideoRTPSink@@8
??_R2TheoraVideoRTPSink@@8
??_R3TheoraVideoRTPSink@@8
??_R4TheoraVideoRTPSink@@6B@
?auxSDPLine@TheoraVideoRTPSink@@EAEPBDXZ
?createNew@TheoraVideoRTPSink@@SAPAV1@AAVUsageEnvironment@@PAVGroupsock@@EPAEI2I2II@Z
?createNew@TheoraVideoRTPSink@@SAPAV1@AAVUsageEnvironment@@PAVGroupsock@@EPBD@Z
?doSpecialFrameHandling@TheoraVideoRTPSink@@EAEXIPAEIUtimeval@@I@Z
?frameCanAppearAfterPacketStart@TheoraVideoRTPSink@@EBE_NPBEI@Z
?specialHeaderSize@TheoraVideoRTPSink@@EBEIXZ
??0VorbisAudioRTPSink@@IAE@AAVUsageEnvironment@@PAVGroupsock@@EIIPAEI2I2II@Z
??1VorbisAudioRTPSink@@MAE@XZ
??_7VorbisAudioRTPSink@@6B@
??_GVorbisAudioRTPSink@@MAEPAXI@Z
??_R0?AVVorbisAudioRTPSink@@@8
??_R1A@?0A@EA@VorbisAudioRTPSink@@8
??_R2VorbisAudioRTPSink@@8
??_R3VorbisAudioRTPSink@@8
??_R4VorbisAudioRTPSink@@6B@
?auxSDPLine@VorbisAudioRTPSink@@EAEPBDXZ
?createNew@VorbisAudioRTPSink@@SAPAV1@AAVUsageEnvironment@@PAVGroupsock@@EIIPAEI2I2II@Z
?createNew@VorbisAudioRTPSink@@SAPAV1@AAVUsageEnvironment@@PAVGroupsock@@EIIPBD@Z
?doSpecialFrameHandling@VorbisAudioRTPSink@@EAEXIPAEIUtimeval@@I@Z
?frameCanAppearAfterPacketStart@VorbisAudioRTPSink@@EBE_NPBEI@Z
?frameSpecificHeaderSize@VorbisAudioRTPSink@@EBEIXZ
?generateVorbisOrTheoraConfigStr@@YAPADPAEI0I0II@Z
?specialHeaderSize@VorbisAudioRTPSink@@EBEIXZ
??0AC3AudioRTPSink@@IAE@AAVUsageEnvironment@@PAVGroupsock@@EI@Z
??1AC3AudioRTPSink@@MAE@XZ
??_7AC3AudioRTPSink@@6B@
??_GAC3AudioRTPSink@@MAEPAXI@Z
??_R0?AVAC3AudioRTPSink@@@8
??_R1A@?0A@EA@AC3AudioRTPSink@@8
??_R2AC3AudioRTPSink@@8
??_R3AC3AudioRTPSink@@8
??_R4AC3AudioRTPSink@@6B@
?createNew@AC3AudioRTPSink@@SAPAV1@AAVUsageEnvironment@@PAVGroupsock@@EI@Z
?doSpecialFrameHandling@AC3AudioRTPSink@@EAEXIPAEIUtimeval@@I@Z
?frameCanAppearAfterPacketStart@AC3AudioRTPSink@@EBE_NPBEI@Z
?specialHeaderSize@AC3AudioRTPSink@@EBEIXZ
??0DVVideoRTPSink@@IAE@AAVUsageEnvironment@@PAVGroupsock@@E@Z
??1DVVideoRTPSink@@MAE@XZ
??_7DVVideoRTPSink@@6B@
??_GDVVideoRTPSink@@MAEPAXI@Z
??_R0?AVDVVideoRTPSink@@@8
??_R1A@?0A@EA@DVVideoRTPSink@@8
??_R2DVVideoRTPSink@@8
??_R3DVVideoRTPSink@@8
??_R4DVVideoRTPSink@@6B@
?auxSDPLine@DVVideoRTPSink@@EAEPBDXZ
?auxSDPLineFromFramer@DVVideoRTPSink@@QAEPBDPAVDVVideoStreamFramer@@@Z
?computeOverflowForNewFrame@DVVideoRTPSink@@EBEII@Z
?createNew@DVVideoRTPSink@@SAPAV1@AAVUsageEnvironment@@PAVGroupsock@@E@Z
?doSpecialFrameHandling@DVVideoRTPSink@@EAEXIPAEIUtimeval@@I@Z
?sourceIsCompatibleWithUs@DVVideoRTPSink@@EAE_NAAVMediaSource@@@Z
??0H265VideoRTPSink@@IAE@AAVUsageEnvironment@@PAVGroupsock@@EPBEI2I2I@Z
??1H265VideoRTPSink@@MAE@XZ
??_7H265VideoRTPSink@@6B@
??_GH265VideoRTPSink@@MAEPAXI@Z
??_R0?AVH264or5VideoRTPSink@@@8
??_R0?AVH265VideoRTPSink@@@8
??_R1A@?0A@EA@H264or5VideoRTPSink@@8
??_R1A@?0A@EA@H265VideoRTPSink@@8
??_R2H264or5VideoRTPSink@@8
??_R2H265VideoRTPSink@@8
??_R3H264or5VideoRTPSink@@8
??_R3H265VideoRTPSink@@8
??_R4H265VideoRTPSink@@6B@
?auxSDPLine@H265VideoRTPSink@@MAEPBDXZ
?createNew@H265VideoRTPSink@@SAPAV1@AAVUsageEnvironment@@PAVGroupsock@@E@Z
?createNew@H265VideoRTPSink@@SAPAV1@AAVUsageEnvironment@@PAVGroupsock@@EPBD22@Z
?createNew@H265VideoRTPSink@@SAPAV1@AAVUsageEnvironment@@PAVGroupsock@@EPBEI2I2I@Z
?getVPSandSPSandPPS@H264or5VideoStreamFramer@@QBEXAAPAEAAI0101@Z
?sourceIsCompatibleWithUs@H265VideoRTPSink@@EAE_NAAVMediaSource@@@Z
??0H264VideoRTPSink@@IAE@AAVUsageEnvironment@@PAVGroupsock@@EPBEI2I@Z
??1H264VideoRTPSink@@MAE@XZ
??_7H264VideoRTPSink@@6B@
??_GH264VideoRTPSink@@MAEPAXI@Z
??_R0?AVH264VideoRTPSink@@@8
??_R1A@?0A@EA@H264VideoRTPSink@@8
??_R2H264VideoRTPSink@@8
??_R3H264VideoRTPSink@@8
??_R4H264VideoRTPSink@@6B@
?auxSDPLine@H264VideoRTPSink@@MAEPBDXZ
?createNew@H264VideoRTPSink@@SAPAV1@AAVUsageEnvironment@@PAVGroupsock@@E@Z
?createNew@H264VideoRTPSink@@SAPAV1@AAVUsageEnvironment@@PAVGroupsock@@EPBD@Z
?createNew@H264VideoRTPSink@@SAPAV1@AAVUsageEnvironment@@PAVGroupsock@@EPBEI2I@Z
?sourceIsCompatibleWithUs@H264VideoRTPSink@@EAE_NAAVMediaSource@@@Z
??0H264or5Fragmenter@@QAE@HAAVUsageEnvironment@@PAVFramedSource@@II@Z
??0H264or5VideoRTPSink@@IAE@HAAVUsageEnvironment@@PAVGroupsock@@EPBEI2I2I@Z
??1H264or5Fragmenter@@UAE@XZ
??1H264or5VideoRTPSink@@MAE@XZ
??_7H264or5Fragmenter@@6B@
??_7H264or5VideoRTPSink@@6B@
??_GH264or5Fragmenter@@UAEPAXI@Z
??_GH264or5VideoRTPSink@@MAEPAXI@Z
??_R0?AVH264or5Fragmenter@@@8
??_R1A@?0A@EA@H264or5Fragmenter@@8
??_R2H264or5Fragmenter@@8
??_R3H264or5Fragmenter@@8
??_R4H264or5Fragmenter@@6B@
??_R4H264or5VideoRTPSink@@6B@
?afterGettingFrame1@H264or5Fragmenter@@AAEXIIUtimeval@@I@Z
?afterGettingFrame@H264or5Fragmenter@@CAXPAXIIUtimeval@@I@Z
?continuePlaying@H264or5VideoRTPSink@@EAE_NXZ
?doGetNextFrame@H264or5Fragmenter@@EAEXXZ
?doSpecialFrameHandling@H264or5VideoRTPSink@@EAEXIPAEIUtimeval@@I@Z
?doStopGettingFrames@H264or5Fragmenter@@EAEXXZ
?frameCanAppearAfterPacketStart@H264or5VideoRTPSink@@EBE_NPBEI@Z
?lastFragmentCompletedNALUnit@H264or5Fragmenter@@QBE_NXZ
?ourMaxPacketSize@MultiFramedRTPSink@@IBEIXZ
?pictureEndMarker@MPEGVideoStreamFramer@@QAEAA_NXZ
?reset@H264or5Fragmenter@@AAEXXZ
??0H263plusVideoRTPSink@@IAE@AAVUsageEnvironment@@PAVGroupsock@@EI@Z
??1H263plusVideoRTPSink@@MAE@XZ
??_7H263plusVideoRTPSink@@6B@
??_GH263plusVideoRTPSink@@MAEPAXI@Z
??_R0?AVH263plusVideoRTPSink@@@8
??_R1A@?0A@EA@H263plusVideoRTPSink@@8
??_R2H263plusVideoRTPSink@@8
??_R3H263plusVideoRTPSink@@8
??_R4H263plusVideoRTPSink@@6B@
?createNew@H263plusVideoRTPSink@@SAPAV1@AAVUsageEnvironment@@PAVGroupsock@@EI@Z
?doSpecialFrameHandling@H263plusVideoRTPSink@@EAEXIPAEIUtimeval@@I@Z
?frameCanAppearAfterPacketStart@H263plusVideoRTPSink@@EBE_NPBEI@Z
?specialHeaderSize@H263plusVideoRTPSink@@EBEIXZ
??0MPEG4ESVideoRTPSink@@IAE@AAVUsageEnvironment@@PAVGroupsock@@EIEPBD@Z
??1MPEG4ESVideoRTPSink@@MAE@XZ
??_7MPEG4ESVideoRTPSink@@6B@
??_GMPEG4ESVideoRTPSink@@MAEPAXI@Z
??_R0?AVMPEG4ESVideoRTPSink@@@8
??_R1A@?0A@EA@MPEG4ESVideoRTPSink@@8
??_R2MPEG4ESVideoRTPSink@@8
??_R3MPEG4ESVideoRTPSink@@8
??_R4MPEG4ESVideoRTPSink@@6B@
?allowFragmentationAfterStart@MPEG4ESVideoRTPSink@@MBE_NXZ
?auxSDPLine@MPEG4ESVideoRTPSink@@MAEPBDXZ
?createNew@MPEG4ESVideoRTPSink@@SAPAV1@AAVUsageEnvironment@@PAVGroupsock@@EI@Z
?createNew@MPEG4ESVideoRTPSink@@SAPAV1@AAVUsageEnvironment@@PAVGroupsock@@EIEPBD@Z
?doSpecialFrameHandling@MPEG4ESVideoRTPSink@@MAEXIPAEIUtimeval@@I@Z
?frameCanAppearAfterPacketStart@MPEG4ESVideoRTPSink@@MBE_NPBEI@Z
?profile_and_level_indication@MPEG4VideoStreamFramer@@QBEEXZ
?sourceIsCompatibleWithUs@MPEG4ESVideoRTPSink@@MAE_NAAVMediaSource@@@Z
??0MPEG4GenericRTPSink@@IAE@AAVUsageEnvironment@@PAVGroupsock@@EIPBD22I@Z
??1MPEG4GenericRTPSink@@MAE@XZ
??_7MPEG4GenericRTPSink@@6B@
??_GMPEG4GenericRTPSink@@MAEPAXI@Z
??_R0?AVMPEG4GenericRTPSink@@@8
??_R1A@?0A@EA@MPEG4GenericRTPSink@@8
??_R2MPEG4GenericRTPSink@@8
??_R3MPEG4GenericRTPSink@@8
??_R4MPEG4GenericRTPSink@@6B@
?auxSDPLine@MPEG4GenericRTPSink@@EAEPBDXZ
?createNew@MPEG4GenericRTPSink@@SAPAV1@AAVUsageEnvironment@@PAVGroupsock@@EIPBD22I@Z
?doSpecialFrameHandling@MPEG4GenericRTPSink@@EAEXIPAEIUtimeval@@I@Z
?frameCanAppearAfterPacketStart@MPEG4GenericRTPSink@@EBE_NPBEI@Z
?sdpMediaType@MPEG4GenericRTPSink@@EBEPBDXZ
?specialHeaderSize@MPEG4GenericRTPSink@@EBEIXZ
??0MPEG4LATMAudioRTPSink@@IAE@AAVUsageEnvironment@@PAVGroupsock@@EIPBDI_N@Z
??1MPEG4LATMAudioRTPSink@@MAE@XZ
??_7MPEG4LATMAudioRTPSink@@6B@
??_GMPEG4LATMAudioRTPSink@@MAEPAXI@Z
??_R0?AVMPEG4LATMAudioRTPSink@@@8
??_R1A@?0A@EA@MPEG4LATMAudioRTPSink@@8
??_R2MPEG4LATMAudioRTPSink@@8
??_R3MPEG4LATMAudioRTPSink@@8
??_R4MPEG4LATMAudioRTPSink@@6B@
?auxSDPLine@MPEG4LATMAudioRTPSink@@EAEPBDXZ
?createNew@MPEG4LATMAudioRTPSink@@SAPAV1@AAVUsageEnvironment@@PAVGroupsock@@EIPBDI_N@Z
?doSpecialFrameHandling@MPEG4LATMAudioRTPSink@@EAEXIPAEIUtimeval@@I@Z
?frameCanAppearAfterPacketStart@MPEG4LATMAudioRTPSink@@EBE_NPBEI@Z
??0MPEG1or2VideoRTPSink@@IAE@AAVUsageEnvironment@@PAVGroupsock@@@Z
??1MPEG1or2VideoRTPSink@@MAE@XZ
??_7MPEG1or2VideoRTPSink@@6B@
??_GMPEG1or2VideoRTPSink@@MAEPAXI@Z
??_R0?AVMPEG1or2VideoRTPSink@@@8
??_R1A@?0A@EA@MPEG1or2VideoRTPSink@@8
??_R2MPEG1or2VideoRTPSink@@8
??_R3MPEG1or2VideoRTPSink@@8
??_R4MPEG1or2VideoRTPSink@@6B@
?allowFragmentationAfterStart@MPEG1or2VideoRTPSink@@EBE_NXZ
?createNew@MPEG1or2VideoRTPSink@@SAPAV1@AAVUsageEnvironment@@PAVGroupsock@@@Z
?doSpecialFrameHandling@MPEG1or2VideoRTPSink@@EAEXIPAEIUtimeval@@I@Z
?frameCanAppearAfterPacketStart@MPEG1or2VideoRTPSink@@EBE_NPBEI@Z
?sourceIsCompatibleWithUs@MPEG1or2VideoRTPSink@@EAE_NAAVMediaSource@@@Z
?specialHeaderSize@MPEG1or2VideoRTPSink@@EBEIXZ
??0MP3ADURTPSink@@AAE@AAVUsageEnvironment@@PAVGroupsock@@E@Z
??1MP3ADURTPSink@@MAE@XZ
??_7MP3ADURTPSink@@6B@
??_GMP3ADURTPSink@@MAEPAXI@Z
??_R0?AVMP3ADURTPSink@@@8
??_R1A@?0A@EA@MP3ADURTPSink@@8
??_R2MP3ADURTPSink@@8
??_R3MP3ADURTPSink@@8
??_R4MP3ADURTPSink@@6B@
?createNew@MP3ADURTPSink@@SAPAV1@AAVUsageEnvironment@@PAVGroupsock@@E@Z
?doSpecialFrameHandling@MP3ADURTPSink@@EAEXIPAEIUtimeval@@I@Z
?specialHeaderSize@MP3ADURTPSink@@EBEIXZ
??0MPEG1or2AudioRTPSink@@IAE@AAVUsageEnvironment@@PAVGroupsock@@@Z
??1MPEG1or2AudioRTPSink@@MAE@XZ
??_7MPEG1or2AudioRTPSink@@6B@
??_GMPEG1or2AudioRTPSink@@MAEPAXI@Z
??_R0?AVMPEG1or2AudioRTPSink@@@8
??_R1A@?0A@EA@MPEG1or2AudioRTPSink@@8
??_R2MPEG1or2AudioRTPSink@@8
??_R3MPEG1or2AudioRTPSink@@8
??_R4MPEG1or2AudioRTPSink@@6B@
?createNew@MPEG1or2AudioRTPSink@@SAPAV1@AAVUsageEnvironment@@PAVGroupsock@@@Z
?doSpecialFrameHandling@MPEG1or2AudioRTPSink@@EAEXIPAEIUtimeval@@I@Z
?specialHeaderSize@MPEG1or2AudioRTPSink@@EBEIXZ
??0OggFileSink@@IAE@AAVUsageEnvironment@@PAU_iobuf@@IPBDI2@Z
??1OggFileSink@@MAE@XZ
??_7OggFileSink@@6B@
??_GOggFileSink@@MAEPAXI@Z
??_R0?AVFileSink@@@8
??_R0?AVOggFileSink@@@8
??_R1A@?0A@EA@FileSink@@8
??_R1A@?0A@EA@OggFileSink@@8
??_R2FileSink@@8
??_R2OggFileSink@@8
??_R3FileSink@@8
??_R3OggFileSink@@8
??_R4OggFileSink@@6B@
?addData@OggFileSink@@MAEXPBEIUtimeval@@@Z
?afterGettingFrame@OggFileSink@@MAEXIIUtimeval@@@Z
?continuePlaying@OggFileSink@@MAE_NXZ
?createNew@OggFileSink@@SAPAV1@AAVUsageEnvironment@@PBDI1I_N@Z
?ourOnSourceClosure@OggFileSink@@AAEXXZ
?ourOnSourceClosure@OggFileSink@@CAXPAX@Z
??0H265VideoFileSink@@IAE@AAVUsageEnvironment@@PAU_iobuf@@PBD22I2@Z
??1H265VideoFileSink@@MAE@XZ
??_7H265VideoFileSink@@6B@
??_GH265VideoFileSink@@MAEPAXI@Z
??_R0?AVH264or5VideoFileSink@@@8
??_R0?AVH265VideoFileSink@@@8
??_R1A@?0A@EA@H264or5VideoFileSink@@8
??_R1A@?0A@EA@H265VideoFileSink@@8
??_R2H264or5VideoFileSink@@8
??_R2H265VideoFileSink@@8
??_R3H264or5VideoFileSink@@8
??_R3H265VideoFileSink@@8
??_R4H265VideoFileSink@@6B@
?createNew@H265VideoFileSink@@SAPAV1@AAVUsageEnvironment@@PBD111I_N@Z
??0H264VideoFileSink@@IAE@AAVUsageEnvironment@@PAU_iobuf@@PBDI2@Z
??1H264VideoFileSink@@MAE@XZ
??_7H264VideoFileSink@@6B@
??_GH264VideoFileSink@@MAEPAXI@Z
??_R0?AVH264VideoFileSink@@@8
??_R1A@?0A@EA@H264VideoFileSink@@8
??_R2H264VideoFileSink@@8
??_R3H264VideoFileSink@@8
??_R4H264VideoFileSink@@6B@
?createNew@H264VideoFileSink@@SAPAV1@AAVUsageEnvironment@@PBD1I_N@Z
??0H264or5VideoFileSink@@IAE@AAVUsageEnvironment@@PAU_iobuf@@IPBD222@Z
??1H264or5VideoFileSink@@MAE@XZ
??_7H264or5VideoFileSink@@6B@
??_GH264or5VideoFileSink@@MAEPAXI@Z
??_R4H264or5VideoFileSink@@6B@
?afterGettingFrame@H264or5VideoFileSink@@MAEXIIUtimeval@@@Z
??0AMRAudioFileSink@@IAE@AAVUsageEnvironment@@PAU_iobuf@@IPBD@Z
??1AMRAudioFileSink@@MAE@XZ
??_7AMRAudioFileSink@@6B@
??_GAMRAudioFileSink@@MAEPAXI@Z
??_R0?AVAMRAudioFileSink@@@8
??_R1A@?0A@EA@AMRAudioFileSink@@8
??_R2AMRAudioFileSink@@8
??_R3AMRAudioFileSink@@8
??_R4AMRAudioFileSink@@6B@
?afterGettingFrame@AMRAudioFileSink@@MAEXIIUtimeval@@@Z
?createNew@AMRAudioFileSink@@SAPAV1@AAVUsageEnvironment@@PBDI_N@Z
?sourceIsCompatibleWithUs@AMRAudioFileSink@@MAE_NAAVMediaSource@@@Z
??0BasicUDPSink@@IAE@AAVUsageEnvironment@@PAVGroupsock@@I@Z
??1BasicUDPSink@@MAE@XZ
??_7BasicUDPSink@@6B@
??_GBasicUDPSink@@MAEPAXI@Z
??_R0?AVBasicUDPSink@@@8
??_R1A@?0A@EA@BasicUDPSink@@8
??_R2BasicUDPSink@@8
??_R3BasicUDPSink@@8
??_R4BasicUDPSink@@6B@
?afterGettingFrame1@BasicUDPSink@@AAEXIII@Z
?afterGettingFrame@BasicUDPSink@@CAXPAXIIUtimeval@@I@Z
?continuePlaying1@BasicUDPSink@@AAEXXZ
?continuePlaying@BasicUDPSink@@EAE_NXZ
?createNew@BasicUDPSink@@SAPAV1@AAVUsageEnvironment@@PAVGroupsock@@I@Z
?sendNext@BasicUDPSink@@CAXPAX@Z
??0FileSink@@IAE@AAVUsageEnvironment@@PAU_iobuf@@IPBD@Z
??1FileSink@@MAE@XZ
??_7FileSink@@6B@
??_GFileSink@@MAEPAXI@Z
??_R4FileSink@@6B@
?addData@FileSink@@UAEXPBEIUtimeval@@@Z
?afterGettingFrame@FileSink@@KAXPAXIIUtimeval@@I@Z
?afterGettingFrame@FileSink@@MAEXIIUtimeval@@@Z
?continuePlaying@FileSink@@MAE_NXZ
?createNew@FileSink@@SAPAV1@AAVUsageEnvironment@@PBDI_N@Z
??0MediaSink@@IAE@AAVUsageEnvironment@@@Z
??0OutPacketBuffer@@QAE@III@Z
??1MediaSink@@MAE@XZ
??1OutPacketBuffer@@QAE@XZ
??_7MediaSink@@6B@
??_GMediaSink@@MAEPAXI@Z
??_R4MediaSink@@6B@
?adjustPacketStart@OutPacketBuffer@@QAEXI@Z
?enqueue@OutPacketBuffer@@QAEXPBEI@Z
?enqueueWord@OutPacketBuffer@@QAEXI@Z
?extract@OutPacketBuffer@@QAEXPAEII@Z
?extractWord@OutPacketBuffer@@QAEII@Z
?insert@OutPacketBuffer@@QAEXPBEII@Z
?insertWord@OutPacketBuffer@@QAEXII@Z
?isRTPSink@MediaSink@@UBE_NXZ
?isSink@MediaSink@@EBE_NXZ
?lookupByName@MediaSink@@SA_NAAVUsageEnvironment@@PBDAAPAV1@@Z
?maxSize@OutPacketBuffer@@2IA
?onSourceClosure@MediaSink@@IAEXXZ
?onSourceClosure@MediaSink@@KAXPAX@Z
?resetPacketStart@OutPacketBuffer@@QAEXXZ
?setOverflowData@OutPacketBuffer@@QAEXIIABUtimeval@@I@Z
?skipBytes@OutPacketBuffer@@QAEXI@Z
?sourceIsCompatibleWithUs@MediaSink@@MAE_NAAVMediaSource@@@Z
?startPlaying@MediaSink@@QAE_NAAVMediaSource@@P6AXPAX@Z1@Z
?stopPlaying@MediaSink@@UAEXXZ
?useOverflowData@OutPacketBuffer@@QAEXXZ
??0StreamReplica@@IAE@AAVStreamReplicator@@@Z
??0StreamReplicator@@IAE@AAVUsageEnvironment@@PAVFramedSource@@_N@Z
??1StreamReplica@@MAE@XZ
??1StreamReplicator@@MAE@XZ
??_7StreamReplica@@6B@
??_7StreamReplicator@@6B@
??_GStreamReplica@@MAEPAXI@Z
??_GStreamReplicator@@MAEPAXI@Z
??_R0?AVStreamReplica@@@8
??_R0?AVStreamReplicator@@@8
??_R1A@?0A@EA@StreamReplica@@8
??_R1A@?0A@EA@StreamReplicator@@8
??_R2StreamReplica@@8
??_R2StreamReplicator@@8
??_R3StreamReplica@@8
??_R3StreamReplicator@@8
??_R4StreamReplica@@6B@
??_R4StreamReplicator@@6B@
?afterGettingFrame@StreamReplicator@@AAEXIIUtimeval@@I@Z
?afterGettingFrame@StreamReplicator@@CAXPAXIIUtimeval@@I@Z
?copyReceivedFrame@StreamReplica@@CAXPAV1@0@Z
?createNew@StreamReplicator@@SAPAV1@AAVUsageEnvironment@@PAVFramedSource@@_N@Z
?createStreamReplica@StreamReplicator@@QAEPAVFramedSource@@XZ
?deactivateStreamReplica@StreamReplicator@@AAEXPAVStreamReplica@@@Z
?deliverReceivedFrame@StreamReplicator@@AAEXXZ
?doGetNextFrame@StreamReplica@@EAEXXZ
?doStopGettingFrames@StreamReplica@@EAEXXZ
?getNextFrame@StreamReplicator@@AAEXPAVStreamReplica@@@Z
?onSourceClosure@StreamReplicator@@AAEXXZ
?onSourceClosure@StreamReplicator@@CAXPAX@Z
?removeStreamReplica@StreamReplicator@@AAEXPAVStreamReplica@@@Z
?CloseInputFile@@YAXPAU_iobuf@@@Z
?FileIsSeekable@@YA_NPAU_iobuf@@@Z
?GetFileSize@@YA_KPBDPAU_iobuf@@@Z
?OpenInputFile@@YAPAU_iobuf@@AAVUsageEnvironment@@PBD@Z
?SeekFile64@@YA_JPAU_iobuf@@_JH@Z
?TellFile64@@YA_JPAU_iobuf@@@Z
??0AMRAudioFileSource@@AAE@AAVUsageEnvironment@@PAU_iobuf@@_NI@Z
??1AMRAudioFileSource@@EAE@XZ
??_7AMRAudioFileSource@@6B@
??_GAMRAudioFileSource@@EAEPAXI@Z
??_R0?AVAMRAudioFileSource@@@8
??_R1A@?0A@EA@AMRAudioFileSource@@8
??_R2AMRAudioFileSource@@8
??_R3AMRAudioFileSource@@8
??_R4AMRAudioFileSource@@6B@
?createNew@AMRAudioFileSource@@SAPAV1@AAVUsageEnvironment@@PBD@Z
?doGetNextFrame@AMRAudioFileSource@@EAEXXZ
??0AMRAudioSource@@IAE@AAVUsageEnvironment@@_NI@Z
??1AMRAudioSource@@MAE@XZ
??_7AMRAudioSource@@6B@
??_GAMRAudioSource@@MAEPAXI@Z
??_R4AMRAudioSource@@6B@
?MIMEtype@AMRAudioSource@@EBEPBDXZ
?isAMRAudioSource@AMRAudioSource@@EBE_NXZ
??0JPEGVideoSource@@IAE@AAVUsageEnvironment@@@Z
??1JPEGVideoSource@@MAE@XZ
??_7JPEGVideoSource@@6B@
??_GJPEGVideoSource@@MAEPAXI@Z
??_R0?AVJPEGVideoSource@@@8
??_R1A@?0A@EA@JPEGVideoSource@@8
??_R2JPEGVideoSource@@8
??_R3JPEGVideoSource@@8
??_R4JPEGVideoSource@@6B@
?isJPEGVideoSource@JPEGVideoSource@@EBE_NXZ
?quantizationTables@JPEGVideoSource@@UAEPBEAAEAAG@Z
?restartInterval@JPEGVideoSource@@UAEGXZ
??0DVVideoRTPSource@@AAE@AAVUsageEnvironment@@PAVGroupsock@@EI@Z
??1DVVideoRTPSource@@MAE@XZ
??_7DVVideoRTPSource@@6B@
??_GDVVideoRTPSource@@MAEPAXI@Z
??_R0?AVDVVideoRTPSource@@@8
??_R1A@?0A@EA@DVVideoRTPSource@@8
??_R2DVVideoRTPSource@@8
??_R3DVVideoRTPSource@@8
??_R4DVVideoRTPSource@@6B@
?MIMEtype@DVVideoRTPSource@@EBEPBDXZ
?createNew@DVVideoRTPSource@@SAPAV1@AAVUsageEnvironment@@PAVGroupsock@@EI@Z
?processSpecialHeader@DVVideoRTPSource@@EAE_NPAVBufferedPacket@@AAI@Z
??0DVVideoStreamFramer@@IAE@AAVUsageEnvironment@@PAVFramedSource@@_N2@Z
??1DVVideoStreamFramer@@MAE@XZ
??_7DVVideoStreamFramer@@6B@
??_GDVVideoStreamFramer@@MAEPAXI@Z
??_R0?AVDVVideoStreamFramer@@@8
??_R1A@?0A@EA@DVVideoStreamFramer@@8
??_R2DVVideoStreamFramer@@8
??_R3DVVideoStreamFramer@@8
??_R4DVVideoStreamFramer@@6B@
?afterGettingFrame@DVVideoStreamFramer@@IAEXIIUtimeval@@@Z
?afterGettingFrame@DVVideoStreamFramer@@KAXPAXIIUtimeval@@I@Z
?createNew@DVVideoStreamFramer@@SAPAV1@AAVUsageEnvironment@@PAVFramedSource@@_N2@Z
?doGetNextFrame@DVVideoStreamFramer@@MAEXXZ
?getAndDeliverData@DVVideoStreamFramer@@IAEXXZ
?getFrameParameters@DVVideoStreamFramer@@QAE_NAAIAAN@Z
?getProfile@DVVideoStreamFramer@@IAEXXZ
?isDVVideoStreamFramer@DVVideoStreamFramer@@MBE_NXZ
?profileName@DVVideoStreamFramer@@QAEPBDXZ
??0AC3AudioRTPSource@@AAE@AAVUsageEnvironment@@PAVGroupsock@@EI@Z
??1AC3AudioRTPSource@@MAE@XZ
??_7AC3AudioRTPSource@@6B@
??_GAC3AudioRTPSource@@MAEPAXI@Z
??_R0?AVAC3AudioRTPSource@@@8
??_R1A@?0A@EA@AC3AudioRTPSource@@8
??_R2AC3AudioRTPSource@@8
??_R3AC3AudioRTPSource@@8
??_R4AC3AudioRTPSource@@6B@
?MIMEtype@AC3AudioRTPSource@@EBEPBDXZ
?createNew@AC3AudioRTPSource@@SAPAV1@AAVUsageEnvironment@@PAVGroupsock@@EI@Z
?processSpecialHeader@AC3AudioRTPSource@@EAE_NPAVBufferedPacket@@AAI@Z
??0AC3AudioStreamFramer@@AAE@AAVUsageEnvironment@@PAVFramedSource@@E@Z
??0AC3AudioStreamParser@@QAE@PAVAC3AudioStreamFramer@@PAVFramedSource@@@Z
??0AC3FrameParams@@QAE@XZ
??1AC3AudioStreamFramer@@EAE@XZ
??1AC3AudioStreamParser@@UAE@XZ
??_7AC3AudioStreamFramer@@6B@
??_7AC3AudioStreamParser@@6B@
??_GAC3AudioStreamFramer@@EAEPAXI@Z
??_GAC3AudioStreamParser@@UAEPAXI@Z
??_R0?AVAC3AudioStreamFramer@@@8
??_R0?AVAC3AudioStreamParser@@@8
??_R1A@?0A@EA@AC3AudioStreamFramer@@8
??_R1A@?0A@EA@AC3AudioStreamParser@@8
??_R2AC3AudioStreamFramer@@8
??_R2AC3AudioStreamParser@@8
??_R3AC3AudioStreamFramer@@8
??_R3AC3AudioStreamParser@@8
??_R4AC3AudioStreamFramer@@6B@
??_R4AC3AudioStreamParser@@6B@
?afterGettingSavedFrame1@AC3AudioStreamParser@@AAEXI@Z
?afterGettingSavedFrame@AC3AudioStreamParser@@CAXPAXIIUtimeval@@I@Z
?createNew@AC3AudioStreamFramer@@SAPAV1@AAVUsageEnvironment@@PAVFramedSource@@E@Z
?currentFrame@AC3AudioStreamParser@@QBEABVAC3FrameParams@@XZ
?currentFramePlayTime@AC3AudioStreamFramer@@ABE?AUtimeval@@XZ
?doGetNextFrame@AC3AudioStreamFramer@@EAEXXZ
?flushInput@AC3AudioStreamFramer@@QAEXXZ
?handleNewData@AC3AudioStreamFramer@@AAEXPAEI@Z
?handleNewData@AC3AudioStreamFramer@@CAXPAXPAEIUtimeval@@@Z
?haveParsedAFrame@AC3AudioStreamParser@@QBE_NXZ
?onSavedFrameClosure1@AC3AudioStreamParser@@AAEXXZ
?onSavedFrameClosure@AC3AudioStreamParser@@CAXPAX@Z
?parseFrame@AC3AudioStreamParser@@QAEIAAI@Z
?parseNextFrame@AC3AudioStreamFramer@@AAEXXZ
?readAndSaveAFrame@AC3AudioStreamParser@@QAEXXZ
?registerReadInterest@AC3AudioStreamParser@@QAEXPAEI@Z
?samplingRate@AC3AudioStreamFramer@@QAEIXZ
?setParamsFromHeader@AC3FrameParams@@QAEXXZ
?testStreamCode@AC3AudioStreamParser@@QAEXEPAEI@Z
?totNumValidBytes@StreamParser@@IAEAAIXZ
??0H263plusVideoStreamParser@@QAE@PAVH263plusVideoStreamFramer@@PAVFramedSource@@@Z
??1H263plusVideoStreamParser@@UAE@XZ
??_7H263plusVideoStreamParser@@6B@
??_GH263plusVideoStreamParser@@UAEPAXI@Z
??_R0?AVH263plusVideoStreamParser@@@8
??_R1A@?0A@EA@H263plusVideoStreamParser@@8
??_R2H263plusVideoStreamParser@@8
??_R3H263plusVideoStreamParser@@8
??_R4H263plusVideoStreamParser@@6B@
?CalculateDuration@H263plusVideoStreamParser@@AAE_KE@Z
?GetMaxBitrate@H263plusVideoStreamParser@@AAEXPAU_MaxBitrate_CTX@@IE@Z
?GetTRDifference@H263plusVideoStreamParser@@AAEEEE@Z
?GetWidthAndHeight@H263plusVideoStreamParser@@AAE_NEPAG0@Z
?ParseShortHeader@H263plusVideoStreamParser@@AAE_NPAEPAU_H263INFO@@@Z
?parse@H263plusVideoStreamParser@@QAEIAA_K@Z
?parseH263Frame@H263plusVideoStreamParser@@AAEHXZ
?registerReadInterest@H263plusVideoStreamParser@@QAEXPAEI@Z
?restoreSavedParserState@H263plusVideoStreamParser@@EAEXXZ
?setParseState@H263plusVideoStreamParser@@IAEXXZ
??0H263plusVideoStreamFramer@@IAE@AAVUsageEnvironment@@PAVFramedSource@@_N@Z
??1H263plusVideoStreamFramer@@MAE@XZ
??_7H263plusVideoStreamFramer@@6B@
??_GH263plusVideoStreamFramer@@MAEPAXI@Z
??_R0?AVH263plusVideoStreamFramer@@@8
??_R1A@?0A@EA@H263plusVideoStreamFramer@@8
??_R2H263plusVideoStreamFramer@@8
??_R3H263plusVideoStreamFramer@@8
??_R4H263plusVideoStreamFramer@@6B@
?continueReadProcessing@H263plusVideoStreamFramer@@QAEXXZ
?continueReadProcessing@H263plusVideoStreamFramer@@SAXPAXPAEIUtimeval@@@Z
?createNew@H263plusVideoStreamFramer@@SAPAV1@AAVUsageEnvironment@@PAVFramedSource@@@Z
?doGetNextFrame@H263plusVideoStreamFramer@@EAEXXZ
?isH263plusVideoStreamFramer@H263plusVideoStreamFramer@@EBE_NXZ
??0H263plusVideoRTPSource@@AAE@AAVUsageEnvironment@@PAVGroupsock@@EI@Z
??1H263plusVideoRTPSource@@MAE@XZ
??_7H263plusVideoRTPSource@@6B@
??_GH263plusVideoRTPSource@@MAEPAXI@Z
??_R0?AVH263plusVideoRTPSource@@@8
??_R1A@?0A@EA@H263plusVideoRTPSource@@8
??_R2H263plusVideoRTPSource@@8
??_R3H263plusVideoRTPSource@@8
??_R4H263plusVideoRTPSource@@6B@
?MIMEtype@H263plusVideoRTPSource@@EBEPBDXZ
?createNew@H263plusVideoRTPSource@@SAPAV1@AAVUsageEnvironment@@PAVGroupsock@@EI@Z
?processSpecialHeader@H263plusVideoRTPSource@@EAE_NPAVBufferedPacket@@AAI@Z
??0ADTSAudioFileSource@@AAE@AAVUsageEnvironment@@PAU_iobuf@@EEE@Z
??1ADTSAudioFileSource@@EAE@XZ
??_7ADTSAudioFileSource@@6B@
??_GADTSAudioFileSource@@EAEPAXI@Z
??_R0?AVADTSAudioFileSource@@@8
??_R0?AVFramedFileSource@@@8
??_R1A@?0A@EA@ADTSAudioFileSource@@8
??_R1A@?0A@EA@FramedFileSource@@8
??_R2ADTSAudioFileSource@@8
??_R2FramedFileSource@@8
??_R3ADTSAudioFileSource@@8
??_R3FramedFileSource@@8
??_R4ADTSAudioFileSource@@6B@
?createNew@ADTSAudioFileSource@@SAPAV1@AAVUsageEnvironment@@PBD@Z
?doGetNextFrame@ADTSAudioFileSource@@EAEXXZ
??0MPEG2TransportStreamFramer@@IAE@AAVUsageEnvironment@@PAVFramedSource@@@Z
??0PIDStatus@@QAE@NN@Z
??1MPEG2TransportStreamFramer@@MAE@XZ
??_7MPEG2TransportStreamFramer@@6B@
??_GMPEG2TransportStreamFramer@@MAEPAXI@Z
??_R0?AVMPEG2TransportStreamFramer@@@8
??_R1A@?0A@EA@MPEG2TransportStreamFramer@@8
??_R2MPEG2TransportStreamFramer@@8
??_R3MPEG2TransportStreamFramer@@8
??_R4MPEG2TransportStreamFramer@@6B@
?afterGettingFrame1@MPEG2TransportStreamFramer@@AAEXIUtimeval@@@Z
?afterGettingFrame@MPEG2TransportStreamFramer@@CAXPAXIIUtimeval@@I@Z
?clearPIDStatusTable@MPEG2TransportStreamFramer@@QAEXXZ
?createNew@MPEG2TransportStreamFramer@@SAPAV1@AAVUsageEnvironment@@PAVFramedSource@@@Z
?doGetNextFrame@MPEG2TransportStreamFramer@@EAEXXZ
?doStopGettingFrames@MPEG2TransportStreamFramer@@EAEXXZ
?setNumTSPacketsToStream@MPEG2TransportStreamFramer@@QAEXK@Z
?setPCRLimit@MPEG2TransportStreamFramer@@QAEXM@Z
?updateTSPacketDurationEstimate@MPEG2TransportStreamFramer@@AAE_NPAEN@Z
??0InputESSourceRecord@@QAE@AAVMPEG2TransportStreamFromESSource@@PAVFramedSource@@EHPAV0@F@Z
??0MPEG2TransportStreamFromESSource@@IAE@AAVUsageEnvironment@@@Z
??1InputESSourceRecord@@UAE@XZ
??1MPEG2TransportStreamFromESSource@@MAE@XZ
??_7InputESSourceRecord@@6B@
??_7MPEG2TransportStreamFromESSource@@6B@
??_GInputESSourceRecord@@UAEPAXI@Z
??_GMPEG2TransportStreamFromESSource@@MAEPAXI@Z
??_R0?AVInputESSourceRecord@@@8
??_R0?AVMPEG2TransportStreamFromESSource@@@8
??_R0?AVMPEG2TransportStreamMultiplexor@@@8
??_R1A@?0A@EA@InputESSourceRecord@@8
??_R1A@?0A@EA@MPEG2TransportStreamFromESSource@@8
??_R1A@?0A@EA@MPEG2TransportStreamMultiplexor@@8
??_R2InputESSourceRecord@@8
??_R2MPEG2TransportStreamFromESSource@@8
??_R2MPEG2TransportStreamMultiplexor@@8
??_R3InputESSourceRecord@@8
??_R3MPEG2TransportStreamFromESSource@@8
??_R3MPEG2TransportStreamMultiplexor@@8
??_R4InputESSourceRecord@@6B@
??_R4MPEG2TransportStreamFromESSource@@6B@
?addNewAudioSource@MPEG2TransportStreamFromESSource@@QAEXPAVFramedSource@@HF@Z
?addNewInputSource@MPEG2TransportStreamFromESSource@@IAEXPAVFramedSource@@EHF@Z
?addNewVideoSource@MPEG2TransportStreamFromESSource@@QAEXPAVFramedSource@@HF@Z
?afterGettingFrame1@InputESSourceRecord@@AAEXIIUtimeval@@@Z
?afterGettingFrame@InputESSourceRecord@@CAXPAXIIUtimeval@@I@Z
?askForNewData@InputESSourceRecord@@QAEXXZ
?awaitNewBuffer@MPEG2TransportStreamFromESSource@@EAEXPAE@Z
?buffer@InputESSourceRecord@@QBEPAEXZ
?createNew@MPEG2TransportStreamFromESSource@@SAPAV1@AAVUsageEnvironment@@@Z
?deliverBufferToClient@InputESSourceRecord@@QAE_NXZ
?doStopGettingFrames@MPEG2TransportStreamFromESSource@@EAEXXZ
?inputSource@InputESSourceRecord@@QBEPAVFramedSource@@XZ
?next@InputESSourceRecord@@QBEPAV1@XZ
?reset@InputESSourceRecord@@QAEXXZ
??0MPEG2TransportStreamFromPESSource@@IAE@AAVUsageEnvironment@@PAVMPEG1or2DemuxedElementaryStream@@@Z
??1MPEG2TransportStreamFromPESSource@@MAE@XZ
??_7MPEG2TransportStreamFromPESSource@@6B@
??_GMPEG2TransportStreamFromPESSource@@MAEPAXI@Z
??_R0?AVMPEG2TransportStreamFromPESSource@@@8
??_R1A@?0A@EA@MPEG2TransportStreamFromPESSource@@8
??_R2MPEG2TransportStreamFromPESSource@@8
??_R3MPEG2TransportStreamFromPESSource@@8
??_R4MPEG2TransportStreamFromPESSource@@6B@
?afterGettingFrame1@MPEG2TransportStreamFromPESSource@@AAEXIIUtimeval@@I@Z
?afterGettingFrame@MPEG2TransportStreamFromPESSource@@CAXPAXIIUtimeval@@I@Z
?awaitNewBuffer@MPEG2TransportStreamFromPESSource@@EAEXPAE@Z
?createNew@MPEG2TransportStreamFromPESSource@@SAPAV1@AAVUsageEnvironment@@PAVMPEG1or2DemuxedElementaryStream@@@Z
?doStopGettingFrames@MPEG2TransportStreamFromPESSource@@EAEXXZ
?lastSeenSCR@MPEG1or2DemuxedElementaryStream@@QBE?AVSCR@MPEG1or2Demux@@XZ
?mpegVersion@MPEG1or2DemuxedElementaryStream@@QBEEXZ
??0MPEG2TransportStreamMultiplexor@@IAE@AAVUsageEnvironment@@@Z
??1MPEG2TransportStreamMultiplexor@@MAE@XZ
??_7MPEG2TransportStreamMultiplexor@@6B@
??_GMPEG2TransportStreamMultiplexor@@MAEPAXI@Z
??_R4MPEG2TransportStreamMultiplexor@@6B@
?calculateCRC@@YAIPBEII@Z
?deliverDataToClient@MPEG2TransportStreamMultiplexor@@AAEXEPAEIAAI@Z
?deliverPATPacket@MPEG2TransportStreamMultiplexor@@AAEXXZ
?deliverPMTPacket@MPEG2TransportStreamMultiplexor@@AAEX_N@Z
?doGetNextFrame@MPEG2TransportStreamMultiplexor@@EAEXXZ
?handleNewBuffer@MPEG2TransportStreamMultiplexor@@IAEXPAEIHVSCR@MPEG1or2Demux@@F@Z
?setProgramStreamMap@MPEG2TransportStreamMultiplexor@@AAEXI@Z
??0MPEG1or2VideoRTPSource@@AAE@AAVUsageEnvironment@@PAVGroupsock@@EI@Z
??1MPEG1or2VideoRTPSource@@MAE@XZ
??_7MPEG1or2VideoRTPSource@@6B@
??_GMPEG1or2VideoRTPSource@@MAEPAXI@Z
??_R0?AVMPEG1or2VideoRTPSource@@@8
??_R1A@?0A@EA@MPEG1or2VideoRTPSource@@8
??_R2MPEG1or2VideoRTPSource@@8
??_R3MPEG1or2VideoRTPSource@@8
??_R4MPEG1or2VideoRTPSource@@6B@
?MIMEtype@MPEG1or2VideoRTPSource@@EBEPBDXZ
?createNew@MPEG1or2VideoRTPSource@@SAPAV1@AAVUsageEnvironment@@PAVGroupsock@@EI@Z
?packetIsUsableInJitterCalculation@MPEG1or2VideoRTPSource@@EAE_NPAEI@Z
?processSpecialHeader@MPEG1or2VideoRTPSource@@EAE_NPAVBufferedPacket@@AAI@Z
??0ADUBufferedPacket@@QAE@XZ
??0ADUBufferedPacketFactory@@QAE@XZ
??0MP3ADURTPSource@@AAE@AAVUsageEnvironment@@PAVGroupsock@@EI@Z
??1ADUBufferedPacket@@UAE@XZ
??1ADUBufferedPacketFactory@@UAE@XZ
??1MP3ADURTPSource@@MAE@XZ
??_7ADUBufferedPacket@@6B@
??_7ADUBufferedPacketFactory@@6B@
??_7MP3ADURTPSource@@6B@
??_GADUBufferedPacket@@UAEPAXI@Z
??_GADUBufferedPacketFactory@@UAEPAXI@Z
??_GMP3ADURTPSource@@MAEPAXI@Z
??_R0?AVADUBufferedPacket@@@8
??_R0?AVADUBufferedPacketFactory@@@8
??_R0?AVMP3ADURTPSource@@@8
??_R1A@?0A@EA@ADUBufferedPacket@@8
??_R1A@?0A@EA@ADUBufferedPacketFactory@@8
??_R1A@?0A@EA@MP3ADURTPSource@@8
??_R2ADUBufferedPacket@@8
??_R2ADUBufferedPacketFactory@@8
??_R2MP3ADURTPSource@@8
??_R3ADUBufferedPacket@@8
??_R3ADUBufferedPacketFactory@@8
??_R3MP3ADURTPSource@@8
??_R4ADUBufferedPacket@@6B@
??_R4ADUBufferedPacketFactory@@6B@
??_R4MP3ADURTPSource@@6B@
?MIMEtype@MP3ADURTPSource@@EBEPBDXZ
?createNew@MP3ADURTPSource@@SAPAV1@AAVUsageEnvironment@@PAVGroupsock@@EI@Z
?createNewPacket@ADUBufferedPacketFactory@@EAEPAVBufferedPacket@@PAVMultiFramedRTPSource@@@Z
?nextEnclosedFrameSize@ADUBufferedPacket@@EAEIAAPAEI@Z
?huffdec@@3PAEA
??0MP3HuffmanEncodingInfo@@QAE@_N@Z
??1MP3HuffmanEncodingInfo@@QAE@XZ
?MP3HuffmanDecode@@YAXPAUgr_info_s@MP3SideInfo@@_NPBEIIAAIAAVMP3HuffmanEncodingInfo@@@Z
?dmask@@3KA
?hs@@3IA
?totNumBits@BitVector@@QBEIXZ
?updateSideInfoForHuffman@@YAXAAUMP3SideInfo@@_NPBEIIAAI3333333@Z
??0MP3FrameParams@@QAE@XZ
??1MP3FrameParams@@QAE@XZ
?ComputeFrameSize@@YAIII_N0E@Z
?GetADUInfoFromMP3Frame@@YA_NPBEIAAI1AAUMP3SideInfo@@111@Z
?TranscodeMP3ADU@@YAIPBEIIPAEIAAI@Z
?ZeroOutMP3SideInfo@@YA_NPAEII@Z
?computeSideInfoSize@MP3FrameParams@@AAEIXZ
?get1Bit@MP3FrameParams@@QAEIXZ
?getBits@MP3FrameParams@@QAEII@Z
?getSideInfo@MP3FrameParams@@QAEXAAUMP3SideInfo@@@Z
?i_slen2@@3PAIA
?n_slen2@@3PAIA
?setBytePointer@MP3FrameParams@@QAEXPBEI@Z
?setParamsFromHeader@MP3FrameParams@@QAEXXZ
??0MP3StreamState@@QAE@AAVUsageEnvironment@@@Z
??1MP3StreamState@@UAE@XZ
??_7MP3StreamState@@6B@
??_GMP3StreamState@@UAEPAXI@Z
??_R0?AVMP3StreamState@@@8
??_R1A@?0A@EA@MP3StreamState@@8
??_R2MP3StreamState@@8
??_R3MP3StreamState@@8
??_R4MP3StreamState@@6B@
?assignStream@MP3StreamState@@QAEXPAU_iobuf@@I@Z
?checkForXingHeader@MP3StreamState@@QAEXXZ
?currentFramePlayTime@MP3StreamState@@ABE?AUtimeval@@XZ
?filePlayTime@MP3StreamState@@QBEMXZ
?findNextFrame@MP3StreamState@@AAE_NXZ
?findNextHeader@MP3StreamState@@QAEIAAUtimeval@@@Z
?fr@MP3StreamState@@AAEAAVMP3FrameParams@@XZ
?fr@MP3StreamState@@ABEABVMP3FrameParams@@XZ
?getAttributes@MP3StreamState@@QBEXPADI@Z
?getByteNumberFromPositionFraction@MP3StreamState@@QAEIM@Z
?readFrame@MP3StreamState@@QAE_NPAEIAAI1@Z
?readFromStream@MP3StreamState@@IAEIPAEI@Z
?seekWithinFile@MP3StreamState@@QAEXI@Z
??0MP3ADUTranscoder@@IAE@AAVUsageEnvironment@@IPAVFramedSource@@@Z
??1MP3ADUTranscoder@@MAE@XZ
??_7MP3ADUTranscoder@@6B@
??_GMP3ADUTranscoder@@MAEPAXI@Z
??_R0?AVMP3ADUTranscoder@@@8
??_R1A@?0A@EA@MP3ADUTranscoder@@8
??_R2MP3ADUTranscoder@@8
??_R3MP3ADUTranscoder@@8
??_R4MP3ADUTranscoder@@6B@
?afterGettingFrame1@MP3ADUTranscoder@@AAEXIIUtimeval@@I@Z
?afterGettingFrame@MP3ADUTranscoder@@CAXPAXIIUtimeval@@I@Z
?createNew@MP3ADUTranscoder@@SAPAV1@AAVUsageEnvironment@@IPAVFramedSource@@@Z
?doGetNextFrame@MP3ADUTranscoder@@EAEXXZ
?getAttributes@MP3ADUTranscoder@@EBEXXZ
?name@Medium@@QBEPBDXZ
?outBitrate@MP3ADUTranscoder@@QBEIXZ
??0DeinterleavingFrameDescriptor@@QAE@XZ
??0DeinterleavingFrames@@QAE@XZ
??0Interleaving@@QAE@ABV0@@Z
??0Interleaving@@QAE@IPBE@Z
??0InterleavingFrameDescriptor@@QAE@XZ
??0InterleavingFrames@@QAE@I@Z
??0MP3ADUdeinterleaver@@IAE@AAVUsageEnvironment@@PAVFramedSource@@@Z
??0MP3ADUinterleaver@@IAE@AAVUsageEnvironment@@ABVInterleaving@@PAVFramedSource@@@Z
??0MP3ADUinterleaverBase@@IAE@AAVUsageEnvironment@@PAVFramedSource@@@Z
??1DeinterleavingFrameDescriptor@@UAE@XZ
??1DeinterleavingFrames@@UAE@XZ
??1Interleaving@@UAE@XZ
??1InterleavingFrames@@UAE@XZ
??1MP3ADUdeinterleaver@@MAE@XZ
??1MP3ADUinterleaver@@MAE@XZ
??1MP3ADUinterleaverBase@@MAE@XZ
??_7DeinterleavingFrameDescriptor@@6B@
??_7DeinterleavingFrames@@6B@
??_7Interleaving@@6B@
??_7InterleavingFrames@@6B@
??_7MP3ADUdeinterleaver@@6B@
??_7MP3ADUinterleaver@@6B@
??_7MP3ADUinterleaverBase@@6B@
??_EDeinterleavingFrameDescriptor@@UAEPAXI@Z
??_GDeinterleavingFrames@@UAEPAXI@Z
??_GInterleaving@@UAEPAXI@Z
??_GInterleavingFrames@@UAEPAXI@Z
??_GMP3ADUdeinterleaver@@MAEPAXI@Z
??_GMP3ADUinterleaver@@MAEPAXI@Z
??_GMP3ADUinterleaverBase@@MAEPAXI@Z
??_R0?AVDeinterleavingFrameDescriptor@@@8
??_R0?AVDeinterleavingFrames@@@8
??_R0?AVInterleaving@@@8
??_R0?AVInterleavingFrames@@@8
??_R0?AVMP3ADUdeinterleaver@@@8
??_R0?AVMP3ADUinterleaver@@@8
??_R0?AVMP3ADUinterleaverBase@@@8
??_R1A@?0A@EA@DeinterleavingFrameDescriptor@@8
??_R1A@?0A@EA@DeinterleavingFrames@@8
??_R1A@?0A@EA@Interleaving@@8
??_R1A@?0A@EA@InterleavingFrames@@8
??_R1A@?0A@EA@MP3ADUdeinterleaver@@8
??_R1A@?0A@EA@MP3ADUinterleaver@@8
??_R1A@?0A@EA@MP3ADUinterleaverBase@@8
??_R2DeinterleavingFrameDescriptor@@8
??_R2DeinterleavingFrames@@8
??_R2Interleaving@@8
??_R2InterleavingFrames@@8
??_R2MP3ADUdeinterleaver@@8
??_R2MP3ADUinterleaver@@8
??_R2MP3ADUinterleaverBase@@8
??_R3DeinterleavingFrameDescriptor@@8
??_R3DeinterleavingFrames@@8
??_R3Interleaving@@8
??_R3InterleavingFrames@@8
??_R3MP3ADUdeinterleaver@@8
??_R3MP3ADUinterleaver@@8
??_R3MP3ADUinterleaverBase@@8
??_R4DeinterleavingFrameDescriptor@@6B@
??_R4DeinterleavingFrames@@6B@
??_R4Interleaving@@6B@
??_R4InterleavingFrames@@6B@
??_R4MP3ADUdeinterleaver@@6B@
??_R4MP3ADUinterleaver@@6B@
??_R4MP3ADUinterleaverBase@@6B@
?afterGettingFrame@MP3ADUdeinterleaver@@EAEXIUtimeval@@I@Z
?afterGettingFrame@MP3ADUinterleaver@@EAEXIUtimeval@@I@Z
?afterGettingFrame@MP3ADUinterleaverBase@@KAXPAXIIUtimeval@@I@Z
?createNew@MP3ADUdeinterleaver@@SAPAV1@AAVUsageEnvironment@@PAVFramedSource@@@Z
?createNew@MP3ADUinterleaver@@SAPAV1@AAVUsageEnvironment@@ABVInterleaving@@PAVFramedSource@@@Z
?cycleSize@Interleaving@@QBEIXZ
?doGetNextFrame@MP3ADUdeinterleaver@@EAEXXZ
?doGetNextFrame@MP3ADUinterleaver@@EAEXXZ
?getIncomingFrameParams@DeinterleavingFrames@@QAEXAAPAEAAI@Z
?getIncomingFrameParams@InterleavingFrames@@QAEXEAAPAEAAI@Z
?getIncomingFrameParamsAfter@DeinterleavingFrames@@QAEXIUtimeval@@IAAE1@Z
?getInputSource@MP3ADUinterleaverBase@@KAPAVFramedSource@@AAVUsageEnvironment@@PBD@Z
?getReleasingFrameParams@DeinterleavingFrames@@QAEXAAPAEAAIAAUtimeval@@1@Z
?getReleasingFrameParams@InterleavingFrames@@QAEXEAAPAEAAIAAUtimeval@@1@Z
?haveReleaseableFrame@DeinterleavingFrames@@QAE_NXZ
?haveReleaseableFrame@InterleavingFrames@@QAE_NXZ
?lookupInverseCycle@Interleaving@@QBEEE@Z
?moveIncomingFrameIntoPlace@DeinterleavingFrames@@QAEXXZ
?nextIndexToRelease@InterleavingFrames@@QAEIXZ
?releaseNext@DeinterleavingFrames@@QAEXXZ
?releaseNext@InterleavingFrames@@QAEXXZ
?releaseOutgoingFrame@MP3ADUdeinterleaver@@AAEXXZ
?releaseOutgoingFrame@MP3ADUinterleaver@@AAEXXZ
?setFrameParams@InterleavingFrames@@QAEXEEEIUtimeval@@I@Z
?startNewCycle@DeinterleavingFrames@@QAEXXZ
?computeSize@ADUdescriptor@@SAII@Z
?generateDescriptor@ADUdescriptor@@SAIAAPAEI@Z
?generateTwoByteDescriptor@ADUdescriptor@@SAXAAPAEI@Z
?getRemainingFrameSize@ADUdescriptor@@SAIAAPAE@Z
??0ADUFromMP3Source@@IAE@AAVUsageEnvironment@@PAVFramedSource@@_N@Z
??0MP3FromADUSource@@IAE@AAVUsageEnvironment@@PAVFramedSource@@_N@Z
??0SegmentQueue@@QAE@_N0@Z
??1ADUFromMP3Source@@MAE@XZ
??1MP3FromADUSource@@MAE@XZ
??_7ADUFromMP3Source@@6B@
??_7MP3FromADUSource@@6B@
??_GADUFromMP3Source@@MAEPAXI@Z
??_GMP3FromADUSource@@MAEPAXI@Z
??_R0?AVADUFromMP3Source@@@8
??_R0?AVMP3FromADUSource@@@8
??_R1A@?0A@EA@ADUFromMP3Source@@8
??_R1A@?0A@EA@MP3FromADUSource@@8
??_R2ADUFromMP3Source@@8
??_R2MP3FromADUSource@@8
??_R3ADUFromMP3Source@@8
??_R3MP3FromADUSource@@8
??_R4ADUFromMP3Source@@6B@
??_R4MP3FromADUSource@@6B@
?MIMEtype@ADUFromMP3Source@@EBEPBDXZ
?MIMEtype@MP3FromADUSource@@EBEPBDXZ
?createNew@ADUFromMP3Source@@SAPAV1@AAVUsageEnvironment@@PAVFramedSource@@_N@Z
?createNew@MP3FromADUSource@@SAPAV1@AAVUsageEnvironment@@PAVFramedSource@@_N@Z
?dataHere@Segment@@QAEIXZ
?dataStart@Segment@@QAEPAEXZ
?dequeue@SegmentQueue@@QAE_NXZ
?doGetNextFrame1@ADUFromMP3Source@@AAE_NXZ
?doGetNextFrame@ADUFromMP3Source@@EAEXXZ
?doGetNextFrame@MP3FromADUSource@@EAEXXZ
?enqueueNewSegment@SegmentQueue@@QAEXPAVFramedSource@@0@Z
?generateFrameFromHeadADU@MP3FromADUSource@@AAE_NXZ
?headIndex@SegmentQueue@@QAEIXZ
?headSegment@SegmentQueue@@QAEAAVSegment@@XZ
?headerSize@Segment@@2IB
?insertDummyADUsIfNecessary@MP3FromADUSource@@AAEXXZ
?insertDummyBeforeTail@SegmentQueue@@QAE_NI@Z
?isEmpty@SegmentQueue@@QAE_NXZ
?isEmptyOrFull@SegmentQueue@@AAE_NXZ
?isFull@SegmentQueue@@QAE_NXZ
?needToGetAnADU@MP3FromADUSource@@AAE_NXZ
?nextFreeIndex@SegmentQueue@@QAEIXZ
?nextFreeSegment@SegmentQueue@@QAEAAVSegment@@XZ
?nextIndex@SegmentQueue@@SAII@Z
?prevIndex@SegmentQueue@@SAII@Z
?reset@SegmentQueue@@QAEXXZ
?resetInput@ADUFromMP3Source@@QAEXXZ
?setScaleFactor@ADUFromMP3Source@@QAE_NH@Z
?sqAfterGettingCommon@SegmentQueue@@AAE_NAAVSegment@@I@Z
?sqAfterGettingSegment@SegmentQueue@@CAXPAXIIUtimeval@@I@Z
?totalDataSize@SegmentQueue@@QAEIXZ
??0MP3Transcoder@@IAE@AAVUsageEnvironment@@PAVMP3ADUTranscoder@@@Z
??1MP3Transcoder@@MAE@XZ
??_7MP3Transcoder@@6B@
??_GMP3Transcoder@@MAEPAXI@Z
??_R0?AVMP3Transcoder@@@8
??_R1A@?0A@EA@MP3Transcoder@@8
??_R2MP3Transcoder@@8
??_R3MP3Transcoder@@8
??_R4MP3Transcoder@@6B@
?createNew@MP3Transcoder@@SAPAV1@AAVUsageEnvironment@@IPAVFramedSource@@@Z
??0MP3FileSource@@IAE@AAVUsageEnvironment@@PAU_iobuf@@@Z
??1MP3FileSource@@MAE@XZ
??_7MP3FileSource@@6B@
??_GMP3FileSource@@MAEPAXI@Z
??_R0?AVMP3FileSource@@@8
??_R1A@?0A@EA@MP3FileSource@@8
??_R2MP3FileSource@@8
??_R3MP3FileSource@@8
??_R4MP3FileSource@@6B@
?MIMEtype@MP3FileSource@@EBEPBDXZ
?assignStream@MP3FileSource@@IAEXPAU_iobuf@@I@Z
?createNew@MP3FileSource@@SAPAV1@AAVUsageEnvironment@@PBD@Z
?doGetNextFrame1@MP3FileSource@@EAE_NXZ
?doGetNextFrame@MP3FileSource@@EAEXXZ
?filePlayTime@MP3FileSource@@QBEMXZ
?fileSize@MP3FileSource@@QBEIXZ
?fileSize@MP3StreamState@@QBEIXZ
?getAttributes@MP3FileSource@@EBEXXZ
?initializeStream@MP3FileSource@@IAE_NXZ
?seekWithinFile@MP3FileSource@@QAEXNN@Z
?setPresentationTimeScale@MP3FileSource@@QAEXI@Z
?setPresentationTimeScale@MP3StreamState@@QAEXI@Z
??0MPEG4GenericBufferedPacket@@QAE@PAVMPEG4GenericRTPSource@@@Z
??0MPEG4GenericBufferedPacketFactory@@QAE@XZ
??0MPEG4GenericRTPSource@@AAE@AAVUsageEnvironment@@PAVGroupsock@@EIPBD2III@Z
??1MPEG4GenericBufferedPacket@@UAE@XZ
??1MPEG4GenericBufferedPacketFactory@@UAE@XZ
??1MPEG4GenericRTPSource@@MAE@XZ
??_7MPEG4GenericBufferedPacket@@6B@
??_7MPEG4GenericBufferedPacketFactory@@6B@
??_7MPEG4GenericRTPSource@@6B@
??_GMPEG4GenericBufferedPacket@@UAEPAXI@Z
??_GMPEG4GenericBufferedPacketFactory@@UAEPAXI@Z
??_GMPEG4GenericRTPSource@@MAEPAXI@Z
??_R0?AVMPEG4GenericBufferedPacket@@@8
??_R0?AVMPEG4GenericBufferedPacketFactory@@@8
??_R0?AVMPEG4GenericRTPSource@@@8
??_R1A@?0A@EA@MPEG4GenericBufferedPacket@@8
??_R1A@?0A@EA@MPEG4GenericBufferedPacketFactory@@8
??_R1A@?0A@EA@MPEG4GenericRTPSource@@8
??_R2MPEG4GenericBufferedPacket@@8
??_R2MPEG4GenericBufferedPacketFactory@@8
??_R2MPEG4GenericRTPSource@@8
??_R3MPEG4GenericBufferedPacket@@8
??_R3MPEG4GenericBufferedPacketFactory@@8
??_R3MPEG4GenericRTPSource@@8
??_R4MPEG4GenericBufferedPacket@@6B@
??_R4MPEG4GenericBufferedPacketFactory@@6B@
??_R4MPEG4GenericRTPSource@@6B@
?MIMEtype@MPEG4GenericRTPSource@@EBEPBDXZ
?createNew@MPEG4GenericRTPSource@@SAPAV1@AAVUsageEnvironment@@PAVGroupsock@@EIPBD2III@Z
?createNewPacket@MPEG4GenericBufferedPacketFactory@@EAEPAVBufferedPacket@@PAVMultiFramedRTPSource@@@Z
?nextEnclosedFrameSize@MPEG4GenericBufferedPacket@@EAEIAAPAEI@Z
?processSpecialHeader@MPEG4GenericRTPSource@@EAE_NPAVBufferedPacket@@AAI@Z
?samplingFrequencyFromAudioSpecificConfig@@YAIPBD@Z
??0MPEG4ESVideoRTPSource@@AAE@AAVUsageEnvironment@@PAVGroupsock@@EI@Z
??1MPEG4ESVideoRTPSource@@MAE@XZ
??_7MPEG4ESVideoRTPSource@@6B@
??_GMPEG4ESVideoRTPSource@@MAEPAXI@Z
??_R0?AVMPEG4ESVideoRTPSource@@@8
??_R1A@?0A@EA@MPEG4ESVideoRTPSource@@8
??_R2MPEG4ESVideoRTPSource@@8
??_R3MPEG4ESVideoRTPSource@@8
??_R4MPEG4ESVideoRTPSource@@6B@
?MIMEtype@MPEG4ESVideoRTPSource@@EBEPBDXZ
?createNew@MPEG4ESVideoRTPSource@@SAPAV1@AAVUsageEnvironment@@PAVGroupsock@@EI@Z
?processSpecialHeader@MPEG4ESVideoRTPSource@@EAE_NPAVBufferedPacket@@AAI@Z
??0LATMBufferedPacket@@QAE@_N@Z
??0LATMBufferedPacketFactory@@QAE@XZ
??0MPEG4LATMAudioRTPSource@@AAE@AAVUsageEnvironment@@PAVGroupsock@@EI@Z
??1LATMBufferedPacket@@UAE@XZ
??1LATMBufferedPacketFactory@@UAE@XZ
??1MPEG4LATMAudioRTPSource@@MAE@XZ
??_7LATMBufferedPacket@@6B@
??_7LATMBufferedPacketFactory@@6B@
??_7MPEG4LATMAudioRTPSource@@6B@
??_GLATMBufferedPacket@@UAEPAXI@Z
??_GLATMBufferedPacketFactory@@UAEPAXI@Z
??_GMPEG4LATMAudioRTPSource@@MAEPAXI@Z
??_R0?AVLATMBufferedPacket@@@8
??_R0?AVLATMBufferedPacketFactory@@@8
??_R0?AVMPEG4LATMAudioRTPSource@@@8
??_R1A@?0A@EA@LATMBufferedPacket@@8
??_R1A@?0A@EA@LATMBufferedPacketFactory@@8
??_R1A@?0A@EA@MPEG4LATMAudioRTPSource@@8
??_R2LATMBufferedPacket@@8
??_R2LATMBufferedPacketFactory@@8
??_R2MPEG4LATMAudioRTPSource@@8
??_R3LATMBufferedPacket@@8
??_R3LATMBufferedPacketFactory@@8
??_R3MPEG4LATMAudioRTPSource@@8
??_R4LATMBufferedPacket@@6B@
??_R4LATMBufferedPacketFactory@@6B@
??_R4MPEG4LATMAudioRTPSource@@6B@
?MIMEtype@MPEG4LATMAudioRTPSource@@EBEPBDXZ
?createNew@MPEG4LATMAudioRTPSource@@SAPAV1@AAVUsageEnvironment@@PAVGroupsock@@EI@Z
?createNewPacket@LATMBufferedPacketFactory@@EAEPAVBufferedPacket@@PAVMultiFramedRTPSource@@@Z
?nextEnclosedFrameSize@LATMBufferedPacket@@EAEIAAPAEI@Z
?omitLATMDataLengthField@MPEG4LATMAudioRTPSource@@QAEXXZ
?parseGeneralConfigStr@@YAPAEPBDAAI@Z
?parseStreamMuxConfigStr@@YAPAEPBDAAI@Z
?parseStreamMuxConfigStr@@YA_NPBDAA_N1AAE22AAPAEAAI@Z
?processSpecialHeader@MPEG4LATMAudioRTPSource@@EAE_NPAVBufferedPacket@@AAI@Z
?returnedFrameIncludesLATMDataLengthField@MPEG4LATMAudioRTPSource@@QBE_NXZ
??0MPEG1or2AudioRTPSource@@AAE@AAVUsageEnvironment@@PAVGroupsock@@EI@Z
??1MPEG1or2AudioRTPSource@@MAE@XZ
??_7MPEG1or2AudioRTPSource@@6B@
??_GMPEG1or2AudioRTPSource@@MAEPAXI@Z
??_R0?AVMPEG1or2AudioRTPSource@@@8
??_R1A@?0A@EA@MPEG1or2AudioRTPSource@@8
??_R2MPEG1or2AudioRTPSource@@8
??_R3MPEG1or2AudioRTPSource@@8
??_R4MPEG1or2AudioRTPSource@@6B@
?MIMEtype@MPEG1or2AudioRTPSource@@EBEPBDXZ
?createNew@MPEG1or2AudioRTPSource@@SAPAV1@AAVUsageEnvironment@@PAVGroupsock@@EI@Z
?processSpecialHeader@MPEG1or2AudioRTPSource@@EAE_NPAVBufferedPacket@@AAI@Z
??0MPEG1or2AudioStreamFramer@@AAE@AAVUsageEnvironment@@PAVFramedSource@@_N@Z
??0MPEG1or2AudioStreamParser@@QAE@PAVMPEG1or2AudioStreamFramer@@PAVFramedSource@@@Z
??1MPEG1or2AudioStreamFramer@@EAE@XZ
??1MPEG1or2AudioStreamParser@@UAE@XZ
??_7MPEG1or2AudioStreamFramer@@6B@
??_7MPEG1or2AudioStreamParser@@6B@
??_GMPEG1or2AudioStreamFramer@@EAEPAXI@Z
??_GMPEG1or2AudioStreamParser@@UAEPAXI@Z
??_R0?AVMPEG1or2AudioStreamFramer@@@8
??_R0?AVMPEG1or2AudioStreamParser@@@8
??_R1A@?0A@EA@MPEG1or2AudioStreamFramer@@8
??_R1A@?0A@EA@MPEG1or2AudioStreamParser@@8
??_R2MPEG1or2AudioStreamFramer@@8
??_R2MPEG1or2AudioStreamParser@@8
??_R3MPEG1or2AudioStreamFramer@@8
??_R3MPEG1or2AudioStreamParser@@8
??_R4MPEG1or2AudioStreamFramer@@6B@
??_R4MPEG1or2AudioStreamParser@@6B@
?continueReadProcessing@MPEG1or2AudioStreamFramer@@AAEXXZ
?continueReadProcessing@MPEG1or2AudioStreamFramer@@CAXPAXPAEIUtimeval@@@Z
?createNew@MPEG1or2AudioStreamFramer@@SAPAV1@AAVUsageEnvironment@@PAVFramedSource@@_N@Z
?currentFrame@MPEG1or2AudioStreamParser@@QBEABVMP3FrameParams@@XZ
?currentFramePlayTime@MPEG1or2AudioStreamFramer@@ABE?AUtimeval@@XZ
?doGetNextFrame@MPEG1or2AudioStreamFramer@@EAEXXZ
?flushInput@MPEG1or2AudioStreamFramer@@QAEXXZ
?parse@MPEG1or2AudioStreamParser@@QAEIAAI@Z
?registerReadInterest@MPEG1or2AudioStreamParser@@QAEXPAEI@Z
?reset@MPEG1or2AudioStreamFramer@@AAEXXZ
?resetPresentationTime@MPEG1or2AudioStreamFramer@@AAEXUtimeval@@@Z
??0MPEGVideoStreamParser@@QAE@PAVMPEGVideoStreamFramer@@PAVFramedSource@@@Z
??1MPEGVideoStreamParser@@UAE@XZ
??_7MPEGVideoStreamParser@@6B@
??_GMPEGVideoStreamParser@@UAEPAXI@Z
??_R0?AVMPEGVideoStreamParser@@@8
??_R1A@?0A@EA@MPEGVideoStreamParser@@8
??_R2MPEGVideoStreamParser@@8
??_R3MPEGVideoStreamParser@@8
??_R4MPEGVideoStreamParser@@6B@
?registerReadInterest@MPEGVideoStreamParser@@QAEXPAEI@Z
?restoreSavedParserState@MPEGVideoStreamParser@@EAEXXZ
??0H265VideoStreamDiscreteFramer@@IAE@AAVUsageEnvironment@@PAVFramedSource@@@Z
??1H265VideoStreamDiscreteFramer@@MAE@XZ
??_7H265VideoStreamDiscreteFramer@@6B@
??_GH265VideoStreamDiscreteFramer@@MAEPAXI@Z
??_R0?AVH264or5VideoStreamDiscreteFramer@@@8
??_R0?AVH264or5VideoStreamFramer@@@8
??_R0?AVH265VideoStreamDiscreteFramer@@@8
??_R0?AVMPEGVideoStreamFramer@@@8
??_R1A@?0A@EA@H264or5VideoStreamDiscreteFramer@@8
??_R1A@?0A@EA@H264or5VideoStreamFramer@@8
??_R1A@?0A@EA@H265VideoStreamDiscreteFramer@@8
??_R1A@?0A@EA@MPEGVideoStreamFramer@@8
??_R2H264or5VideoStreamDiscreteFramer@@8
??_R2H264or5VideoStreamFramer@@8
??_R2H265VideoStreamDiscreteFramer@@8
??_R2MPEGVideoStreamFramer@@8
??_R3H264or5VideoStreamDiscreteFramer@@8
??_R3H264or5VideoStreamFramer@@8
??_R3H265VideoStreamDiscreteFramer@@8
??_R3MPEGVideoStreamFramer@@8
??_R4H265VideoStreamDiscreteFramer@@6B@
?createNew@H265VideoStreamDiscreteFramer@@SAPAV1@AAVUsageEnvironment@@PAVFramedSource@@@Z
?isH265VideoStreamFramer@H265VideoStreamDiscreteFramer@@EBE_NXZ
??0H265VideoStreamFramer@@IAE@AAVUsageEnvironment@@PAVFramedSource@@_N2@Z
??1H265VideoStreamFramer@@MAE@XZ
??_7H265VideoStreamFramer@@6B@
??_GH265VideoStreamFramer@@MAEPAXI@Z
??_R0?AVH265VideoStreamFramer@@@8
??_R1A@?0A@EA@H265VideoStreamFramer@@8
??_R2H265VideoStreamFramer@@8
??_R3H265VideoStreamFramer@@8
??_R4H265VideoStreamFramer@@6B@
?createNew@H265VideoStreamFramer@@SAPAV1@AAVUsageEnvironment@@PAVFramedSource@@_N@Z
?isH265VideoStreamFramer@H265VideoStreamFramer@@MBE_NXZ
??0H264VideoStreamDiscreteFramer@@IAE@AAVUsageEnvironment@@PAVFramedSource@@@Z
??1H264VideoStreamDiscreteFramer@@MAE@XZ
??_7H264VideoStreamDiscreteFramer@@6B@
??_GH264VideoStreamDiscreteFramer@@MAEPAXI@Z
??_R0?AVH264VideoStreamDiscreteFramer@@@8
??_R1A@?0A@EA@H264VideoStreamDiscreteFramer@@8
??_R2H264VideoStreamDiscreteFramer@@8
??_R3H264VideoStreamDiscreteFramer@@8
??_R4H264VideoStreamDiscreteFramer@@6B@
?createNew@H264VideoStreamDiscreteFramer@@SAPAV1@AAVUsageEnvironment@@PAVFramedSource@@@Z
?isH264VideoStreamFramer@H264VideoStreamDiscreteFramer@@EBE_NXZ
??0H264VideoStreamFramer@@IAE@AAVUsageEnvironment@@PAVFramedSource@@_N2@Z
??1H264VideoStreamFramer@@MAE@XZ
??_7H264VideoStreamFramer@@6B@
??_GH264VideoStreamFramer@@MAEPAXI@Z
??_R0?AVH264VideoStreamFramer@@@8
??_R1A@?0A@EA@H264VideoStreamFramer@@8
??_R2H264VideoStreamFramer@@8
??_R3H264VideoStreamFramer@@8
??_R4H264VideoStreamFramer@@6B@
?createNew@H264VideoStreamFramer@@SAPAV1@AAVUsageEnvironment@@PAVFramedSource@@_N@Z
?isH264VideoStreamFramer@H264VideoStreamFramer@@MBE_NXZ
??0H264or5VideoStreamDiscreteFramer@@IAE@HAAVUsageEnvironment@@PAVFramedSource@@@Z
??1H264or5VideoStreamDiscreteFramer@@MAE@XZ
??_7H264or5VideoStreamDiscreteFramer@@6B@
??_GH264or5VideoStreamDiscreteFramer@@MAEPAXI@Z
??_R4H264or5VideoStreamDiscreteFramer@@6B@
?afterGettingFrame1@H264or5VideoStreamDiscreteFramer@@IAEXIIUtimeval@@I@Z
?afterGettingFrame@H264or5VideoStreamDiscreteFramer@@KAXPAXIIUtimeval@@I@Z
?doGetNextFrame@H264or5VideoStreamDiscreteFramer@@MAEXXZ
?nalUnitEndsAccessUnit@H264or5VideoStreamDiscreteFramer@@MAE_NE@Z
??0H264or5VideoStreamFramer@@IAE@HAAVUsageEnvironment@@PAVFramedSource@@_N2@Z
??0H264or5VideoStreamParser@@QAE@HPAVH264or5VideoStreamFramer@@PAVFramedSource@@_N@Z
??1H264or5VideoStreamFramer@@MAE@XZ
??1H264or5VideoStreamParser@@UAE@XZ
??_7H264or5VideoStreamFramer@@6B@
??_7H264or5VideoStreamParser@@6B@
??_GH264or5VideoStreamFramer@@MAEPAXI@Z
??_GH264or5VideoStreamParser@@UAEPAXI@Z
??_R0?AVH264or5VideoStreamParser@@@8
??_R1A@?0A@EA@H264or5VideoStreamParser@@8
??_R2H264or5VideoStreamParser@@8
??_R3H264or5VideoStreamParser@@8
??_R4H264or5VideoStreamFramer@@6B@
??_R4H264or5VideoStreamParser@@6B@
?analyze_hrd_parameters@H264or5VideoStreamParser@@AAEXAAVBitVector@@@Z
?analyze_sei_data@H264or5VideoStreamParser@@AAEXE@Z
?analyze_sei_payload@H264or5VideoStreamParser@@AAEXIIPAE@Z
?analyze_seq_parameter_set_data@H264or5VideoStreamParser@@AAEXAAI0@Z
?analyze_video_parameter_set_data@H264or5VideoStreamParser@@AAEXAAI0@Z
?analyze_vui_parameters@H264or5VideoStreamParser@@AAEXAAVBitVector@@AAI1@Z
?curFrameSize@MPEGVideoStreamParser@@IAEIXZ
?flushInput@H264or5VideoStreamParser@@EAEXXZ
?get1BitBoolean@BitVector@@QAE_NXZ
?haveSeenEOF@StreamParser@@IBE_NXZ
?isEOF@H264or5VideoStreamParser@@AAE_NE@Z
?isPPS@H264or5VideoStreamFramer@@IAE_NE@Z
?isPPS@H264or5VideoStreamParser@@AAE_NE@Z
?isSEI@H264or5VideoStreamParser@@AAE_NE@Z
?isSPS@H264or5VideoStreamFramer@@IAE_NE@Z
?isSPS@H264or5VideoStreamParser@@AAE_NE@Z
?isVCL@H264or5VideoStreamFramer@@IAE_NE@Z
?isVCL@H264or5VideoStreamParser@@AAE_NE@Z
?isVPS@H264or5VideoStreamFramer@@IAE_NE@Z
?isVPS@H264or5VideoStreamParser@@AAE_NE@Z
?parse@H264or5VideoStreamParser@@EAEIXZ
?profile_tier_level@H264or5VideoStreamParser@@AAEXAAVBitVector@@I@Z
?removeEmulationBytes@H264or5VideoStreamParser@@AAEXPAEIAAI@Z
;?removeH264or5EmulationBytes@@YAIPAEI0I@Z
?save4Bytes@MPEGVideoStreamParser@@IAEXI@Z
?saveByte@MPEGVideoStreamParser@@IAEXE@Z
?saveCopyOfPPS@H264or5VideoStreamFramer@@IAEXPAEI@Z
?saveCopyOfSPS@H264or5VideoStreamFramer@@IAEXPAEI@Z
?saveCopyOfVPS@H264or5VideoStreamFramer@@IAEXPAEI@Z
?setParseState@MPEGVideoStreamParser@@IAEXXZ
?setPresentationTime@H264or5VideoStreamFramer@@IAEXXZ
?usingSource@H264or5VideoStreamParser@@AAEPAVH264or5VideoStreamFramer@@XZ
?usuallyBeginsAccessUnit@H264or5VideoStreamParser@@AAE_NE@Z
??0MPEG4VideoStreamDiscreteFramer@@IAE@AAVUsageEnvironment@@PAVFramedSource@@_N@Z
??1MPEG4VideoStreamDiscreteFramer@@MAE@XZ
??_7MPEG4VideoStreamDiscreteFramer@@6B@
??_GMPEG4VideoStreamDiscreteFramer@@MAEPAXI@Z
??_R0?AVMPEG4VideoStreamDiscreteFramer@@@8
??_R0?AVMPEG4VideoStreamFramer@@@8
??_R1A@?0A@EA@MPEG4VideoStreamDiscreteFramer@@8
??_R1A@?0A@EA@MPEG4VideoStreamFramer@@8
??_R2MPEG4VideoStreamDiscreteFramer@@8
??_R2MPEG4VideoStreamFramer@@8
??_R3MPEG4VideoStreamDiscreteFramer@@8
??_R3MPEG4VideoStreamFramer@@8
??_R4MPEG4VideoStreamDiscreteFramer@@6B@
?afterGettingFrame1@MPEG4VideoStreamDiscreteFramer@@IAEXIIUtimeval@@I@Z
?afterGettingFrame@MPEG4VideoStreamDiscreteFramer@@KAXPAXIIUtimeval@@I@Z
?analyzeVOLHeader@MPEG4VideoStreamDiscreteFramer@@IAEXXZ
?createNew@MPEG4VideoStreamDiscreteFramer@@SAPAV1@AAVUsageEnvironment@@PAVFramedSource@@_N@Z
?doGetNextFrame@MPEG4VideoStreamDiscreteFramer@@MAEXXZ
?getNextFrameBit@MPEG4VideoStreamDiscreteFramer@@IAE_NAAE@Z
?getNextFrameBits@MPEG4VideoStreamDiscreteFramer@@IAE_NIAAI@Z
??0MPEG4VideoStreamFramer@@IAE@AAVUsageEnvironment@@PAVFramedSource@@_N@Z
??0MPEG4VideoStreamParser@@QAE@PAVMPEG4VideoStreamFramer@@PAVFramedSource@@@Z
??1MPEG4VideoStreamFramer@@MAE@XZ
??1MPEG4VideoStreamParser@@UAE@XZ
??_7MPEG4VideoStreamFramer@@6B@
??_7MPEG4VideoStreamParser@@6B@
??_GMPEG4VideoStreamFramer@@MAEPAXI@Z
??_GMPEG4VideoStreamParser@@UAEPAXI@Z
??_R0?AVMPEG4VideoStreamParser@@@8
??_R1A@?0A@EA@MPEG4VideoStreamParser@@8
??_R2MPEG4VideoStreamParser@@8
??_R3MPEG4VideoStreamParser@@8
??_R4MPEG4VideoStreamFramer@@6B@
??_R4MPEG4VideoStreamParser@@6B@
?analyzeVOLHeader@MPEG4VideoStreamParser@@AAEXXZ
?appendToNewConfig@MPEG4VideoStreamFramer@@IAEXPAEI@Z
?completeNewConfig@MPEG4VideoStreamFramer@@IAEXXZ
?createNew@MPEG4VideoStreamFramer@@SAPAV1@AAVUsageEnvironment@@PAVFramedSource@@@Z
?flushInput@MPEG4VideoStreamParser@@EAEXXZ
?getConfigBytes@MPEG4VideoStreamFramer@@QBEPAEAAI@Z
?getNextFrameBit@MPEG4VideoStreamParser@@AAE_NAAE@Z
?getNextFrameBits@MPEG4VideoStreamParser@@AAE_NIAAI@Z
?isMPEG4VideoStreamFramer@MPEG4VideoStreamFramer@@EBE_NXZ
?parse@MPEG4VideoStreamParser@@EAEIXZ
?parseGroupOfVideoObjectPlane@MPEG4VideoStreamParser@@AAEIXZ
?parseVideoObjectLayer@MPEG4VideoStreamParser@@AAEIXZ
?parseVideoObjectPlane@MPEG4VideoStreamParser@@AAEIXZ
?parseVisualObject@MPEG4VideoStreamParser@@AAEIXZ
?parseVisualObjectSequence@MPEG4VideoStreamParser@@AAEI_N@Z
?parseVisualObjectSequenceEndCode@MPEG4VideoStreamParser@@AAEIXZ
?saveToNextCode@MPEGVideoStreamParser@@IAEXAAI@Z
?setConfigInfo@MPEG4VideoStreamFramer@@QAEXEPBD@Z
?setParseState@MPEG4VideoStreamParser@@AAEXW4MPEGParseState@@@Z
?startNewConfig@MPEG4VideoStreamFramer@@IAEXXZ
?usingSource@MPEG4VideoStreamParser@@AAEPAVMPEG4VideoStreamFramer@@XZ
??0MPEG1or2VideoStreamDiscreteFramer@@IAE@AAVUsageEnvironment@@PAVFramedSource@@_NN2@Z
??1MPEG1or2VideoStreamDiscreteFramer@@MAE@XZ
??_7MPEG1or2VideoStreamDiscreteFramer@@6B@
??_GMPEG1or2VideoStreamDiscreteFramer@@MAEPAXI@Z
??_R0?AVMPEG1or2VideoStreamDiscreteFramer@@@8
??_R0?AVMPEG1or2VideoStreamFramer@@@8
??_R1A@?0A@EA@MPEG1or2VideoStreamDiscreteFramer@@8
??_R1A@?0A@EA@MPEG1or2VideoStreamFramer@@8
??_R2MPEG1or2VideoStreamDiscreteFramer@@8
??_R2MPEG1or2VideoStreamFramer@@8
??_R3MPEG1or2VideoStreamDiscreteFramer@@8
??_R3MPEG1or2VideoStreamFramer@@8
??_R4MPEG1or2VideoStreamDiscreteFramer@@6B@
?afterGettingFrame1@MPEG1or2VideoStreamDiscreteFramer@@IAEXIIUtimeval@@I@Z
?afterGettingFrame@MPEG1or2VideoStreamDiscreteFramer@@KAXPAXIIUtimeval@@I@Z
?createNew@MPEG1or2VideoStreamDiscreteFramer@@SAPAV1@AAVUsageEnvironment@@PAVFramedSource@@_NN2@Z
?doGetNextFrame@MPEG1or2VideoStreamDiscreteFramer@@MAEXXZ
??0MPEG1or2VideoStreamFramer@@IAE@AAVUsageEnvironment@@PAVFramedSource@@_NN2@Z
??0MPEG1or2VideoStreamParser@@QAE@PAVMPEG1or2VideoStreamFramer@@PAVFramedSource@@_NN@Z
??1MPEG1or2VideoStreamFramer@@MAE@XZ
??1MPEG1or2VideoStreamParser@@UAE@XZ
??_7MPEG1or2VideoStreamFramer@@6B@
??_7MPEG1or2VideoStreamParser@@6B@
??_GMPEG1or2VideoStreamFramer@@MAEPAXI@Z
??_GMPEG1or2VideoStreamParser@@UAEPAXI@Z
??_R0?AVMPEG1or2VideoStreamParser@@@8
??_R1A@?0A@EA@MPEG1or2VideoStreamParser@@8
??_R2MPEG1or2VideoStreamParser@@8
??_R3MPEG1or2VideoStreamParser@@8
??_R4MPEG1or2VideoStreamFramer@@6B@
??_R4MPEG1or2VideoStreamParser@@6B@
?createNew@MPEG1or2VideoStreamFramer@@SAPAV1@AAVUsageEnvironment@@PAVFramedSource@@_NN@Z
?flushInput@MPEG1or2VideoStreamParser@@EAEXXZ
?getCurrentPTS@MPEG1or2VideoStreamFramer@@ABENXZ
?isMPEG1or2VideoStreamFramer@MPEG1or2VideoStreamFramer@@EBE_NXZ
?isSliceStartCode@@YA_NI@Z
?needToUseSavedVSH@MPEG1or2VideoStreamParser@@AAE_NXZ
?parse@MPEG1or2VideoStreamParser@@EAEIXZ
?parseGOPHeader@MPEG1or2VideoStreamParser@@AAEI_N@Z
?parsePictureHeader@MPEG1or2VideoStreamParser@@AAEIXZ
?parseSlice@MPEG1or2VideoStreamParser@@AAEIXZ
?parseVideoSequenceHeader@MPEG1or2VideoStreamParser@@AAEI_N@Z
?reset@MPEG1or2VideoStreamParser@@AAEXXZ
?saveCurrentVSH@MPEG1or2VideoStreamParser@@AAEXXZ
?setParseState@MPEG1or2VideoStreamParser@@AAEXW4MPEGParseState@@@Z
?skipToNextCode@MPEGVideoStreamParser@@IAEXAAI@Z
?useSavedVSH@MPEG1or2VideoStreamParser@@AAEIXZ
?usingSource@MPEG1or2VideoStreamParser@@AAEPAVMPEG1or2VideoStreamFramer@@XZ
??0MPEGVideoStreamFramer@@IAE@AAVUsageEnvironment@@PAVFramedSource@@@Z
??0TimeCode@@QAE@XZ
??1MPEGVideoStreamFramer@@MAE@XZ
??1TimeCode@@UAE@XZ
??4TimeCode@@QAEAAV0@ABV0@@Z
??8TimeCode@@QAEHABV0@@Z
??_7MPEGVideoStreamFramer@@6B@
??_7TimeCode@@6B@
??_GMPEGVideoStreamFramer@@MAEPAXI@Z
??_GTimeCode@@UAEPAXI@Z
??_R0?AVTimeCode@@@8
??_R1A@?0A@EA@TimeCode@@8
??_R2TimeCode@@8
??_R3TimeCode@@8
??_R4MPEGVideoStreamFramer@@6B@
??_R4TimeCode@@6B@
?computePresentationTime@MPEGVideoStreamFramer@@IAEXI@Z
?continueReadProcessing@MPEGVideoStreamFramer@@AAEXXZ
?continueReadProcessing@MPEGVideoStreamFramer@@CAXPAXPAEIUtimeval@@@Z
?doGetNextFrame@MPEGVideoStreamFramer@@EAEXXZ
?doStopGettingFrames@MPEGVideoStreamFramer@@EAEXXZ
?flushInput@MPEGVideoStreamFramer@@QAEXXZ
?numTruncatedBytes@MPEGVideoStreamParser@@QBEIXZ
?reset@MPEGVideoStreamFramer@@AAEXXZ
?setTimeCode@MPEGVideoStreamFramer@@IAEXIIIII@Z
??0MPEG1or2DemuxedElementaryStream@@AAE@AAVUsageEnvironment@@EAAVMPEG1or2Demux@@@Z
??1MPEG1or2DemuxedElementaryStream@@EAE@XZ
??_7MPEG1or2DemuxedElementaryStream@@6B@
??_GMPEG1or2DemuxedElementaryStream@@EAEPAXI@Z
??_R0?AVMPEG1or2DemuxedElementaryStream@@@8
??_R1A@?0A@EA@MPEG1or2DemuxedElementaryStream@@8
??_R2MPEG1or2DemuxedElementaryStream@@8
??_R3MPEG1or2DemuxedElementaryStream@@8
??_R4MPEG1or2DemuxedElementaryStream@@6B@
?MIMEtype@MPEG1or2DemuxedElementaryStream@@EBEPBDXZ
?afterGettingFrame1@MPEG1or2DemuxedElementaryStream@@AAEXIIUtimeval@@I@Z
?afterGettingFrame@MPEG1or2DemuxedElementaryStream@@CAXPAXIIUtimeval@@I@Z
?doGetNextFrame@MPEG1or2DemuxedElementaryStream@@EAEXXZ
?doStopGettingFrames@MPEG1or2DemuxedElementaryStream@@EAEXXZ
?maxFrameSize@MPEG1or2DemuxedElementaryStream@@EBEIXZ
?mpegVersion@MPEG1or2Demux@@QBEEXZ
??0MPEG1or2Demux@@AAE@AAVUsageEnvironment@@PAVFramedSource@@_N@Z
??0MPEGProgramStreamParser@@QAE@PAVMPEG1or2Demux@@PAVFramedSource@@@Z
??0SCR@MPEG1or2Demux@@QAE@XZ
??0SavedData@OutputDescriptor@MPEG1or2Demux@@QAE@PAEI@Z
??1MPEG1or2Demux@@EAE@XZ
??1MPEGProgramStreamParser@@UAE@XZ
??1SavedData@OutputDescriptor@MPEG1or2Demux@@UAE@XZ
??_7MPEG1or2Demux@@6B@
??_7MPEGProgramStreamParser@@6B@
??_7SavedData@OutputDescriptor@MPEG1or2Demux@@6B@
??_GMPEG1or2Demux@@EAEPAXI@Z
??_GMPEGProgramStreamParser@@UAEPAXI@Z
??_GSavedData@OutputDescriptor@MPEG1or2Demux@@UAEPAXI@Z
??_R0?AVMPEG1or2Demux@@@8
??_R0?AVMPEGProgramStreamParser@@@8
??_R0?AVSavedData@OutputDescriptor@MPEG1or2Demux@@@8
??_R1A@?0A@EA@MPEG1or2Demux@@8
??_R1A@?0A@EA@MPEGProgramStreamParser@@8
??_R1A@?0A@EA@SavedData@OutputDescriptor@MPEG1or2Demux@@8
??_R2MPEG1or2Demux@@8
??_R2MPEGProgramStreamParser@@8
??_R2SavedData@OutputDescriptor@MPEG1or2Demux@@8
??_R3MPEG1or2Demux@@8
??_R3MPEGProgramStreamParser@@8
??_R3SavedData@OutputDescriptor@MPEG1or2Demux@@8
??_R4MPEG1or2Demux@@6B@
??_R4MPEGProgramStreamParser@@6B@
??_R4SavedData@OutputDescriptor@MPEG1or2Demux@@6B@
?continueReadProcessing@MPEG1or2Demux@@AAEXXZ
?continueReadProcessing@MPEG1or2Demux@@CAXPAXPAEIUtimeval@@@Z
?createNew@MPEG1or2Demux@@SAPAV1@AAVUsageEnvironment@@PAVFramedSource@@_N@Z
?flushInput@MPEG1or2Demux@@QAEXXZ
?get2Bytes@StreamParser@@IAEGXZ
?getNextFrame@MPEG1or2Demux@@QAEXEPAEIP6AXPAXIIUtimeval@@I@Z1P6AX1@Z1@Z
?handleClosure@MPEG1or2Demux@@SAXPAX@Z
?isSpecialStreamId@MPEGProgramStreamParser@@ABE_NE@Z
?newAudioStream@MPEG1or2Demux@@QAEPAVMPEG1or2DemuxedElementaryStream@@XZ
?newElementaryStream@MPEG1or2Demux@@QAEPAVMPEG1or2DemuxedElementaryStream@@E@Z
?newRawPESStream@MPEG1or2Demux@@QAEPAVMPEG1or2DemuxedElementaryStream@@XZ
?newVideoStream@MPEG1or2Demux@@QAEPAVMPEG1or2DemuxedElementaryStream@@XZ
?noteElementaryStreamDeletion@MPEG1or2Demux@@AAEXPAVMPEG1or2DemuxedElementaryStream@@@Z
?parse@MPEGProgramStreamParser@@QAEEXZ
?parsePESPacket@MPEGProgramStreamParser@@AAEEXZ
?parsePackHeader@MPEGProgramStreamParser@@AAEXXZ
?parseSystemHeader@MPEGProgramStreamParser@@AAEXXZ
?registerReadInterest@MPEG1or2Demux@@AAEXEPAEIP6AXPAXIIUtimeval@@I@Z1P6AX1@Z1@Z
?setParseState@MPEGProgramStreamParser@@AAEXW4MPEGParseState@@@Z
?stopGettingFrames@MPEG1or2Demux@@QAEXE@Z
?useSavedData@MPEG1or2Demux@@AAE_NEPAEIP6AXPAXIIUtimeval@@I@Z1@Z
??0WAVAudioFileSource@@IAE@AAVUsageEnvironment@@PAU_iobuf@@@Z
??1WAVAudioFileSource@@MAE@XZ
??_7WAVAudioFileSource@@6B@
??_GWAVAudioFileSource@@MAEPAXI@Z
??_R0?AVAudioInputDevice@@@8
??_R0?AVWAVAudioFileSource@@@8
??_R1A@?0A@EA@AudioInputDevice@@8
??_R1A@?0A@EA@WAVAudioFileSource@@8
??_R2AudioInputDevice@@8
??_R2WAVAudioFileSource@@8
??_R3AudioInputDevice@@8
??_R3WAVAudioFileSource@@8
??_R4WAVAudioFileSource@@6B@
?createNew@WAVAudioFileSource@@SAPAV1@AAVUsageEnvironment@@PBD@Z
?doGetNextFrame@WAVAudioFileSource@@EAEXXZ
?doReadFromFile@WAVAudioFileSource@@IAEXXZ
?doStopGettingFrames@WAVAudioFileSource@@EAEXXZ
?fileReadableHandler@WAVAudioFileSource@@KAXPAV1@H@Z
?getAudioFormat@WAVAudioFileSource@@QAEEXZ
?getAverageLevel@WAVAudioFileSource@@EBENXZ
?limitNumBytesToStream@WAVAudioFileSource@@QAEXI@Z
?numPCMBytes@WAVAudioFileSource@@QBEIXZ
?seekToPCMByte@WAVAudioFileSource@@QAEXI@Z
?setInputPort@WAVAudioFileSource@@EAE_NH@Z
?setScaleFactor@WAVAudioFileSource@@QAEXH@Z
??0AudioInputDevice@@IAE@AAVUsageEnvironment@@EEII@Z
??0AudioPortNames@@QAE@XZ
??1AudioInputDevice@@MAE@XZ
??1AudioPortNames@@UAE@XZ
??_7AudioInputDevice@@6B@
??_7AudioPortNames@@6B@
??_GAudioInputDevice@@MAEPAXI@Z
??_GAudioPortNames@@UAEPAXI@Z
??_R0?AVAudioPortNames@@@8
??_R1A@?0A@EA@AudioPortNames@@8
??_R2AudioPortNames@@8
??_R3AudioPortNames@@8
??_R4AudioInputDevice@@6B@
??_R4AudioPortNames@@6B@
?allowedDeviceNames@AudioInputDevice@@2PAPADA
??0DeviceSource@@IAE@AAVUsageEnvironment@@VDeviceParameters@@@Z
??1DeviceSource@@MAE@XZ
??_7DeviceSource@@6B@
??_GDeviceSource@@MAEPAXI@Z
??_R0?AVDeviceSource@@@8
??_R1A@?0A@EA@DeviceSource@@8
??_R2DeviceSource@@8
??_R3DeviceSource@@8
??_R4DeviceSource@@6B@
?createNew@DeviceSource@@SAPAV1@AAVUsageEnvironment@@VDeviceParameters@@@Z
?deliverFrame0@DeviceSource@@CAXPAX@Z
?deliverFrame@DeviceSource@@AAEXXZ
?doGetNextFrame@DeviceSource@@EAEXXZ
?eventTriggerId@DeviceSource@@2IA
?referenceCount@DeviceSource@@0IA
?signalNewFrameData@@YAXXZ
??0BasicUDPSource@@AAE@AAVUsageEnvironment@@PAVGroupsock@@@Z
??1BasicUDPSource@@UAE@XZ
??_7BasicUDPSource@@6B@
??_GBasicUDPSource@@UAEPAXI@Z
??_R0?AVBasicUDPSource@@@8
??_R1A@?0A@EA@BasicUDPSource@@8
??_R2BasicUDPSource@@8
??_R3BasicUDPSource@@8
??_R4BasicUDPSource@@6B@
?createNew@BasicUDPSource@@SAPAV1@AAVUsageEnvironment@@PAVGroupsock@@@Z
?doGetNextFrame@BasicUDPSource@@EAEXXZ
?doStopGettingFrames@BasicUDPSource@@EAEXXZ
?incomingPacketHandler1@BasicUDPSource@@AAEXXZ
?incomingPacketHandler@BasicUDPSource@@CAXPAV1@H@Z
??0ByteStreamMemoryBufferSource@@IAE@AAVUsageEnvironment@@PAE_K_NII@Z
??1ByteStreamMemoryBufferSource@@MAE@XZ
??_7ByteStreamMemoryBufferSource@@6B@
??_GByteStreamMemoryBufferSource@@MAEPAXI@Z
??_R0?AVByteStreamMemoryBufferSource@@@8
??_R1A@?0A@EA@ByteStreamMemoryBufferSource@@8
??_R2ByteStreamMemoryBufferSource@@8
??_R3ByteStreamMemoryBufferSource@@8
??_R4ByteStreamMemoryBufferSource@@6B@
?createNew@ByteStreamMemoryBufferSource@@SAPAV1@AAVUsageEnvironment@@PAE_K_NII@Z
?doGetNextFrame@ByteStreamMemoryBufferSource@@EAEXXZ
?seekToByteAbsolute@ByteStreamMemoryBufferSource@@QAEX_K0@Z
?seekToByteRelative@ByteStreamMemoryBufferSource@@QAEX_J_K@Z
??0ByteStreamMultiFileSource@@IAE@AAVUsageEnvironment@@PAPBDII@Z
??1ByteStreamMultiFileSource@@MAE@XZ
??_7ByteStreamMultiFileSource@@6B@
??_GByteStreamMultiFileSource@@MAEPAXI@Z
??_R0?AVByteStreamMultiFileSource@@@8
??_R1A@?0A@EA@ByteStreamMultiFileSource@@8
??_R2ByteStreamMultiFileSource@@8
??_R3ByteStreamMultiFileSource@@8
??_R4ByteStreamMultiFileSource@@6B@
?afterGettingFrame@ByteStreamMultiFileSource@@CAXPAXIIUtimeval@@I@Z
?createNew@ByteStreamMultiFileSource@@SAPAV1@AAVUsageEnvironment@@PAPBDII@Z
?doGetNextFrame@ByteStreamMultiFileSource@@EAEXXZ
?onSourceClosure1@ByteStreamMultiFileSource@@AAEXXZ
?onSourceClosure@ByteStreamMultiFileSource@@CAXPAX@Z
??0ByteStreamFileSource@@IAE@AAVUsageEnvironment@@PAU_iobuf@@II@Z
??1ByteStreamFileSource@@MAE@XZ
??_7ByteStreamFileSource@@6B@
??_GByteStreamFileSource@@MAEPAXI@Z
??_R0?AVByteStreamFileSource@@@8
??_R1A@?0A@EA@ByteStreamFileSource@@8
??_R2ByteStreamFileSource@@8
??_R3ByteStreamFileSource@@8
??_R4ByteStreamFileSource@@6B@
?createNew@ByteStreamFileSource@@SAPAV1@AAVUsageEnvironment@@PAU_iobuf@@II@Z
?createNew@ByteStreamFileSource@@SAPAV1@AAVUsageEnvironment@@PBDII@Z
?doGetNextFrame@ByteStreamFileSource@@EAEXXZ
?doReadFromFile@ByteStreamFileSource@@IAEXXZ
?doStopGettingFrames@ByteStreamFileSource@@EAEXXZ
?fileReadableHandler@ByteStreamFileSource@@KAXPAV1@H@Z
?seekToByteAbsolute@ByteStreamFileSource@@QAEX_K0@Z
?seekToByteRelative@ByteStreamFileSource@@QAEX_J_K@Z
?seekToEnd@ByteStreamFileSource@@QAEXXZ
??0FramedFilter@@IAE@AAVUsageEnvironment@@PAVFramedSource@@@Z
??1FramedFilter@@MAE@XZ
??_7FramedFilter@@6B@
??_GFramedFilter@@MAEPAXI@Z
??_R4FramedFilter@@6B@
?MIMEtype@FramedFilter@@MBEPBDXZ
?detachInputSource@FramedFilter@@QAEXXZ
?doStopGettingFrames@FramedFilter@@MAEXXZ
?getAttributes@FramedFilter@@MBEXXZ
??0FramedFileSource@@IAE@AAVUsageEnvironment@@PAU_iobuf@@@Z
??1FramedFileSource@@MAE@XZ
??_7FramedFileSource@@6B@
??_GFramedFileSource@@MAEPAXI@Z
??_R4FramedFileSource@@6B@
??0FramedSource@@IAE@AAVUsageEnvironment@@@Z
??1FramedSource@@MAE@XZ
??_7FramedSource@@6B@
??_GFramedSource@@MAEPAXI@Z
??_R4FramedSource@@6B@
?afterGetting@FramedSource@@SAXPAV1@@Z
?doStopGettingFrames@FramedSource@@MAEXXZ
?getNextFrame@FramedSource@@QAEXPAEIP6AXPAXIIUtimeval@@I@Z1P6AX1@Z1@Z
?handleClosure@FramedSource@@QAEXXZ
?handleClosure@FramedSource@@SAXPAX@Z
?isFramedSource@FramedSource@@EBE_NXZ
?lookupByName@FramedSource@@SA_NAAVUsageEnvironment@@PBDAAPAV1@@Z
?maxFrameSize@FramedSource@@UBEIXZ
?stopGettingFrames@FramedSource@@QAEXXZ
??0MediaSource@@IAE@AAVUsageEnvironment@@@Z
??1MediaSource@@MAE@XZ
??_7MediaSource@@6B@
??_GMediaSource@@MAEPAXI@Z
??_R4MediaSource@@6B@
?MIMEtype@MediaSource@@UBEPBDXZ
?getAttributes@MediaSource@@UBEXXZ
?isAMRAudioSource@MediaSource@@UBE_NXZ
?isDVVideoStreamFramer@MediaSource@@UBE_NXZ
?isFramedSource@MediaSource@@UBE_NXZ
?isH264VideoStreamFramer@MediaSource@@UBE_NXZ
?isH265VideoStreamFramer@MediaSource@@UBE_NXZ
?isJPEGVideoSource@MediaSource@@UBE_NXZ
?isMPEG1or2VideoStreamFramer@MediaSource@@UBE_NXZ
?isMPEG4VideoStreamFramer@MediaSource@@UBE_NXZ
?isRTPSource@MediaSource@@UBE_NXZ
?isSource@MediaSource@@EBE_NXZ
?lookupByName@MediaSource@@SA_NAAVUsageEnvironment@@PBDAAPAV1@@Z
??0MediaLookupTable@@IAE@AAVUsageEnvironment@@@Z
??0Medium@@IAE@AAVUsageEnvironment@@@Z
??0_Tables@@IAE@AAVUsageEnvironment@@@Z
??1MediaLookupTable@@MAE@XZ
??1Medium@@MAE@XZ
??1_Tables@@MAE@XZ
??_7MediaLookupTable@@6B@
??_7Medium@@6B@
??_7_Tables@@6B@
??_GMediaLookupTable@@MAEPAXI@Z
??_GMedium@@MAEPAXI@Z
??_G_Tables@@MAEPAXI@Z
??_R0?AVMediaLookupTable@@@8
??_R0?AV_Tables@@@8
??_R1A@?0A@EA@MediaLookupTable@@8
??_R1A@?0A@EA@_Tables@@8
??_R2MediaLookupTable@@8
??_R2_Tables@@8
??_R3MediaLookupTable@@8
??_R3_Tables@@8
??_R4MediaLookupTable@@6B@
??_R4Medium@@6B@
??_R4_Tables@@6B@
?addNew@MediaLookupTable@@AAEXPAVMedium@@PAD@Z
?close@Medium@@SAXAAVUsageEnvironment@@PBD@Z
?close@Medium@@SAXPAV1@@Z
?generateNewName@MediaLookupTable@@AAEXPADI@Z
?getOurTables@_Tables@@SAPAV1@AAVUsageEnvironment@@_N@Z
?isMediaSession@Medium@@UBE_NXZ
?isRTCPInstance@Medium@@UBE_NXZ
?isRTSPClient@Medium@@UBE_NXZ
?isRTSPServer@Medium@@UBE_NXZ
?isServerMediaSession@Medium@@UBE_NXZ
?isSink@Medium@@UBE_NXZ
?isSource@Medium@@UBE_NXZ
?lookup@MediaLookupTable@@ABEPAVMedium@@PBD@Z
?lookupByName@Medium@@SA_NAAVUsageEnvironment@@PBDAAPAV1@@Z
?ourMedia@MediaLookupTable@@SAPAV1@AAVUsageEnvironment@@@Z
?reclaimIfPossible@_Tables@@QAEXXZ
?remove@MediaLookupTable@@AAEXPBD@Z
?env@Socket@@QBEAAVUsageEnvironment@@XZ
?socketReadHandler@@YAXPAVSocket@@H@Z
??0AddressPortLookupTable@@QAE@XZ
??0AddressString@@QAE@ABUin_addr@@@Z
??0AddressString@@QAE@ABUsockaddr_in@@@Z
??0AddressString@@QAE@I@Z
??0Iterator@AddressPortLookupTable@@QAE@AAV1@@Z
??0Iterator@NetAddressList@@QAE@ABV1@@Z
??0NetAddress@@QAE@ABV0@@Z
??0NetAddress@@QAE@I@Z
??0NetAddress@@QAE@PBEI@Z
??0NetAddressList@@QAE@ABV0@@Z
??0NetAddressList@@QAE@PBD@Z
??0Port@@QAE@G@Z
??1AddressPortLookupTable@@UAE@XZ
??1AddressString@@UAE@XZ
??1Iterator@AddressPortLookupTable@@UAE@XZ
??1NetAddress@@UAE@XZ
??1NetAddressList@@UAE@XZ
??4NetAddress@@QAEAAV0@ABV0@@Z
??4NetAddressList@@QAEAAV0@ABV0@@Z
??6@YAAAVUsageEnvironment@@AAV0@ABVPort@@@Z
??_7AddressPortLookupTable@@6B@
??_7AddressString@@6B@
??_7Iterator@AddressPortLookupTable@@6B@
??_7NetAddress@@6B@
??_7NetAddressList@@6B@
??_GAddressPortLookupTable@@UAEPAXI@Z
??_GAddressString@@UAEPAXI@Z
??_GIterator@AddressPortLookupTable@@UAEPAXI@Z
??_GNetAddress@@UAEPAXI@Z
??_GNetAddressList@@UAEPAXI@Z
??_R0?AVAddressPortLookupTable@@@8
??_R0?AVAddressString@@@8
??_R0?AVIterator@AddressPortLookupTable@@@8
??_R0?AVNetAddress@@@8
??_R0?AVNetAddressList@@@8
??_R1A@?0A@EA@AddressPortLookupTable@@8
??_R1A@?0A@EA@AddressString@@8
??_R1A@?0A@EA@Iterator@AddressPortLookupTable@@8
??_R1A@?0A@EA@NetAddress@@8
??_R1A@?0A@EA@NetAddressList@@8
??_R2AddressPortLookupTable@@8
??_R2AddressString@@8
??_R2Iterator@AddressPortLookupTable@@8
??_R2NetAddress@@8
??_R2NetAddressList@@8
??_R3AddressPortLookupTable@@8
??_R3AddressString@@8
??_R3Iterator@AddressPortLookupTable@@8
??_R3NetAddress@@8
??_R3NetAddressList@@8
??_R4AddressPortLookupTable@@6B@
??_R4AddressString@@6B@
??_R4Iterator@AddressPortLookupTable@@6B@
??_R4NetAddress@@6B@
??_R4NetAddressList@@6B@
?Add@AddressPortLookupTable@@QAEPAXIIVPort@@PAX@Z
?IsMulticastAddress@@YA_NI@Z
?Lookup@AddressPortLookupTable@@QAEPAXIIVPort@@@Z
?Remove@AddressPortLookupTable@@QAE_NIIVPort@@@Z
?assign@NetAddress@@AAEXPBEI@Z
?assign@NetAddressList@@AAEXIPAPAVNetAddress@@@Z
?clean@NetAddress@@AAEXXZ
?clean@NetAddressList@@AAEXXZ
?firstAddress@NetAddressList@@QBEPBVNetAddress@@XZ
?init@AddressString@@AAEXI@Z
?length@NetAddress@@QBEIXZ
?next@Iterator@AddressPortLookupTable@@QAEPAXXZ
?nextAddress@Iterator@NetAddressList@@QAEPBVNetAddress@@XZ
??0DirectedNetInterface@@IAE@XZ
??0DirectedNetInterfaceSet@@QAE@XZ
??0Iterator@DirectedNetInterfaceSet@@QAE@AAV1@@Z
??0NetInterface@@IAE@XZ
??0NetInterfaceTrafficStats@@QAE@XZ
??0Socket@@IAE@AAVUsageEnvironment@@VPort@@@Z
??0SocketLookupTable@@IAE@XZ
??1DirectedNetInterface@@UAE@XZ
??1DirectedNetInterfaceSet@@UAE@XZ
??1Iterator@DirectedNetInterfaceSet@@UAE@XZ
??1NetInterface@@UAE@XZ
??1Socket@@UAE@XZ
??1SocketLookupTable@@UAE@XZ
??6@YAAAVUsageEnvironment@@AAV0@ABVSocket@@@Z
??_7DirectedNetInterface@@6B@
??_7DirectedNetInterfaceSet@@6B@
??_7Iterator@DirectedNetInterfaceSet@@6B@
??_7NetInterface@@6B@
??_7Socket@@6B@
??_7SocketLookupTable@@6B@
??_GDirectedNetInterface@@UAEPAXI@Z
??_GDirectedNetInterfaceSet@@UAEPAXI@Z
??_GIterator@DirectedNetInterfaceSet@@UAEPAXI@Z
??_GNetInterface@@UAEPAXI@Z
??_GSocket@@UAEPAXI@Z
??_GSocketLookupTable@@UAEPAXI@Z
??_R0?AVDirectedNetInterface@@@8
??_R0?AVDirectedNetInterfaceSet@@@8
??_R0?AVIterator@DirectedNetInterfaceSet@@@8
??_R0?AVNetInterface@@@8
??_R0?AVSocket@@@8
??_R0?AVSocketLookupTable@@@8
??_R1A@?0A@EA@DirectedNetInterface@@8
??_R1A@?0A@EA@DirectedNetInterfaceSet@@8
??_R1A@?0A@EA@Iterator@DirectedNetInterfaceSet@@8
??_R1A@?0A@EA@NetInterface@@8
??_R1A@?0A@EA@Socket@@8
??_R1A@?0A@EA@SocketLookupTable@@8
??_R2DirectedNetInterface@@8
??_R2DirectedNetInterfaceSet@@8
??_R2Iterator@DirectedNetInterfaceSet@@8
??_R2NetInterface@@8
??_R2Socket@@8
??_R2SocketLookupTable@@8
??_R3DirectedNetInterface@@8
??_R3DirectedNetInterfaceSet@@8
??_R3Iterator@DirectedNetInterfaceSet@@8
??_R3NetInterface@@8
??_R3Socket@@8
??_R3SocketLookupTable@@8
??_R4DirectedNetInterface@@6B@
??_R4DirectedNetInterfaceSet@@6B@
??_R4Iterator@DirectedNetInterfaceSet@@6B@
??_R4NetInterface@@6B@
??_R4Socket@@6B@
??_R4SocketLookupTable@@6B@
?Add@DirectedNetInterfaceSet@@QAEPAVDirectedNetInterface@@PBV2@@Z
?DebugLevel@Socket@@2HA
?DefaultUsageEnvironment@NetInterface@@2PAVUsageEnvironment@@A
?Fetch@SocketLookupTable@@QAEPAVSocket@@AAVUsageEnvironment@@VPort@@AA_N@Z
?Remove@DirectedNetInterfaceSet@@QAE_NPBVDirectedNetInterface@@@Z
?Remove@SocketLookupTable@@QAE_NPBVSocket@@@Z
?__empty_global_delete@@YAXPAX@Z
?__empty_global_delete@@YAXPAXI@Z
?changePort@Socket@@IAE_NVPort@@@Z
?countPacket@NetInterfaceTrafficStats@@QAEXI@Z
?haveSeenTraffic@NetInterfaceTrafficStats@@QBE_NXZ
?next@Iterator@DirectedNetInterfaceSet@@QAEPAVDirectedNetInterface@@XZ
?reset@Socket@@QAEXXZ
??0Groupsock@@QAE@AAVUsageEnvironment@@ABUin_addr@@1VPort@@@Z
??0Groupsock@@QAE@AAVUsageEnvironment@@ABUin_addr@@VPort@@E@Z
??0Iterator@GroupsockLookupTable@@QAE@AAV1@@Z
??0OutputSocket@@IAE@AAVUsageEnvironment@@VPort@@@Z
??0OutputSocket@@QAE@AAVUsageEnvironment@@@Z
??0destRecord@@QAE@ABUin_addr@@ABVPort@@EIPAV0@@Z
??1Groupsock@@UAE@XZ
??1OutputSocket@@UAE@XZ
??1destRecord@@UAE@XZ
??6@YAAAVUsageEnvironment@@AAV0@ABVGroupsock@@@Z
??_7Groupsock@@6B@
??_7OutputSocket@@6B@
??_7destRecord@@6B@
??_GGroupsock@@UAEPAXI@Z
??_GOutputSocket@@UAEPAXI@Z
??_GdestRecord@@UAEPAXI@Z
??_R0?AVGroupsock@@@8
??_R0?AVOutputSocket@@@8
??_R0?AVdestRecord@@@8
??_R1A@?0A@EA@Groupsock@@8
??_R1A@?0A@EA@OutputSocket@@8
??_R1A@?0A@EA@destRecord@@8
??_R2Groupsock@@8
??_R2OutputSocket@@8
??_R2destRecord@@8
??_R3Groupsock@@8
??_R3OutputSocket@@8
??_R3destRecord@@8
??_R4Groupsock@@6B@
??_R4OutputSocket@@6B@
??_R4destRecord@@6B@
?AddNew@GroupsockLookupTable@@AAEPAVGroupsock@@AAVUsageEnvironment@@IIVPort@@E@Z
?Fetch@GroupsockLookupTable@@QAEPAVGroupsock@@AAVUsageEnvironment@@IIVPort@@AA_N@Z
?Fetch@GroupsockLookupTable@@QAEPAVGroupsock@@AAVUsageEnvironment@@IVPort@@EAA_N@Z
?IsEmpty@DirectedNetInterfaceSet@@QAE_NXZ
?Lookup@GroupsockLookupTable@@QAEPAVGroupsock@@AAVUsageEnvironment@@H@Z
?Lookup@GroupsockLookupTable@@QAEPAVGroupsock@@IIVPort@@@Z
?Lookup@GroupsockLookupTable@@QAEPAVGroupsock@@IVPort@@@Z
?Remove@GroupsockLookupTable@@QAE_NPBVGroupsock@@@Z
?addDestination@Groupsock@@UAEXABUin_addr@@ABVPort@@I@Z
?address@TunnelEncapsulationTrailer@@QAEAAIXZ
?auxAddress@TunnelEncapsulationTrailer@@QAEAAIXZ
?byteOffset@TunnelEncapsulationTrailer@@AAEPADH@Z
?changeDestinationParameters@Groupsock@@QAEXABUin_addr@@VPort@@HI@Z
?command@TunnelEncapsulationTrailer@@QAEAAEXZ
?createNewDestRecord@Groupsock@@UAEPAVdestRecord@@ABUin_addr@@ABVPort@@EIPAV2@@Z
?handleRead@Groupsock@@UAE_NPAEIAAIAAUsockaddr_in@@@Z
?handleRead@OutputSocket@@EAE_NPAEIAAIAAUsockaddr_in@@@Z
?isSSM@Groupsock@@QBE_NXZ
?lookupDestRecordFromDestination@Groupsock@@IBEPAVdestRecord@@ABUsockaddr_in@@@Z
?lookupSessionIdFromDestination@Groupsock@@QBEIABUsockaddr_in@@@Z
?members@Groupsock@@QAEAAVDirectedNetInterfaceSet@@XZ
?multicastSendOnly@Groupsock@@QAEXXZ
?next@Iterator@GroupsockLookupTable@@QAEPAVGroupsock@@XZ
?output@Groupsock@@UAE_NAAVUsageEnvironment@@PAEIPAVDirectedNetInterface@@@Z
?outputToAllMembersExcept@Groupsock@@AAEHPAVDirectedNetInterface@@EPAEII@Z
?port@TunnelEncapsulationTrailer@@QAEAAVPort@@XZ
?portNum@GroupEId@@QBEGXZ
?removeAllDestinations@Groupsock@@QAEXXZ
?removeDestination@Groupsock@@UAEXI@Z
?removeDestinationFrom@Groupsock@@AAEXAAPAVdestRecord@@I@Z
?sourceFilterAddress@GroupEId@@QBEABUin_addr@@XZ
?sourceFilterAddress@Groupsock@@QBEABUin_addr@@XZ
?sourcePortNum@OutputSocket@@IBEGXZ
?statsIncoming@Groupsock@@2VNetInterfaceTrafficStats@@A
?statsOutgoing@Groupsock@@2VNetInterfaceTrafficStats@@A
?statsRelayedIncoming@Groupsock@@2VNetInterfaceTrafficStats@@A
?statsRelayedOutgoing@Groupsock@@2VNetInterfaceTrafficStats@@A
?ttl@TunnelEncapsulationTrailer@@QAEAAEXZ
?wasLoopedBackFromUs@Groupsock@@QAE_NAAVUsageEnvironment@@AAUsockaddr_in@@@Z
?write@OutputSocket@@UAE_NIGEPAEI@Z
??0GroupEId@@QAE@ABUin_addr@@0G@Z
??0GroupEId@@QAE@ABUin_addr@@GE@Z
?init@GroupEId@@AAEXABUin_addr@@0GE@Z
?isSSM@GroupEId@@QBE_NXZ
??0NoReuse@@QAE@AAVUsageEnvironment@@@Z
??1NoReuse@@QAE@XZ
?ReceivingInterfaceAddr@@3IA
?SendingInterfaceAddr@@3IA
?chooseRandomIPv4SSMAddress@@YAIAAVUsageEnvironment@@@Z
?getReceiveBufferSize@@YAIAAVUsageEnvironment@@H@Z
?getSendBufferSize@@YAIAAVUsageEnvironment@@H@Z
?getSourcePort@@YA_NAAVUsageEnvironment@@HAAVPort@@@Z
?gettimeofday@@YAHPAUtimeval@@PAH@Z
?groupsockPriv@@YAPAU_groupsockPriv@@AAVUsageEnvironment@@@Z
?ignoreSigPipeOnSocket@@YAXH@Z
?increaseReceiveBufferTo@@YAIAAVUsageEnvironment@@HI@Z
?increaseSendBufferTo@@YAIAAVUsageEnvironment@@HI@Z
?loopbackWorks@@3_NA
?makeSocketBlocking@@YA_NHI@Z
?makeSocketNonBlocking@@YA_NH@Z
?ourIPAddress@@YAIAAVUsageEnvironment@@@Z
?readSocket@@YAHAAVUsageEnvironment@@HPAEIAAUsockaddr_in@@@Z
?reclaimGroupsockPriv@@YAXAAVUsageEnvironment@@@Z
?setReceiveBufferTo@@YAIAAVUsageEnvironment@@HI@Z
?setSendBufferTo@@YAIAAVUsageEnvironment@@HI@Z
?setupDatagramSocket@@YAHAAVUsageEnvironment@@VPort@@@Z
;?setupStreamSocket@@YAHAAVUsageEnvironment@@VPort@@_N@Z
?socketJoinGroup@@YA_NAAVUsageEnvironment@@HI@Z
?socketJoinGroupSSM@@YA_NAAVUsageEnvironment@@HII@Z
?socketLeaveGroup@@YA_NAAVUsageEnvironment@@HI@Z
?socketLeaveGroupSSM@@YA_NAAVUsageEnvironment@@HII@Z
?timestampString@@YAPBDXZ
?writeSocket@@YA_NAAVUsageEnvironment@@HUin_addr@@GEPAEI@Z
?writeSocket@@YA_NAAVUsageEnvironment@@HUin_addr@@GPAEI@Z
??0BasicHashTable@@QAE@H@Z
??0Iterator@BasicHashTable@@QAE@ABV1@@Z
??1BasicHashTable@@UAE@XZ
??1Iterator@BasicHashTable@@UAE@XZ
??_7BasicHashTable@@6B@
??_7Iterator@BasicHashTable@@6B@
??_GBasicHashTable@@UAEPAXI@Z
??_GIterator@BasicHashTable@@UAEPAXI@Z
??_R0?AVBasicHashTable@@@8
??_R0?AVHashTable@@@8
??_R0?AVIterator@BasicHashTable@@@8
??_R0?AVIterator@HashTable@@@8
??_R1A@?0A@EA@BasicHashTable@@8
??_R1A@?0A@EA@HashTable@@8
??_R1A@?0A@EA@Iterator@BasicHashTable@@8
??_R1A@?0A@EA@Iterator@HashTable@@8
??_R2BasicHashTable@@8
??_R2HashTable@@8
??_R2Iterator@BasicHashTable@@8
??_R2Iterator@HashTable@@8
??_R3BasicHashTable@@8
??_R3HashTable@@8
??_R3Iterator@BasicHashTable@@8
??_R3Iterator@HashTable@@8
??_R4BasicHashTable@@6B@
??_R4Iterator@BasicHashTable@@6B@
?Add@BasicHashTable@@EAEPAXPBDPAX@Z
?Lookup@BasicHashTable@@EBEPAXPBD@Z
?Remove@BasicHashTable@@EAE_NPBD@Z
?assignKey@BasicHashTable@@AAEXPAVTableEntry@1@PBD@Z
?create@HashTable@@SAPAV1@H@Z
?create@Iterator@HashTable@@SAPAV12@ABV2@@Z
?deleteEntry@BasicHashTable@@AAEXIPAVTableEntry@1@@Z
?deleteKey@BasicHashTable@@AAEXPAVTableEntry@1@@Z
?hashIndexFromKey@BasicHashTable@@ABEIPBD@Z
?insertNewEntry@BasicHashTable@@AAEPAVTableEntry@1@IPBD@Z
?keyMatches@BasicHashTable@@ABE_NPBD0@Z
?lookupKey@BasicHashTable@@ABEPAVTableEntry@1@PBDAAI@Z
?next@Iterator@BasicHashTable@@EAEPAXAAPBD@Z
?numEntries@BasicHashTable@@EBEIXZ
?randomIndex@BasicHashTable@@ABEII@Z
?rebuild@BasicHashTable@@AAEXXZ
??0DelayInterval@@QAE@JJ@Z
??0DelayQueue@@QAE@XZ
??0DelayQueueEntry@@IAE@VDelayInterval@@@Z
??0Timeval@@IAE@JJ@Z
??0_EventTime@@QAE@II@Z
??1DelayQueue@@UAE@XZ
??1DelayQueueEntry@@UAE@XZ
??8Timeval@@QBEHABV0@@Z
??9Timeval@@QBEHABV0@@Z
??D@YA?AVDelayInterval@@FABV0@@Z
??G@YA?AVDelayInterval@@ABVTimeval@@0@Z
??MTimeval@@QBEHABV0@@Z
??PTimeval@@QBEHABV0@@Z
??YTimeval@@QAEXABVDelayInterval@@@Z
??ZTimeval@@QAEXABVDelayInterval@@@Z
??_7DelayQueue@@6B@
??_7DelayQueueEntry@@6B@
??_GDelayQueue@@UAEPAXI@Z
??_GDelayQueueEntry@@UAEPAXI@Z
??_R0?AVDelayQueue@@@8
??_R0?AVDelayQueueEntry@@@8
??_R1A@?0A@EA@DelayQueue@@8
??_R1A@?0A@EA@DelayQueueEntry@@8
??_R2DelayQueue@@8
??_R2DelayQueueEntry@@8
??_R3DelayQueue@@8
??_R3DelayQueueEntry@@8
??_R4DelayQueue@@6B@
??_R4DelayQueueEntry@@6B@
?DELAY_DAY@@3VDelayInterval@@B
?DELAY_HOUR@@3VDelayInterval@@B
?DELAY_MINUTE@@3VDelayInterval@@B
?DELAY_SECOND@@3VDelayInterval@@B
?DELAY_ZERO@@3VDelayInterval@@B
?THE_END_OF_TIME@@3V_EventTime@@B
?TimeNow@@YA?AV_EventTime@@XZ
?addEntry@DelayQueue@@QAEXPAVDelayQueueEntry@@@Z
?findEntryByToken@DelayQueue@@AAEPAVDelayQueueEntry@@H@Z
?handleAlarm@DelayQueue@@QAEXXZ
?handleTimeout@DelayQueueEntry@@MAEXXZ
?head@DelayQueue@@AAEPAVDelayQueueEntry@@XZ
?removeEntry@DelayQueue@@QAEPAVDelayQueueEntry@@H@Z
?removeEntry@DelayQueue@@QAEXPAVDelayQueueEntry@@@Z
?seconds@Timeval@@QAEJXZ
?seconds@Timeval@@QBEJXZ
?secs@Timeval@@AAEAAJXZ
?synchronize@DelayQueue@@AAEXXZ
?timeToNextAlarm@DelayQueue@@QAEABVDelayInterval@@XZ
?token@DelayQueueEntry@@QAEHXZ
?tokenCounter@DelayQueueEntry@@0HA
?updateEntry@DelayQueue@@QAEXHVDelayInterval@@@Z
?updateEntry@DelayQueue@@QAEXPAVDelayQueueEntry@@VDelayInterval@@@Z
?useconds@Timeval@@QAEJXZ
?useconds@Timeval@@QBEJXZ
?usecs@Timeval@@AAEAAJXZ
??0BasicTaskScheduler@@IAE@I@Z
??1BasicTaskScheduler@@UAE@XZ
??_7BasicTaskScheduler@@6B@
??_GBasicTaskScheduler@@UAEPAXI@Z
??_R0?AVBasicTaskScheduler0@@@8
??_R0?AVBasicTaskScheduler@@@8
??_R0?AVTaskScheduler@@@8
??_R1A@?0A@EA@BasicTaskScheduler0@@8
??_R1A@?0A@EA@BasicTaskScheduler@@8
??_R1A@?0A@EA@TaskScheduler@@8
??_R2BasicTaskScheduler0@@8
??_R2BasicTaskScheduler@@8
??_R2TaskScheduler@@8
??_R3BasicTaskScheduler0@@8
??_R3BasicTaskScheduler@@8
??_R3TaskScheduler@@8
??_R4BasicTaskScheduler@@6B@
?SingleStep@BasicTaskScheduler@@MAEXI@Z
?createNew@BasicTaskScheduler@@SAPAV1@I@Z
?moveSocketHandling@BasicTaskScheduler@@MAEXHH@Z
?schedulerTickTask@BasicTaskScheduler@@IAEXXZ
?schedulerTickTask@BasicTaskScheduler@@KAXPAX@Z
?setBackgroundHandling@BasicTaskScheduler@@MAEXHHP6AXPAXH@Z0@Z
??0AlarmHandler@@QAE@P6AXPAX@Z0VDelayInterval@@@Z
??0BasicTaskScheduler0@@IAE@XZ
??0HandlerDescriptor@@AAE@PAV0@@Z
??0HandlerIterator@@QAE@AAVHandlerSet@@@Z
??0HandlerSet@@QAE@XZ
??1AlarmHandler@@UAE@XZ
??1BasicTaskScheduler0@@UAE@XZ
??1HandlerDescriptor@@EAE@XZ
??1HandlerIterator@@UAE@XZ
??1HandlerSet@@UAE@XZ
??_7AlarmHandler@@6B@
??_7BasicTaskScheduler0@@6B@
??_7HandlerDescriptor@@6B@
??_7HandlerIterator@@6B@
??_7HandlerSet@@6B@
??_GAlarmHandler@@UAEPAXI@Z
??_GBasicTaskScheduler0@@UAEPAXI@Z
??_GHandlerDescriptor@@EAEPAXI@Z
??_GHandlerIterator@@UAEPAXI@Z
??_GHandlerSet@@UAEPAXI@Z
??_R0?AVAlarmHandler@@@8
??_R0?AVHandlerDescriptor@@@8
??_R0?AVHandlerIterator@@@8
??_R0?AVHandlerSet@@@8
??_R1A@?0A@EA@AlarmHandler@@8
??_R1A@?0A@EA@HandlerDescriptor@@8
??_R1A@?0A@EA@HandlerIterator@@8
??_R1A@?0A@EA@HandlerSet@@8
??_R2AlarmHandler@@8
??_R2HandlerDescriptor@@8
??_R2HandlerIterator@@8
??_R2HandlerSet@@8
??_R3AlarmHandler@@8
??_R3HandlerDescriptor@@8
??_R3HandlerIterator@@8
??_R3HandlerSet@@8
??_R4AlarmHandler@@6B@
??_R4BasicTaskScheduler0@@6B@
??_R4HandlerDescriptor@@6B@
??_R4HandlerIterator@@6B@
??_R4HandlerSet@@6B@
?assignHandler@HandlerSet@@QAEXHHP6AXPAXH@Z0@Z
?clearHandler@HandlerSet@@QAEXH@Z
?createEventTrigger@BasicTaskScheduler0@@UAEIP6AXPAX@Z@Z
?deleteEventTrigger@BasicTaskScheduler0@@UAEXI@Z
?doEventLoop@BasicTaskScheduler0@@UAEXPCD@Z
?handleTimeout@AlarmHandler@@EAEXXZ
?lookupHandler@HandlerSet@@AAEPAVHandlerDescriptor@@H@Z
?moveHandler@HandlerSet@@QAEXHH@Z
?next@HandlerIterator@@QAEPAVHandlerDescriptor@@XZ
?reset@HandlerIterator@@QAEXXZ
?scheduleDelayedTask@BasicTaskScheduler0@@UAEPAX_JP6AXPAX@Z1@Z
?triggerEvent@BasicTaskScheduler0@@UAEXIPAX@Z
?unscheduleDelayedTask@BasicTaskScheduler0@@UAEXAAPAX@Z
??0BasicUsageEnvironment@@IAE@AAVTaskScheduler@@@Z
??1BasicUsageEnvironment@@MAE@XZ
??6BasicUsageEnvironment@@UAEAAVUsageEnvironment@@H@Z
??6BasicUsageEnvironment@@UAEAAVUsageEnvironment@@I@Z
??6BasicUsageEnvironment@@UAEAAVUsageEnvironment@@N@Z
??6BasicUsageEnvironment@@UAEAAVUsageEnvironment@@PAX@Z
??6BasicUsageEnvironment@@UAEAAVUsageEnvironment@@PBD@Z
??_7BasicUsageEnvironment@@6B@
??_GBasicUsageEnvironment@@MAEPAXI@Z
??_R0?AVBasicUsageEnvironment0@@@8
??_R0?AVBasicUsageEnvironment@@@8
??_R0?AVUsageEnvironment@@@8
??_R1A@?0A@EA@BasicUsageEnvironment0@@8
??_R1A@?0A@EA@BasicUsageEnvironment@@8
??_R1A@?0A@EA@UsageEnvironment@@8
??_R2BasicUsageEnvironment0@@8
??_R2BasicUsageEnvironment@@8
??_R2UsageEnvironment@@8
??_R3BasicUsageEnvironment0@@8
??_R3BasicUsageEnvironment@@8
??_R3UsageEnvironment@@8
??_R4BasicUsageEnvironment@@6B@
?createNew@BasicUsageEnvironment@@SAPAV1@AAVTaskScheduler@@@Z
?getErrno@BasicUsageEnvironment@@UBEHXZ
??0BasicUsageEnvironment0@@IAE@AAVTaskScheduler@@@Z
??1BasicUsageEnvironment0@@MAE@XZ
??_7BasicUsageEnvironment0@@6B@
??_GBasicUsageEnvironment0@@MAEPAXI@Z
??_R4BasicUsageEnvironment0@@6B@
?appendToResultMsg@BasicUsageEnvironment0@@UAEXPBD@Z
?getResultMsg@BasicUsageEnvironment0@@UBEPBDXZ
?reportBackgroundError@BasicUsageEnvironment0@@UAEXXZ
?reset@BasicUsageEnvironment0@@AAEXXZ
?setResultErrMsg@BasicUsageEnvironment0@@UAEXPBDH@Z
?setResultMsg@BasicUsageEnvironment0@@UAEXPBD00@Z
?setResultMsg@BasicUsageEnvironment0@@UAEXPBD0@Z
?setResultMsg@BasicUsageEnvironment0@@UAEXPBD@Z
?strDup@@YAPADPBD@Z
?strDupSize@@YAPADPBD@Z
?strDupSize@@YAPADPBDAAI@Z
??0HashTable@@IAE@XZ
??0Iterator@HashTable@@IAE@XZ
??1HashTable@@UAE@XZ
??1Iterator@HashTable@@UAE@XZ
??_7HashTable@@6B@
??_7Iterator@HashTable@@6B@
??_GHashTable@@UAEPAXI@Z
??_GIterator@HashTable@@UAEPAXI@Z
??_R4HashTable@@6B@
??_R4Iterator@HashTable@@6B@
?RemoveNext@HashTable@@QAEPAXXZ
?getFirst@HashTable@@QAEPAXXZ
??0TaskScheduler@@IAE@XZ
??0UsageEnvironment@@IAE@AAVTaskScheduler@@@Z
??1TaskScheduler@@UAE@XZ
??1UsageEnvironment@@MAE@XZ
??_7TaskScheduler@@6B@
??_7UsageEnvironment@@6B@
??_GTaskScheduler@@UAEPAXI@Z
??_GUsageEnvironment@@MAEPAXI@Z
??_R4TaskScheduler@@6B@
??_R4UsageEnvironment@@6B@
?internalError@TaskScheduler@@UAEXXZ
?internalError@UsageEnvironment@@UAEXXZ
?reclaim@UsageEnvironment@@QAE_NXZ
?rescheduleDelayedTask@TaskScheduler@@UAEXAAPAX_JP6AXPAX@Z2@Z
