LIBRARY live555-adapter
EXPORTS
??0TaskScheduler@@IEAA@XZ
??0UsageEnvironment@@IEAA@AEAVTaskScheduler@@@Z
??1TaskScheduler@@UEAA@XZ
??1UsageEnvironment@@MEAA@XZ
??_7TaskScheduler@@6B@
??_7UsageEnvironment@@6B@
??_GTaskScheduler@@UEAAPEAXI@Z
??_GUsageEnvironment@@MEAAPEAXI@Z
??_R0?AVTaskScheduler@@@8
??_R0?AVUsageEnvironment@@@8
??_R1A@?0A@EA@TaskScheduler@@8
??_R1A@?0A@EA@UsageEnvironment@@8
??_R2TaskScheduler@@8
??_R2UsageEnvironment@@8
??_R3TaskScheduler@@8
??_R3UsageEnvironment@@8
??_R4TaskScheduler@@6B@
??_R4UsageEnvironment@@6B@
?internalError@TaskScheduler@@UEAAXXZ
?internalError@UsageEnvironment@@UEAAXXZ
?reclaim@UsageEnvironment@@QEAA_NXZ
?rescheduleDelayedTask@TaskScheduler@@UEAAXAEAPEAX_JP6AXPEAX@Z2@Z
?strDup@@YAPEADPEBD@Z
?strDupSize@@YAPEADPEBD@Z
?strDupSize@@YAPEADPEBDAEA_K@Z
??0HashTable@@IEAA@XZ
??0Iterator@HashTable@@IEAA@XZ
??1HashTable@@UEAA@XZ
??1Iterator@HashTable@@UEAA@XZ
??_7HashTable@@6B@
??_7Iterator@HashTable@@6B@
??_GHashTable@@UEAAPEAXI@Z
??_GIterator@HashTable@@UEAAPEAXI@Z
??_R0?AVHashTable@@@8
??_R0?AVIterator@HashTable@@@8
??_R1A@?0A@EA@HashTable@@8
??_R1A@?0A@EA@Iterator@HashTable@@8
??_R2HashTable@@8
??_R2Iterator@HashTable@@8
??_R3HashTable@@8
??_R3Iterator@HashTable@@8
??_R4HashTable@@6B@
??_R4Iterator@HashTable@@6B@
?RemoveNext@HashTable@@QEAAPEAXXZ
?getFirst@HashTable@@QEAAPEAXXZ
??0WAVAudioFileSource@@IEAA@AEAVUsageEnvironment@@PEAU_iobuf@@@Z
??1WAVAudioFileSource@@MEAA@XZ
??_7WAVAudioFileSource@@6B@
??_C@_0BD@CNHBNMIA@Bad?5?$CD?5channels?3?5?$CFd@
??_C@_0BE@MKNGLIKI@Bad?5WAV?5file?5format@
??_C@_0BH@BFKMIAMO@Bad?5bits?9per?9sample?3?50@
??_C@_0BK@BCMLDJEH@Bad?5sampling?5frequency?3?50@
??_C@_0EE@GFCOPBIN@Audio?5format?5is?5not?5one?5that?5we@
??_GWAVAudioFileSource@@MEAAPEAXI@Z
??_R0?AVAudioInputDevice@@@8
??_R0?AVFramedSource@@@8
??_R0?AVMediaSource@@@8
??_R0?AVMedium@@@8
??_R0?AVWAVAudioFileSource@@@8
??_R1A@?0A@EA@AudioInputDevice@@8
??_R1A@?0A@EA@FramedSource@@8
??_R1A@?0A@EA@MediaSource@@8
??_R1A@?0A@EA@Medium@@8
??_R1A@?0A@EA@WAVAudioFileSource@@8
??_R2AudioInputDevice@@8
??_R2FramedSource@@8
??_R2MediaSource@@8
??_R2Medium@@8
??_R2WAVAudioFileSource@@8
??_R3AudioInputDevice@@8
??_R3FramedSource@@8
??_R3MediaSource@@8
??_R3Medium@@8
??_R3WAVAudioFileSource@@8
??_R4WAVAudioFileSource@@6B@
?_OptionsStorage@?1??__local_stdio_printf_options@@9@4_KA
?bitsPerSample@AudioInputDevice@@QEBAEXZ
?createNew@WAVAudioFileSource@@SAPEAV1@AEAVUsageEnvironment@@PEBD@Z
?doGetNextFrame@WAVAudioFileSource@@EEAAXXZ
?doReadFromFile@WAVAudioFileSource@@IEAAXXZ
?doStopGettingFrames@WAVAudioFileSource@@EEAAXXZ
?envir@Medium@@QEBAAEAVUsageEnvironment@@XZ
?fileReadableHandler@WAVAudioFileSource@@KAXPEAV1@H@Z
?getAudioFormat@WAVAudioFileSource@@QEAAEXZ
?getAverageLevel@WAVAudioFileSource@@EEBANXZ
?isCurrentlyAwaitingData@FramedSource@@QEBA_NXZ
?limitNumBytesToStream@WAVAudioFileSource@@QEAAXI@Z
?nextTask@Medium@@IEAAAEAPEAXXZ
?numPCMBytes@WAVAudioFileSource@@QEBAIXZ
?seekToPCMByte@WAVAudioFileSource@@QEAAXI@Z
?setInputPort@WAVAudioFileSource@@EEAA_NH@Z
?setScaleFactor@WAVAudioFileSource@@QEAAXH@Z
?taskScheduler@UsageEnvironment@@QEBAAEAVTaskScheduler@@XZ
??0WAVAudioFileServerMediaSubsession@@IEAA@AEAVUsageEnvironment@@PEBD_N2@Z
??1WAVAudioFileServerMediaSubsession@@MEAA@XZ
??_7WAVAudioFileServerMediaSubsession@@6B@
??_C@_02GOKBOOLC@L8@
??_C@_03JDLMAFGP@L24@
??_C@_03KDMMNJLE@L16@
??_C@_03PHNAMAGL@L20@
??_C@_04BJEPFACN@PCMA@
??_C@_04DHOBIHHI@PCMU@
??_C@_04LOKJODKN@DVI4@
??_C@_05KNIAAKIP@audio@
??_C@_0BJ@GBGKHGFP@The?5input?5file?5contains?5@
??_C@_0CO@EELMFJGC@?5bit?9per?9sample?5audio?0?5which?5we@
??_GWAVAudioFileServerMediaSubsession@@MEAAPEAXI@Z
??_R0?AVFileServerMediaSubsession@@@8
??_R0?AVOnDemandServerMediaSubsession@@@8
??_R0?AVServerMediaSubsession@@@8
??_R0?AVWAVAudioFileServerMediaSubsession@@@8
??_R1A@?0A@EA@FileServerMediaSubsession@@8
??_R1A@?0A@EA@OnDemandServerMediaSubsession@@8
??_R1A@?0A@EA@ServerMediaSubsession@@8
??_R1A@?0A@EA@WAVAudioFileServerMediaSubsession@@8
??_R2FileServerMediaSubsession@@8
??_R2OnDemandServerMediaSubsession@@8
??_R2ServerMediaSubsession@@8
??_R2WAVAudioFileServerMediaSubsession@@8
??_R3FileServerMediaSubsession@@8
??_R3OnDemandServerMediaSubsession@@8
??_R3ServerMediaSubsession@@8
??_R3WAVAudioFileServerMediaSubsession@@8
??_R4WAVAudioFileServerMediaSubsession@@6B@
?createNew@WAVAudioFileServerMediaSubsession@@SAPEAV1@AEAVUsageEnvironment@@PEBD_N2@Z
?createNewRTPSink@WAVAudioFileServerMediaSubsession@@MEAAPEAVRTPSink@@PEAVGroupsock@@EPEAVFramedSource@@@Z
?createNewStreamSource@WAVAudioFileServerMediaSubsession@@MEAAPEAVFramedSource@@IAEAI@Z
?duration@WAVAudioFileServerMediaSubsession@@MEBAMXZ
?inputSource@FramedFilter@@QEBAPEAVFramedSource@@XZ
?numChannels@AudioInputDevice@@QEBAEXZ
?samplingFrequency@AudioInputDevice@@QEBAIXZ
?seekStreamSource@WAVAudioFileServerMediaSubsession@@MEAAXPEAVFramedSource@@AEANNAEA_K@Z
?setStreamSourceDuration@WAVAudioFileServerMediaSubsession@@MEAAXPEAVFramedSource@@NAEA_K@Z
?setStreamSourceScale@WAVAudioFileServerMediaSubsession@@MEAAXPEAVFramedSource@@M@Z
?testScaleFactor@WAVAudioFileServerMediaSubsession@@MEAAXAEAM@Z
??0VP9VideoRTPSource@@IEAA@AEAVUsageEnvironment@@PEAVGroupsock@@EI@Z
??1VP9VideoRTPSource@@MEAA@XZ
??_7VP9VideoRTPSource@@6B@
??_C@_09KMKAGOIE@video?1VP9@
??_GVP9VideoRTPSource@@MEAAPEAXI@Z
??_R0?AVMultiFramedRTPSource@@@8
??_R0?AVRTPSource@@@8
??_R0?AVVP9VideoRTPSource@@@8
??_R1A@?0A@EA@MultiFramedRTPSource@@8
??_R1A@?0A@EA@RTPSource@@8
??_R1A@?0A@EA@VP9VideoRTPSource@@8
??_R2MultiFramedRTPSource@@8
??_R2RTPSource@@8
??_R2VP9VideoRTPSource@@8
??_R3MultiFramedRTPSource@@8
??_R3RTPSource@@8
??_R3VP9VideoRTPSource@@8
??_R4VP9VideoRTPSource@@6B@
?MIMEtype@VP9VideoRTPSource@@MEBAPEBDXZ
?createNew@VP9VideoRTPSource@@SAPEAV1@AEAVUsageEnvironment@@PEAVGroupsock@@EI@Z
?data@BufferedPacket@@QEBAPEAEXZ
?dataSize@BufferedPacket@@QEBAIXZ
?processSpecialHeader@VP9VideoRTPSource@@MEAA_NPEAVBufferedPacket@@AEAI@Z
??0VP9VideoRTPSink@@IEAA@AEAVUsageEnvironment@@PEAVGroupsock@@E@Z
??1VP9VideoRTPSink@@MEAA@XZ
??_7VP9VideoRTPSink@@6B@
??_C@_03FCOFNDJH@VP9@
??_GVP9VideoRTPSink@@MEAAPEAXI@Z
??_R0?AVMediaSink@@@8
??_R0?AVMultiFramedRTPSink@@@8
??_R0?AVRTPSink@@@8
??_R0?AVVP9VideoRTPSink@@@8
??_R0?AVVideoRTPSink@@@8
??_R1A@?0A@EA@MediaSink@@8
??_R1A@?0A@EA@MultiFramedRTPSink@@8
??_R1A@?0A@EA@RTPSink@@8
??_R1A@?0A@EA@VP9VideoRTPSink@@8
??_R1A@?0A@EA@VideoRTPSink@@8
??_R2MediaSink@@8
??_R2MultiFramedRTPSink@@8
??_R2RTPSink@@8
??_R2VP9VideoRTPSink@@8
??_R2VideoRTPSink@@8
??_R3MediaSink@@8
??_R3MultiFramedRTPSink@@8
??_R3RTPSink@@8
??_R3VP9VideoRTPSink@@8
??_R3VideoRTPSink@@8
??_R4VP9VideoRTPSink@@6B@
?createNew@VP9VideoRTPSink@@SAPEAV1@AEAVUsageEnvironment@@PEAVGroupsock@@E@Z
?doSpecialFrameHandling@VP9VideoRTPSink@@EEAAXIPEAEIUtimeval@@I@Z
?frameCanAppearAfterPacketStart@VP9VideoRTPSink@@EEBA_NPEBEI@Z
?specialHeaderSize@VP9VideoRTPSink@@EEBAIXZ
??0VP8VideoRTPSource@@IEAA@AEAVUsageEnvironment@@PEAVGroupsock@@EI@Z
??1VP8VideoRTPSource@@MEAA@XZ
??_7VP8VideoRTPSource@@6B@
??_C@_09LFLLFPMF@video?1VP8@
??_GVP8VideoRTPSource@@MEAAPEAXI@Z
??_R0?AVVP8VideoRTPSource@@@8
??_R1A@?0A@EA@VP8VideoRTPSource@@8
??_R2VP8VideoRTPSource@@8
??_R3VP8VideoRTPSource@@8
??_R4VP8VideoRTPSource@@6B@
?MIMEtype@VP8VideoRTPSource@@MEBAPEBDXZ
?createNew@VP8VideoRTPSource@@SAPEAV1@AEAVUsageEnvironment@@PEAVGroupsock@@EI@Z
?processSpecialHeader@VP8VideoRTPSource@@MEAA_NPEAVBufferedPacket@@AEAI@Z
?rtpMarkerBit@BufferedPacket@@QEBA_NXZ
??0VP8VideoRTPSink@@IEAA@AEAVUsageEnvironment@@PEAVGroupsock@@E@Z
??1VP8VideoRTPSink@@MEAA@XZ
??_7VP8VideoRTPSink@@6B@
??_C@_03ELPOOCNG@VP8@
??_GVP8VideoRTPSink@@MEAAPEAXI@Z
??_R0?AVVP8VideoRTPSink@@@8
??_R1A@?0A@EA@VP8VideoRTPSink@@8
??_R2VP8VideoRTPSink@@8
??_R3VP8VideoRTPSink@@8
??_R4VP8VideoRTPSink@@6B@
?createNew@VP8VideoRTPSink@@SAPEAV1@AEAVUsageEnvironment@@PEAVGroupsock@@E@Z
?doSpecialFrameHandling@VP8VideoRTPSink@@EEAAXIPEAEIUtimeval@@I@Z
?frameCanAppearAfterPacketStart@VP8VideoRTPSink@@EEBA_NPEBEI@Z
?specialHeaderSize@VP8VideoRTPSink@@EEBAIXZ
??0VorbisAudioRTPSource@@IEAA@AEAVUsageEnvironment@@PEAVGroupsock@@EI@Z
??0VorbisBufferedPacket@@QEAA@XZ
??0VorbisBufferedPacketFactory@@QEAA@XZ
??1VorbisAudioRTPSource@@MEAA@XZ
??1VorbisBufferedPacket@@UEAA@XZ
??1VorbisBufferedPacketFactory@@UEAA@XZ
??_7VorbisAudioRTPSource@@6B@
??_7VorbisBufferedPacket@@6B@
??_7VorbisBufferedPacketFactory@@6B@
??_C@_0N@NCGMGIDM@audio?1VORBIS@
??_GVorbisAudioRTPSource@@MEAAPEAXI@Z
??_GVorbisBufferedPacket@@UEAAPEAXI@Z
??_GVorbisBufferedPacketFactory@@UEAAPEAXI@Z
??_R0?AVBufferedPacket@@@8
??_R0?AVBufferedPacketFactory@@@8
??_R0?AVVorbisAudioRTPSource@@@8
??_R0?AVVorbisBufferedPacket@@@8
??_R0?AVVorbisBufferedPacketFactory@@@8
??_R1A@?0A@EA@BufferedPacket@@8
??_R1A@?0A@EA@BufferedPacketFactory@@8
??_R1A@?0A@EA@VorbisAudioRTPSource@@8
??_R1A@?0A@EA@VorbisBufferedPacket@@8
??_R1A@?0A@EA@VorbisBufferedPacketFactory@@8
??_R2BufferedPacket@@8
??_R2BufferedPacketFactory@@8
??_R2VorbisAudioRTPSource@@8
??_R2VorbisBufferedPacket@@8
??_R2VorbisBufferedPacketFactory@@8
??_R3BufferedPacket@@8
??_R3BufferedPacketFactory@@8
??_R3VorbisAudioRTPSource@@8
??_R3VorbisBufferedPacket@@8
??_R3VorbisBufferedPacketFactory@@8
??_R4VorbisAudioRTPSource@@6B@
??_R4VorbisBufferedPacket@@6B@
??_R4VorbisBufferedPacketFactory@@6B@
?MIMEtype@VorbisAudioRTPSource@@MEBAPEBDXZ
?createNew@VorbisAudioRTPSource@@SAPEAV1@AEAVUsageEnvironment@@PEAVGroupsock@@EI@Z
?createNewPacket@VorbisBufferedPacketFactory@@EEAAPEAVBufferedPacket@@PEAVMultiFramedRTPSource@@@Z
?nextEnclosedFrameSize@VorbisBufferedPacket@@EEAAIAEAPEAEI@Z
?parseVorbisOrTheoraConfigStr@@YAXPEBDAEAPEAEAEAI12122@Z
?processSpecialHeader@VorbisAudioRTPSource@@MEAA_NPEAVBufferedPacket@@AEAI@Z
??0VorbisAudioRTPSink@@IEAA@AEAVUsageEnvironment@@PEAVGroupsock@@EIIPEAEI2I2II@Z
??1VorbisAudioRTPSink@@MEAA@XZ
??_7VorbisAudioRTPSink@@6B@
??_C@_06EBILPAHA@VORBIS@
??_C@_0BN@GNKNDKGF@a?$DNfmtp?3?$CFd?5configuration?$DN?$CFs?$AN?6@
??_GVorbisAudioRTPSink@@MEAAPEAXI@Z
??_R0?AVAudioRTPSink@@@8
??_R0?AVVorbisAudioRTPSink@@@8
??_R1A@?0A@EA@AudioRTPSink@@8
??_R1A@?0A@EA@VorbisAudioRTPSink@@8
??_R2AudioRTPSink@@8
??_R2VorbisAudioRTPSink@@8
??_R3AudioRTPSink@@8
??_R3VorbisAudioRTPSink@@8
??_R4VorbisAudioRTPSink@@6B@
?auxSDPLine@VorbisAudioRTPSink@@EEAAPEBDXZ
?createNew@VorbisAudioRTPSink@@SAPEAV1@AEAVUsageEnvironment@@PEAVGroupsock@@EIIPEAEI2I2II@Z
?createNew@VorbisAudioRTPSink@@SAPEAV1@AEAVUsageEnvironment@@PEAVGroupsock@@EIIPEBD@Z
?doSpecialFrameHandling@VorbisAudioRTPSink@@EEAAXIPEAEIUtimeval@@I@Z
?estimatedBitrate@RTPSink@@QEAAAEAIXZ
?frameCanAppearAfterPacketStart@VorbisAudioRTPSink@@EEBA_NPEBEI@Z
?frameSpecificHeaderSize@VorbisAudioRTPSink@@EEBAIXZ
?generateVorbisOrTheoraConfigStr@@YAPEADPEAEI0I0II@Z
?numFramesUsedSoFar@MultiFramedRTPSink@@IEBAIXZ
?rtpPayloadType@RTPSink@@QEBAEXZ
?specialHeaderSize@VorbisAudioRTPSink@@EEBAIXZ
??0VideoRTPSink@@IEAA@AEAVUsageEnvironment@@PEAVGroupsock@@EIPEBD@Z
??1VideoRTPSink@@MEAA@XZ
??_7VideoRTPSink@@6B@
??_C@_05BPFJLLEL@video@
??_GVideoRTPSink@@MEAAPEAXI@Z
??_R4VideoRTPSink@@6B@
?sdpMediaType@VideoRTPSink@@EEBAPEBDXZ
??0EndianSwap16@@IEAA@AEAVUsageEnvironment@@PEAVFramedSource@@@Z
??0EndianSwap24@@IEAA@AEAVUsageEnvironment@@PEAVFramedSource@@@Z
??0HostFromNetworkOrder16@@IEAA@AEAVUsageEnvironment@@PEAVFramedSource@@@Z
??0NetworkFromHostOrder16@@IEAA@AEAVUsageEnvironment@@PEAVFramedSource@@@Z
??0PCMFromuLawAudioSource@@IEAA@AEAVUsageEnvironment@@PEAVFramedSource@@@Z
??0uLawFromPCMAudioSource@@IEAA@AEAVUsageEnvironment@@PEAVFramedSource@@H@Z
??1EndianSwap16@@MEAA@XZ
??1EndianSwap24@@MEAA@XZ
??1HostFromNetworkOrder16@@MEAA@XZ
??1NetworkFromHostOrder16@@MEAA@XZ
??1PCMFromuLawAudioSource@@MEAA@XZ
??1uLawFromPCMAudioSource@@MEAA@XZ
??_7EndianSwap16@@6B@
??_7EndianSwap24@@6B@
??_7HostFromNetworkOrder16@@6B@
??_7NetworkFromHostOrder16@@6B@
??_7PCMFromuLawAudioSource@@6B@
??_7uLawFromPCMAudioSource@@6B@
??_C@_0EC@EPNBPJLE@uLawFromPCMAudioSource?3?3createN@
??_GEndianSwap16@@MEAAPEAXI@Z
??_GEndianSwap24@@MEAAPEAXI@Z
??_GHostFromNetworkOrder16@@MEAAPEAXI@Z
??_GNetworkFromHostOrder16@@MEAAPEAXI@Z
??_GPCMFromuLawAudioSource@@MEAAPEAXI@Z
??_GuLawFromPCMAudioSource@@MEAAPEAXI@Z
??_R0?AVEndianSwap16@@@8
??_R0?AVEndianSwap24@@@8
??_R0?AVFramedFilter@@@8
??_R0?AVHostFromNetworkOrder16@@@8
??_R0?AVNetworkFromHostOrder16@@@8
??_R0?AVPCMFromuLawAudioSource@@@8
??_R0?AVuLawFromPCMAudioSource@@@8
??_R1A@?0A@EA@EndianSwap16@@8
??_R1A@?0A@EA@EndianSwap24@@8
??_R1A@?0A@EA@FramedFilter@@8
??_R1A@?0A@EA@HostFromNetworkOrder16@@8
??_R1A@?0A@EA@NetworkFromHostOrder16@@8
??_R1A@?0A@EA@PCMFromuLawAudioSource@@8
??_R1A@?0A@EA@uLawFromPCMAudioSource@@8
??_R2EndianSwap16@@8
??_R2EndianSwap24@@8
??_R2FramedFilter@@8
??_R2HostFromNetworkOrder16@@8
??_R2NetworkFromHostOrder16@@8
??_R2PCMFromuLawAudioSource@@8
??_R2uLawFromPCMAudioSource@@8
??_R3EndianSwap16@@8
??_R3EndianSwap24@@8
??_R3FramedFilter@@8
??_R3HostFromNetworkOrder16@@8
??_R3NetworkFromHostOrder16@@8
??_R3PCMFromuLawAudioSource@@8
??_R3uLawFromPCMAudioSource@@8
??_R4EndianSwap16@@6B@
??_R4EndianSwap24@@6B@
??_R4HostFromNetworkOrder16@@6B@
??_R4NetworkFromHostOrder16@@6B@
??_R4PCMFromuLawAudioSource@@6B@
??_R4uLawFromPCMAudioSource@@6B@
?afterGettingFrame1@EndianSwap16@@AEAAXIIUtimeval@@I@Z
?afterGettingFrame1@EndianSwap24@@AEAAXIIUtimeval@@I@Z
?afterGettingFrame1@HostFromNetworkOrder16@@AEAAXIIUtimeval@@I@Z
?afterGettingFrame1@NetworkFromHostOrder16@@AEAAXIIUtimeval@@I@Z
?afterGettingFrame1@PCMFromuLawAudioSource@@AEAAXIIUtimeval@@I@Z
?afterGettingFrame1@uLawFromPCMAudioSource@@AEAAXIIUtimeval@@I@Z
?afterGettingFrame@EndianSwap16@@CAXPEAXIIUtimeval@@I@Z
?afterGettingFrame@EndianSwap24@@CAXPEAXIIUtimeval@@I@Z
?afterGettingFrame@HostFromNetworkOrder16@@CAXPEAXIIUtimeval@@I@Z
?afterGettingFrame@NetworkFromHostOrder16@@CAXPEAXIIUtimeval@@I@Z
?afterGettingFrame@PCMFromuLawAudioSource@@CAXPEAXIIUtimeval@@I@Z
?afterGettingFrame@uLawFromPCMAudioSource@@CAXPEAXIIUtimeval@@I@Z
?createNew@EndianSwap16@@SAPEAV1@AEAVUsageEnvironment@@PEAVFramedSource@@@Z
?createNew@EndianSwap24@@SAPEAV1@AEAVUsageEnvironment@@PEAVFramedSource@@@Z
?createNew@HostFromNetworkOrder16@@SAPEAV1@AEAVUsageEnvironment@@PEAVFramedSource@@@Z
?createNew@NetworkFromHostOrder16@@SAPEAV1@AEAVUsageEnvironment@@PEAVFramedSource@@@Z
?createNew@PCMFromuLawAudioSource@@SAPEAV1@AEAVUsageEnvironment@@PEAVFramedSource@@@Z
?createNew@uLawFromPCMAudioSource@@SAPEAV1@AEAVUsageEnvironment@@PEAVFramedSource@@H@Z
?doGetNextFrame@EndianSwap16@@EEAAXXZ
?doGetNextFrame@EndianSwap24@@EEAAXXZ
?doGetNextFrame@HostFromNetworkOrder16@@EEAAXXZ
?doGetNextFrame@NetworkFromHostOrder16@@EEAAXXZ
?doGetNextFrame@PCMFromuLawAudioSource@@EEAAXXZ
?doGetNextFrame@uLawFromPCMAudioSource@@EEAAXXZ
??0TheoraBufferedPacket@@QEAA@XZ
??0TheoraBufferedPacketFactory@@QEAA@XZ
??0TheoraVideoRTPSource@@IEAA@AEAVUsageEnvironment@@PEAVGroupsock@@E@Z
??1TheoraBufferedPacket@@UEAA@XZ
??1TheoraBufferedPacketFactory@@UEAA@XZ
??1TheoraVideoRTPSource@@MEAA@XZ
??_7TheoraBufferedPacket@@6B@
??_7TheoraBufferedPacketFactory@@6B@
??_7TheoraVideoRTPSource@@6B@
??_C@_0N@MKIBAGNB@video?1THEORA@
??_GTheoraBufferedPacket@@UEAAPEAXI@Z
??_GTheoraBufferedPacketFactory@@UEAAPEAXI@Z
??_GTheoraVideoRTPSource@@MEAAPEAXI@Z
??_R0?AVTheoraBufferedPacket@@@8
??_R0?AVTheoraBufferedPacketFactory@@@8
??_R0?AVTheoraVideoRTPSource@@@8
??_R1A@?0A@EA@TheoraBufferedPacket@@8
??_R1A@?0A@EA@TheoraBufferedPacketFactory@@8
??_R1A@?0A@EA@TheoraVideoRTPSource@@8
??_R2TheoraBufferedPacket@@8
??_R2TheoraBufferedPacketFactory@@8
??_R2TheoraVideoRTPSource@@8
??_R3TheoraBufferedPacket@@8
??_R3TheoraBufferedPacketFactory@@8
??_R3TheoraVideoRTPSource@@8
??_R4TheoraBufferedPacket@@6B@
??_R4TheoraBufferedPacketFactory@@6B@
??_R4TheoraVideoRTPSource@@6B@
?MIMEtype@TheoraVideoRTPSource@@MEBAPEBDXZ
?createNew@TheoraVideoRTPSource@@SAPEAV1@AEAVUsageEnvironment@@PEAVGroupsock@@E@Z
?createNewPacket@TheoraBufferedPacketFactory@@EEAAPEAVBufferedPacket@@PEAVMultiFramedRTPSource@@@Z
?nextEnclosedFrameSize@TheoraBufferedPacket@@EEAAIAEAPEAEI@Z
?processSpecialHeader@TheoraVideoRTPSource@@MEAA_NPEAVBufferedPacket@@AEAI@Z
??0TheoraVideoRTPSink@@IEAA@AEAVUsageEnvironment@@PEAVGroupsock@@EPEAEI2I2II@Z
??1TheoraVideoRTPSink@@MEAA@XZ
??_7TheoraVideoRTPSink@@6B@
??_C@_06IDDMHOOM@THEORA@
??_C@_08NKCLJDKG@Reserved@
??_C@_0FK@BEFAOBFI@a?$DNfmtp?3?$CFd?5sampling?$DN?$CFs?$DLwidth?$DN?$CFu?$DL@
??_C@_0M@IBKFBKAG@YCbCr?94?34?34@
??_C@_0M@MAKCIANO@YCbCr?94?32?30@
??_C@_0M@PCJEOCFM@YCbCr?94?32?32@
??_GTheoraVideoRTPSink@@MEAAPEAXI@Z
??_R0?AVTheoraVideoRTPSink@@@8
??_R1A@?0A@EA@TheoraVideoRTPSink@@8
??_R2TheoraVideoRTPSink@@8
??_R3TheoraVideoRTPSink@@8
??_R4TheoraVideoRTPSink@@6B@
?auxSDPLine@TheoraVideoRTPSink@@EEAAPEBDXZ
?createNew@TheoraVideoRTPSink@@SAPEAV1@AEAVUsageEnvironment@@PEAVGroupsock@@EPEAEI2I2II@Z
?createNew@TheoraVideoRTPSink@@SAPEAV1@AEAVUsageEnvironment@@PEAVGroupsock@@EPEBD@Z
?doSpecialFrameHandling@TheoraVideoRTPSink@@EEAAXIPEAEIUtimeval@@I@Z
?frameCanAppearAfterPacketStart@TheoraVideoRTPSink@@EEBA_NPEBEI@Z
?specialHeaderSize@TheoraVideoRTPSink@@EEBAIXZ
??0TextRTPSink@@IEAA@AEAVUsageEnvironment@@PEAVGroupsock@@EIPEBD@Z
??1TextRTPSink@@MEAA@XZ
??_7TextRTPSink@@6B@
??_C@_04CIMGMMMG@text@
??_GTextRTPSink@@MEAAPEAXI@Z
??_R0?AVTextRTPSink@@@8
??_R1A@?0A@EA@TextRTPSink@@8
??_R2TextRTPSink@@8
??_R3TextRTPSink@@8
??_R4TextRTPSink@@6B@
?sdpMediaType@TextRTPSink@@EEBAPEBDXZ
??0TCPStreamSink@@IEAA@AEAVUsageEnvironment@@H@Z
??1TCPStreamSink@@MEAA@XZ
??_7TCPStreamSink@@6B@
??_C@_0FJ@FIDAPGOE@TCPStreamSink?3?3afterGettingFram@
??_C@_0JB@OGANCDDL@?5bytes?5of?5trailing?5data?5was?5dro@
??_GTCPStreamSink@@MEAAPEAXI@Z
??_R0?AVTCPStreamSink@@@8
??_R1A@?0A@EA@TCPStreamSink@@8
??_R2TCPStreamSink@@8
??_R3TCPStreamSink@@8
??_R4TCPStreamSink@@6B@
?afterGettingFrame@TCPStreamSink@@AEAAXII@Z
?afterGettingFrame@TCPStreamSink@@CAXPEAXIIUtimeval@@I@Z
?continuePlaying@TCPStreamSink@@MEAA_NXZ
?createNew@TCPStreamSink@@SAPEAV1@AEAVUsageEnvironment@@H@Z
?disableBackgroundHandling@TaskScheduler@@QEAAXH@Z
?freeBufferSpace@TCPStreamSink@@AEBAIXZ
?numUnwrittenBytes@TCPStreamSink@@AEBAIXZ
?ourOnSourceClosure1@TCPStreamSink@@AEAAXXZ
?ourOnSourceClosure@TCPStreamSink@@CAXPEAX@Z
?processBuffer@TCPStreamSink@@AEAAXXZ
?socketWritableHandler1@TCPStreamSink@@AEAAXXZ
?socketWritableHandler@TCPStreamSink@@CAXPEAXH@Z
??0T140IdleFilter@@QEAA@AEAVUsageEnvironment@@PEAVFramedSource@@@Z
??0T140TextRTPSink@@IEAA@AEAVUsageEnvironment@@PEAVGroupsock@@E@Z
??1T140IdleFilter@@UEAA@XZ
??1T140TextRTPSink@@MEAA@XZ
??_7T140IdleFilter@@6B@
??_7T140TextRTPSink@@6B@
??_C@_04EAPNIFJC@T140@
??_GT140IdleFilter@@UEAAPEAXI@Z
??_GT140TextRTPSink@@MEAAPEAXI@Z
??_R0?AVT140IdleFilter@@@8
??_R0?AVT140TextRTPSink@@@8
??_R1A@?0A@EA@T140IdleFilter@@8
??_R1A@?0A@EA@T140TextRTPSink@@8
??_R2T140IdleFilter@@8
??_R2T140TextRTPSink@@8
??_R3T140IdleFilter@@8
??_R3T140TextRTPSink@@8
??_R4T140IdleFilter@@6B@
??_R4T140TextRTPSink@@6B@
?afterGettingFrame@T140IdleFilter@@AEAAXIIUtimeval@@I@Z
?afterGettingFrame@T140IdleFilter@@CAXPEAXIIUtimeval@@I@Z
?continuePlaying@T140TextRTPSink@@MEAA_NXZ
?createNew@T140TextRTPSink@@SAPEAV1@AEAVUsageEnvironment@@PEAVGroupsock@@E@Z
?deliverEmptyFrame@T140IdleFilter@@AEAAXXZ
?deliverFromBuffer@T140IdleFilter@@AEAAXXZ
?doGetNextFrame@T140IdleFilter@@EEAAXXZ
?doSpecialFrameHandling@T140TextRTPSink@@MEAAXIPEAEIUtimeval@@I@Z
?doStopGettingFrames@T140IdleFilter@@EEAAXXZ
?frameCanAppearAfterPacketStart@T140TextRTPSink@@MEBA_NPEBEI@Z
?handleIdleTimeout@T140IdleFilter@@AEAAXXZ
?handleIdleTimeout@T140IdleFilter@@CAXPEAX@Z
?onSourceClosure@T140IdleFilter@@AEAAXXZ
?onSourceClosure@T140IdleFilter@@CAXPEAX@Z
?reassignInputSource@FramedFilter@@QEAAXPEAVFramedSource@@@Z
??0StreamReplica@@IEAA@AEAVStreamReplicator@@@Z
??0StreamReplicator@@IEAA@AEAVUsageEnvironment@@PEAVFramedSource@@_N@Z
??1StreamReplica@@MEAA@XZ
??1StreamReplicator@@MEAA@XZ
??_7StreamReplica@@6B@
??_7StreamReplicator@@6B@
??_C@_0DJ@ILCKKCIE@StreamReplicator?3?3removeStreamR@
??_C@_0DM@BACPDBKC@StreamReplicator?3?3deliverReceiv@
??_C@_0DM@LKCGPJCJ@StreamReplicator?3?3deliverReceiv@
??_C@_0DN@NBHICAIN@StreamReplicator?3?3deactivateStr@
??_C@_0ED@BFHMNMDF@StreamReplicator?3?3deliverReceiv@
??_GStreamReplica@@MEAAPEAXI@Z
??_GStreamReplicator@@MEAAPEAXI@Z
??_R0?AVStreamReplica@@@8
??_R0?AVStreamReplicator@@@8
??_R1A@?0A@EA@StreamReplica@@8
??_R1A@?0A@EA@StreamReplicator@@8
??_R2StreamReplica@@8
??_R2StreamReplicator@@8
??_R3StreamReplica@@8
??_R3StreamReplicator@@8
??_R4StreamReplica@@6B@
??_R4StreamReplicator@@6B@
?afterGettingFrame@StreamReplicator@@AEAAXIIUtimeval@@I@Z
?afterGettingFrame@StreamReplicator@@CAXPEAXIIUtimeval@@I@Z
?copyReceivedFrame@StreamReplica@@CAXPEAV1@0@Z
?createNew@StreamReplicator@@SAPEAV1@AEAVUsageEnvironment@@PEAVFramedSource@@_N@Z
?createStreamReplica@StreamReplicator@@QEAAPEAVFramedSource@@XZ
?deactivateStreamReplica@StreamReplicator@@AEAAXPEAVStreamReplica@@@Z
?deliverReceivedFrame@StreamReplicator@@AEAAXXZ
?doGetNextFrame@StreamReplica@@EEAAXXZ
?doStopGettingFrames@StreamReplica@@EEAAXXZ
?getNextFrame@StreamReplicator@@AEAAXPEAVStreamReplica@@@Z
?onSourceClosure@StreamReplicator@@AEAAXXZ
?onSourceClosure@StreamReplicator@@CAXPEAX@Z
?removeStreamReplica@StreamReplicator@@AEAAXPEAVStreamReplica@@@Z
??0StreamParser@@IEAA@PEAVFramedSource@@P6AXPEAX@Z1P6AX1PEAEIUtimeval@@@Z1@Z
??1StreamParser@@MEAA@XZ
??_7StreamParser@@6B@
??_C@_01EEMJAFIK@?6@
??_C@_02MNMNLDAI@?$CJ?6@
??_C@_03MFPIGDOF@?5?$DO?5@
??_C@_03NPBFACHO@?5?$CL?5@
??_C@_0BO@HFAEMPLO@StreamParser?5internal?5error?5?$CI@
??_C@_0BP@JDPDDOFK@?5bytes?$DL?5expected?5no?5more?5than?5@
??_C@_0DB@HAMLIPHD@StreamParser?3?3afterGettingBytes@
??_GStreamParser@@MEAAPEAXI@Z
??_R0?AVStreamParser@@@8
??_R0H@8
??_R1A@?0A@EA@StreamParser@@8
??_R2StreamParser@@8
??_R3StreamParser@@8
??_R4StreamParser@@6B@
?afterGettingBytes1@StreamParser@@AEAAXIUtimeval@@@Z
?afterGettingBytes@StreamParser@@CAXPEAXIIUtimeval@@I@Z
?bankSize@StreamParser@@IEBAIXZ
?curBank@StreamParser@@AEAAPEAEXZ
?ensureValidBytes1@StreamParser@@AEAAXI@Z
?ensureValidBytes@StreamParser@@AEAAXI@Z
?flushInput@StreamParser@@UEAAXXZ
?getBits@StreamParser@@IEAAII@Z
?lastParsed@StreamParser@@AEAAPEAEXZ
?nextToParse@StreamParser@@AEAAPEAEXZ
?onInputClosure1@StreamParser@@AEAAXXZ
?onInputClosure@StreamParser@@CAXPEAX@Z
?restoreSavedParserState@StreamParser@@MEAAXXZ
?saveParserState@StreamParser@@IEAAXXZ
?skipBits@StreamParser@@IEAAXI@Z
?test4Bytes@StreamParser@@IEAAIXZ
??0SIPClient@@AEAA@AEAVUsageEnvironment@@EPEBDH1@Z
??1SIPClient@@MEAA@XZ
??_7SIPClient@@6B@
??_C@_00CNPNBAHC@@
??_C@_01BJJEKLCA@?$CC@
??_C@_01PKGAHCOL@?$CJ@
??_C@_02DPKJAMEF@?$CFd@
??_C@_02GFKOMOKH@?5?$CI@
??_C@_02LMMGGCAJ@?3?5@
??_C@_04LANJJMFN@sip?3@
??_C@_05IHGJPLLG@?$CF?$CKs?$CFu@
??_C@_06DBKGGLMH@INVITE@
??_C@_07OMLDAPHH@?0?5port?5@
??_C@_08LFHCIKAE@?0?5after?5@
??_C@_09HPOPLJJK@?5seconds?6@
??_C@_0BA@ELKLMHEO@URL?5is?5too?5long@
??_C@_0BA@FENMBNO@Bad?5port?5number@
??_C@_0BA@HHFHOMAE@RETRANSMISSION?5@
??_C@_0BB@CAJCOHBO@User?9Agent?3?5?$CFs?$AN?6@
??_C@_0BB@CNOPGIKI@TIMER?5D?5EXPIRED?6@
??_C@_0BC@DIMCAFEE@Sending?5request?3?5@
??_C@_0BC@PCENIDGP@To?3?$CF?$CK?$FL?$FO?$DL?$FN?$DL?5tag?$DN?$CFs@
??_C@_0BD@EIAGGNM@Content?9Length?3?5?$CFd@
??_C@_0BD@ICBMOJAL@Content?9length?3?5?$CFd@
??_C@_0BE@FGKFBAJN@BYE?5send?$CI?$CJ?5failed?3?5@
??_C@_0BE@IOHGGPKA@ACK?5send?$CI?$CJ?5failed?3?5@
??_C@_0BF@IEGAMFAE@?5additional?5seconds?6@
??_C@_0BG@EKDMIKNA@a?$DNrtpmap?3?$CFu?5?$CFs?18000?$AN?6@
??_C@_0BH@LDBGFABN@Transaction?5terminated@
??_C@_0BH@PIENBBEN@INVITE?5send?$CI?$CJ?5failed?3?5@
??_C@_0BI@DFONGDBE@No?5response?5from?5server@
??_C@_0BJ@DKLPDEPL@URL?5is?5not?5of?5the?5form?5?$CC@
??_C@_0BK@NCHKHBCL@LIVE555?5Streaming?5Media?5v@
??_C@_0BL@GPLJHNAP@No?5port?5number?5follows?5?8?3?8@
??_C@_0BL@IDODLFPE@SIP?5response?5was?5truncated@
??_C@_0BL@KKMLDLIG@Received?5INVITE?5response?3?5@
??_C@_0BM@COFBOMEB@no?5response?5code?5in?5line?3?5?$CC@
??_C@_0BP@CKGJJOLE@RETRANSMISSION?5TIMEOUT?0?5after?5@
??_C@_0CA@NILHHJNN@Bad?5?$CCContent?9Length?3?$CC?5header?3?5?$CC@
??_C@_0CA@PLPFMBNO@cannot?5handle?5INVITE?5response?3?5@
??_C@_0CE@KHPCIECN@no?5content?5following?5header?5lin@
??_C@_0CF@HCECKGNA@Failed?5to?5find?5network?5address?5@
??_C@_0CJ@NHNEGFDK@ERROR?3?5Failed?5to?5create?5socket?5@
??_C@_0DI@DEJGHLFJ@Proxy?9Authenticate?3?5Digest?5real@
??_C@_0FG@EFPHKINL@v?$DN0?$AN?6o?$DN?9?5?$CFu?5?$CFu?5IN?5IP4?5?$CFs?$AN?6s?$DN?$CFs?5@
??_C@_0FG@EOOBJDLN@Proxy?9Authenticate?3?5Digest?5algo@
??_C@_0FN@MKBDOPIA@Proxy?9Authorization?3?5Digest?5use@
??_C@_0JK@GBPGGPMI@ACK?5?$CFs?5SIP?12?40?$AN?6From?3?5?$CFs?5?$DMsip?3?$CF@
??_C@_0JK@LPMFLOEI@BYE?5?$CFs?5SIP?12?40?$AN?6From?3?5?$CFs?5?$DMsip?3?$CF@
??_C@_0L@JDALDCOB@2015?409?424@
??_C@_0L@MOHIGKOO@?$CFs?$CFs?$CFs?$CFs?$CFs@
??_C@_0NG@EHKCJALG@INVITE?5?$CFs?5SIP?12?40?$AN?6From?3?5?$CFs?5?$DMsi@
??_GSIPClient@@MEAAPEAXI@Z
??_R0?AVSIPClient@@@8
??_R1A@?0A@EA@SIPClient@@8
??_R2SIPClient@@8
??_R3SIPClient@@8
??_R4SIPClient@@6B@
?_OptionsStorage@?1??__local_stdio_scanf_options@@9@4_KA
?createAuthenticatorString@SIPClient@@AEAAPEADPEBVAuthenticator@@PEBD1@Z
?createNew@SIPClient@@SAPEAV1@AEAVUsageEnvironment@@EPEBDH1@Z
?data@NetAddress@@QEBAPEBEXZ
?doInviteStateMachine@SIPClient@@AEAAXI@Z
?doInviteStateTerminated@SIPClient@@AEAAXI@Z
?getResponse@SIPClient@@AEAAIAEAPEADI@Z
?getResponseCode@SIPClient@@AEAAIXZ
?invite1@SIPClient@@AEAAPEADPEAVAuthenticator@@@Z
?invite@SIPClient@@QEAAPEADPEBDPEAVAuthenticator@@@Z
?inviteResponseHandler@SIPClient@@CAXPEAXH@Z
?inviteWithPassword@SIPClient@@QEAAPEADPEBD00@Z
?nonce@Authenticator@@QEBAPEBDXZ
?num@Port@@QEBAGXZ
?numAddresses@NetAddressList@@QEBAIXZ
?parseResponseCode@SIPClient@@AEAA_NPEBDAEAI@Z
?parseSIPURL@SIPClient@@SA_NAEAVUsageEnvironment@@PEBDAEAVNetAddress@@AEAG@Z
?parseSIPURLUsernamePassword@SIPClient@@SA_NPEBDAEAPEAD1@Z
?password@Authenticator@@QEBAPEBDXZ
?processURL@SIPClient@@AEAA_NPEBD@Z
?realm@Authenticator@@QEBAPEBDXZ
?reset@SIPClient@@AEAAXXZ
?sendACK@SIPClient@@QEAA_NXZ
?sendBYE@SIPClient@@QEAA_NXZ
?sendINVITE@SIPClient@@AEAA_NXZ
?sendRequest@SIPClient@@AEAA_NPEBDI@Z
?setProxyServer@SIPClient@@QEAAXIG@Z
?setUserAgentString@SIPClient@@QEAAXPEBD@Z
?socketNum@Socket@@QEBAHXZ
?timerAHandler@SIPClient@@CAXPEAX@Z
?timerBHandler@SIPClient@@CAXPEAX@Z
?timerDHandler@SIPClient@@CAXPEAX@Z
?turnOffBackgroundReadHandling@TaskScheduler@@QEAAXH@Z
?turnOnBackgroundReadHandling@TaskScheduler@@QEAAXHP6AXPEAXH@Z0@Z
?username@Authenticator@@QEBAPEBDXZ
?val@AddressString@@QEBAPEBDXZ
??0SimpleRTPSource@@IEAA@AEAVUsageEnvironment@@PEAVGroupsock@@EIPEBDI_N@Z
??1SimpleRTPSource@@MEAA@XZ
??_7SimpleRTPSource@@6B@
??_C@_06GPLGCGNG@audio?1@
??_GSimpleRTPSource@@MEAAPEAXI@Z
??_R0?AVSimpleRTPSource@@@8
??_R1A@?0A@EA@SimpleRTPSource@@8
??_R2SimpleRTPSource@@8
??_R3SimpleRTPSource@@8
??_R4SimpleRTPSource@@6B@
?MIMEtype@SimpleRTPSource@@EEBAPEBDXZ
?createNew@SimpleRTPSource@@SAPEAV1@AEAVUsageEnvironment@@PEAVGroupsock@@EIPEBDI_N@Z
?processSpecialHeader@SimpleRTPSource@@EEAA_NPEAVBufferedPacket@@AEAI@Z
??0SimpleRTPSink@@IEAA@AEAVUsageEnvironment@@PEAVGroupsock@@EIPEBD2I_N3@Z
??1SimpleRTPSink@@MEAA@XZ
??_7SimpleRTPSink@@6B@
??_C@_07CIFAGBMG@unknown@
??_GSimpleRTPSink@@MEAAPEAXI@Z
??_R0?AVSimpleRTPSink@@@8
??_R1A@?0A@EA@SimpleRTPSink@@8
??_R2SimpleRTPSink@@8
??_R3SimpleRTPSink@@8
??_R4SimpleRTPSink@@6B@
?createNew@SimpleRTPSink@@SAPEAV1@AEAVUsageEnvironment@@PEAVGroupsock@@EIPEBD2I_N3@Z
?doSpecialFrameHandling@SimpleRTPSink@@MEAAXIPEAEIUtimeval@@I@Z
?frameCanAppearAfterPacketStart@SimpleRTPSink@@MEBA_NPEBEI@Z
?sdpMediaType@SimpleRTPSink@@MEBAPEBDXZ
??0ServerMediaSession@@IEAA@AEAVUsageEnvironment@@PEBD11_N1@Z
??0ServerMediaSubsession@@IEAA@AEAVUsageEnvironment@@@Z
??0ServerMediaSubsessionIterator@@QEAA@AEAVServerMediaSession@@@Z
??1ServerMediaSession@@MEAA@XZ
??1ServerMediaSubsession@@MEAA@XZ
??1ServerMediaSubsessionIterator@@UEAA@XZ
??_7ServerMediaSession@@6B@
??_7ServerMediaSubsession@@6B@
??_7ServerMediaSubsessionIterator@@6B@
??_C@_02DKCKIIND@?$CFs@
??_C@_04HDOCAJNK@?$CFs?$CFs@
??_C@_07HDKPFDG@track?$CFd@
??_C@_0BB@OKPIHEGE@a?$DNrange?3npt?$DN0?9?$AN?6@
??_C@_0BE@DILGGIFC@a?$DNrange?3clock?$DN?$CFs?9?$AN?6@
??_C@_0BF@BBJCOBIA@a?$DNrange?3npt?$DN0?9?$CF?43f?$AN?6@
??_C@_0BG@NOFFBOAA@a?$DNrange?3clock?$DN?$CFs?9?$CFs?$AN?6@
??_C@_0CG@LBKAJKHO@?5is?5not?5a?5?8ServerMediaSession?8?5@
??_C@_0EA@DNHFBDIE@a?$DNsource?9filter?3?5incl?5IN?5IP4?5?$CK?5@
??_C@_0IO@EBMKABIM@v?$DN0?$AN?6o?$DN?9?5?$CFld?$CF06ld?5?$CFd?5IN?5IP4?5?$CFs?$AN@
??_GServerMediaSession@@MEAAPEAXI@Z
??_GServerMediaSubsession@@MEAAPEAXI@Z
??_GServerMediaSubsessionIterator@@UEAAPEAXI@Z
??_R0?AVServerMediaSession@@@8
??_R0?AVServerMediaSubsessionIterator@@@8
??_R1A@?0A@EA@ServerMediaSession@@8
??_R1A@?0A@EA@ServerMediaSubsessionIterator@@8
??_R2ServerMediaSession@@8
??_R2ServerMediaSubsessionIterator@@8
??_R3ServerMediaSession@@8
??_R3ServerMediaSubsessionIterator@@8
??_R4ServerMediaSession@@6B@
??_R4ServerMediaSubsession@@6B@
??_R4ServerMediaSubsessionIterator@@6B@
?addSubsession@ServerMediaSession@@QEAA_NPEAVServerMediaSubsession@@@Z
?createNew@ServerMediaSession@@SAPEAV1@AEAVUsageEnvironment@@PEBD11_N1@Z
?deleteAllSubsessions@ServerMediaSession@@QEAAXXZ
?deleteStream@ServerMediaSubsession@@UEAAXIAEAPEAX@Z
?duration@ServerMediaSession@@QEBAMXZ
?duration@ServerMediaSubsession@@UEBAMXZ
?generateSDPDescription@ServerMediaSession@@QEAAPEADXZ
?getAbsoluteTimeRange@ServerMediaSubsession@@UEBAXAEAPEAD0@Z
?getCurrentNPT@ServerMediaSubsession@@UEAAMPEAX@Z
?getStreamSource@ServerMediaSubsession@@UEAAPEAVFramedSource@@PEAX@Z
?isServerMediaSession@ServerMediaSession@@EEBA_NXZ
?lookupByName@ServerMediaSession@@SA_NAEAVUsageEnvironment@@PEBDAEAPEAV1@@Z
?next@ServerMediaSubsessionIterator@@QEAAPEAVServerMediaSubsession@@XZ
?nullSeekStream@ServerMediaSubsession@@UEAAXIPEAXNAEA_K@Z
?pauseStream@ServerMediaSubsession@@UEAAXIPEAX@Z
?rangeSDPLine@ServerMediaSubsession@@IEBAPEBDXZ
?reset@ServerMediaSubsessionIterator@@QEAAXXZ
?seekStream@ServerMediaSubsession@@UEAAXIPEAXAEANNAEA_K@Z
?seekStream@ServerMediaSubsession@@UEAAXIPEAXAEAPEAD1@Z
?setServerAddressAndPortForSDP@ServerMediaSubsession@@QEAAXIG@Z
?setStreamScale@ServerMediaSubsession@@UEAAXIPEAXM@Z
?testScaleFactor@ServerMediaSession@@QEAAXAEAM@Z
?testScaleFactor@ServerMediaSubsession@@UEAAXAEAM@Z
?trackId@ServerMediaSubsession@@QEAAPEBDXZ
??0RTSPClientConnectionSupportingHTTPStreaming@RTSPServerSupportingHTTPStreaming@@QEAA@AEAVRTSPServer@@HUsockaddr_in@@@Z
??0RTSPServerSupportingHTTPStreaming@@IEAA@AEAVUsageEnvironment@@HVPort@@PEAVUserAuthenticationDatabase@@I@Z
??1RTSPClientConnectionSupportingHTTPStreaming@RTSPServerSupportingHTTPStreaming@@UEAA@XZ
??1RTSPServerSupportingHTTPStreaming@@MEAA@XZ
??_7RTSPClientConnectionSupportingHTTPStreaming@RTSPServerSupportingHTTPStreaming@@6B@
??_7RTSPServerSupportingHTTPStreaming@@6B@
??_C@_0BB@ECJHCPLC@?$CDEXT?9X?9ENDLIST?$AN?6@
??_C@_0CA@MJJCDCDM@?$CDEXTINF?3?$CFd?0?$AN?6?$CFs?$DPsegment?$DN?$CFd?0?$CFd?$AN?6@
??_C@_0CL@DBMPIDCB@Last?9Modified?3?5?$CFa?0?5?$CFb?5?$CFd?5?$CFY?5?$CFH?3@
??_C@_0FF@BHAAFLFM@?$CDEXTM3U?$AN?6?$CDEXT?9X?9ALLOW?9CACHE?3YES@
??_C@_0HO@ENLFLNGJ@HTTP?11?41?5200?5OK?$AN?6?$CFsServer?3?5LIVE@
??_C@_0HP@DFEABPDC@HTTP?11?41?5200?5OK?$AN?6?$CFsServer?3?5LIVE@
??_C@_0P@FAODBDMB@?$DPsegment?$DN?$CFu?0?$CFu@
??_GRTSPClientConnectionSupportingHTTPStreaming@RTSPServerSupportingHTTPStreaming@@UEAAPEAXI@Z
??_GRTSPServerSupportingHTTPStreaming@@MEAAPEAXI@Z
??_R0?AVClientConnection@GenericMediaServer@@@8
??_R0?AVGenericMediaServer@@@8
??_R0?AVRTSPClientConnection@RTSPServer@@@8
??_R0?AVRTSPClientConnectionSupportingHTTPStreaming@RTSPServerSupportingHTTPStreaming@@@8
??_R0?AVRTSPServer@@@8
??_R0?AVRTSPServerSupportingHTTPStreaming@@@8
??_R1A@?0A@EA@ClientConnection@GenericMediaServer@@8
??_R1A@?0A@EA@GenericMediaServer@@8
??_R1A@?0A@EA@RTSPClientConnection@RTSPServer@@8
??_R1A@?0A@EA@RTSPClientConnectionSupportingHTTPStreaming@RTSPServerSupportingHTTPStreaming@@8
??_R1A@?0A@EA@RTSPServer@@8
??_R1A@?0A@EA@RTSPServerSupportingHTTPStreaming@@8
??_R2ClientConnection@GenericMediaServer@@8
??_R2GenericMediaServer@@8
??_R2RTSPClientConnection@RTSPServer@@8
??_R2RTSPClientConnectionSupportingHTTPStreaming@RTSPServerSupportingHTTPStreaming@@8
??_R2RTSPServer@@8
??_R2RTSPServerSupportingHTTPStreaming@@8
??_R3ClientConnection@GenericMediaServer@@8
??_R3GenericMediaServer@@8
??_R3RTSPClientConnection@RTSPServer@@8
??_R3RTSPClientConnectionSupportingHTTPStreaming@RTSPServerSupportingHTTPStreaming@@8
??_R3RTSPServer@@8
??_R3RTSPServerSupportingHTTPStreaming@@8
??_R4RTSPClientConnectionSupportingHTTPStreaming@RTSPServerSupportingHTTPStreaming@@6B@
??_R4RTSPServerSupportingHTTPStreaming@@6B@
?afterStreaming@RTSPClientConnectionSupportingHTTPStreaming@RTSPServerSupportingHTTPStreaming@@KAXPEAX@Z
?createNew@RTSPServerSupportingHTTPStreaming@@SAPEAV1@AEAVUsageEnvironment@@VPort@@PEAVUserAuthenticationDatabase@@I@Z
?createNewClientConnection@RTSPServerSupportingHTTPStreaming@@MEAAPEAVClientConnection@GenericMediaServer@@HUsockaddr_in@@@Z
?envir@ClientConnection@GenericMediaServer@@IEAAAEAVUsageEnvironment@@XZ
?handleHTTPCmd_StreamingGET@RTSPClientConnectionSupportingHTTPStreaming@RTSPServerSupportingHTTPStreaming@@MEAAXPEBD0@Z
??0ParamsForREGISTER@RTSPClientConnection@RTSPServer@@QEAA@PEAV12@PEBD1_N21@Z
??0RTSPClientConnection@RTSPServer@@IEAA@AEAV1@HUsockaddr_in@@@Z
??0RTSPClientSession@RTSPServer@@IEAA@AEAV1@I@Z
??0RTSPServer@@IEAA@AEAVUsageEnvironment@@HVPort@@PEAVUserAuthenticationDatabase@@I@Z
??0RTSPServerWithREGISTERProxying@@IEAA@AEAVUsageEnvironment@@HVPort@@PEAVUserAuthenticationDatabase@@2I_NH@Z
??0RegisterRequestRecord@@QEAA@AEAVRTSPServer@@IPEBDG1P6AXPEAV1@IHPEAD@ZPEAVAuthenticator@@_N1@Z
??0streamingOverTCPRecord@@QEAA@IIPEAV0@@Z
??1ParamsForREGISTER@RTSPClientConnection@RTSPServer@@UEAA@XZ
??1RTSPClientConnection@RTSPServer@@MEAA@XZ
??1RTSPClientSession@RTSPServer@@MEAA@XZ
??1RTSPServer@@MEAA@XZ
??1RTSPServerWithREGISTERProxying@@MEAA@XZ
??1RegisterRequestRecord@@UEAA@XZ
??1streamingOverTCPRecord@@UEAA@XZ
??_7ParamsForREGISTER@RTSPClientConnection@RTSPServer@@6B@
??_7RTSPClientConnection@RTSPServer@@6B@
??_7RTSPClientSession@RTSPServer@@6B@
??_7RTSPServer@@6B@
??_7RTSPServerWithREGISTERProxying@@6B@
??_7RegisterRequestRecord@@6B@
??_7streamingOverTCPRecord@@6B@
??_C@_01IHBHIGKO@?0@
??_C@_01KMDKNFGN@?1@
??_C@_03BMLMMEDG@?$CC?4?6@
??_C@_03GBBABMJN@uri@
??_C@_03HAPOJHBM@GET@
??_C@_04HCJEIHPL@POST@
??_C@_04MKCNCBEG@PLAY@
??_C@_05DIAHPDGL@PAUSE@
??_C@_05ELABLNGD@realm@
??_C@_05GFOLEBJA@?$CFs?1?$CFs@
??_C@_05MAJHNKMG@SETUP@
??_C@_05MPOCBGIH@ttl?$CFu@
??_C@_05OOEDLKEB@nonce@
??_C@_06DAENNINM@200?5OK@
??_C@_06HNPFILPF@?$CF?$CKs?5?$CFs@
??_C@_06MDEHPNLG@Accept@
??_C@_07BKAEGPOL@?$CF?$FL?$FO?$DL?$AN?6?$FN@
??_C@_07KDKMIPIP@OPTIONS@
??_C@_08DKNLJHMJ@DESCRIBE@
??_C@_08EINEADGI@REGISTER@
??_C@_08EMGLLKBM@?$CF?$FL?$FO?$DN?$FN?$DN?$CC?$CC@
??_C@_08HKMEAON@response@
??_C@_08JNACAMMP@TEARDOWN@
??_C@_08ODGEKKOL@username@
??_C@_0BA@DKCLPAFJ@client_port?$DN?$CFhu@
??_C@_0BA@PKEAILCJ@x?9sessioncookie@
??_C@_0BB@CGBLDDJB@reuse_connection@
??_C@_0BB@CLEOLCOF@401?5Unauthorized@
??_C@_0BC@FJJDNDEK@interleaved?$DN?$CFu?9?$CFu@
??_C@_0BC@KLFKBBJM@proxy_url_suffix?$DN@
??_C@_0BD@EPLFFHIP@Range?3?5npt?$DN?$CF?43f?9?$AN?6@
??_C@_0BD@HIGEPGO@Range?3?5clock?$DN?$CFs?9?$AN?6@
??_C@_0BE@JIMLELB@client_port?$DN?$CFhu?9?$CFhu@
??_C@_0BF@GFNCPHED@404?5Stream?5Not?5Found@
??_C@_0BF@IKMONKE@Range?3?5clock?$DN?$CFs?9?$CFs?$AN?6@
??_C@_0BG@GLCHJGAP@451?5Invalid?5parameter@
??_C@_0BG@IEIMKPNA@454?5Session?5Not?5Found@
??_C@_0BG@PANCHKAC@?5is?5not?5a?5RTSP?5server@
??_C@_0BH@IKIDBAIA@Authorization?3?5Digest?5@
??_C@_0BH@MJIMLJCP@Range?3?5npt?$DN?$CF?43f?9?$CF?43f?$AN?6@
??_C@_0BJ@GADDCDD@registeredProxyStream?9?$CFu@
??_C@_0BK@DLHJGFFK@461?5Unsupported?5Transport@
??_C@_0BM@DEKONJMC@RTSP?11?40?5?$CFs?$AN?6CSeq?3?5?$CFs?$AN?6?$CFs?$AN?6@
??_C@_0BN@DKLMKBPN@application?1x?9rtsp?9tunnelled@
??_C@_0BP@HIBFLCOM@HTTP?11?41?5404?5Not?5Found?$AN?6?$CFs?$AN?6?$AN?6@
??_C@_0CA@LGJDBNOD@?$CFs?$CFsurl?$DN?$CFs?1?$CFs?$DLseq?$DN?$CFd?$DLrtptime?$DN?$CFu@
??_C@_0CA@LNOFOKIO@preferred_delivery_protocol?$DNudp@
??_C@_0CC@BNIBGEKK@?7Play?5this?5stream?5using?5the?5URL@
??_C@_0CI@HHNFGPIK@HTTP?11?41?5405?5Method?5Not?5Allowed@
??_C@_0CI@OEMMJMAN@preferred_delivery_protocol?$DNint@
??_C@_0CK@BMODFBPG@Proxying?5the?5registered?5back?9en@
??_C@_0CK@GLDLBEFP@RTSP?11?40?5400?5Bad?5Request?$AN?6?$CFsAll@
??_C@_0CL@BNPBBJDL@RTSP?11?40?5?$CFs?$AN?6CSeq?3?5?$CFs?$AN?6?$CFsSessio@
??_C@_0CL@PNDPNHNN@404?5File?5Not?5Found?0?5Or?5In?5Incor@
??_C@_0CM@HMKDOPCJ@RTSP?11?40?5200?5OK?$AN?6CSeq?3?5?$CFs?$AN?6?$CFsPu@
??_C@_0DC@LDCGDIPC@RTSP?11?40?5?$CFs?$AN?6CSeq?3?5?$CFs?$AN?6?$CFsConten@
??_C@_0DF@MKOCIBPB@RTSP?11?40?5200?5OK?$AN?6CSeq?3?5?$CFs?$AN?6?$CFs?$CFs@
??_C@_0DL@IGCLNNAA@RTSP?11?40?5405?5Method?5Not?5Allowed@
??_C@_0EB@COLCIADB@RTSP?11?40?5?$CFs?$AN?6CSeq?3?5?$CFs?$AN?6?$CFsSessio@
??_C@_0EO@OAFMOBGD@OPTIONS?0?5DESCRIBE?0?5SETUP?0?5TEARD@
??_C@_0FL@LJNENHIB@RTSP?11?40?5401?5Unauthorized?$AN?6CSeq@
??_C@_0GI@ODNGBEKK@RTSP?11?40?5200?5OK?$AN?6CSeq?3?5?$CFs?$AN?6?$CFsCo@
??_C@_0GN@BLEKHAFO@HTTP?11?41?5200?5OK?$AN?6?$CFsCache?9Contro@
??_C@_0HC@GEAJJPGJ@RTSP?11?40?5200?5OK?$AN?6CSeq?3?5?$CFs?$AN?6?$CFsTr@
??_C@_0HK@KHNLJLNI@RTSP?11?40?5200?5OK?$AN?6CSeq?3?5?$CFs?$AN?6?$CFsTr@
??_C@_0HM@JIKFFFJF@RTSP?11?40?5200?5OK?$AN?6CSeq?3?5?$CFs?$AN?6?$CFsTr@
??_C@_0HP@IHOKKDOE@RTSP?11?40?5200?5OK?$AN?6CSeq?3?5?$CFs?$AN?6?$CFsTr@
??_C@_0IK@IHIAEHEG@RTSP?11?40?5200?5OK?$AN?6CSeq?3?5?$CFs?$AN?6?$CFsTr@
??_C@_0L@DOFGEFOJ@RTP?9Info?3?5@
??_C@_0L@FKHNMDHH@Transport?3@
??_C@_0L@GIBLIOK@?0?5REGISTER@
??_C@_0L@MCNFKKAB@rtsp?3?1?1?$CFs?1@
??_C@_0L@OMKALJGN@x?9playNow?3@
??_C@_0M@BOHEMAHL@RTP?1AVP?1TCP@
??_C@_0M@NDLCGGFL@RAW?1RAW?1UDP@
??_C@_0M@PDHDKCMI@?$DLtimeout?$DN?$CFu@
??_C@_0M@PEGEHOCM@Scale?3?5?$CFf?$AN?6@
??_C@_0MP@KFOALKEO@HTTP?11?41?5200?5OK?$AN?6?$CFsAccess?9Contr@
??_C@_0N@EBEHNCLA@destination?$DN@
??_C@_0O@BNFDDPKO@SET_PARAMETER@
??_C@_0O@CCLBNLND@?$CF?$FL?$FO?$DN?$FN?$DN?$CC?$CF?$FL?$FO?$CC?$FN?$CC@
??_C@_0O@GCENIMNJ@GET_PARAMETER@
??_C@_0P@BPIFDHD@rtsp?3?1?1?$CFs?3?$CFhu?1@
??_C@_0P@LMBMNIIM@MP2T?1H2221?1UDP@
??_GParamsForREGISTER@RTSPClientConnection@RTSPServer@@UEAAPEAXI@Z
??_GRTSPClientConnection@RTSPServer@@MEAAPEAXI@Z
??_GRTSPClientSession@RTSPServer@@MEAAPEAXI@Z
??_GRTSPServer@@MEAAPEAXI@Z
??_GRTSPServerWithREGISTERProxying@@MEAAPEAXI@Z
??_GRegisterRequestRecord@@UEAAPEAXI@Z
??_GstreamingOverTCPRecord@@UEAAPEAXI@Z
??_R0?AVClientSession@GenericMediaServer@@@8
??_R0?AVParamsForREGISTER@RTSPClientConnection@RTSPServer@@@8
??_R0?AVRTSPClient@@@8
??_R0?AVRTSPClientSession@RTSPServer@@@8
??_R0?AVRTSPRegisterSender@@@8
??_R0?AVRTSPServerWithREGISTERProxying@@@8
??_R0?AVRegisterRequestRecord@@@8
??_R0?AVstreamingOverTCPRecord@@@8
??_R1A@?0A@EA@ClientSession@GenericMediaServer@@8
??_R1A@?0A@EA@ParamsForREGISTER@RTSPClientConnection@RTSPServer@@8
??_R1A@?0A@EA@RTSPClient@@8
??_R1A@?0A@EA@RTSPClientSession@RTSPServer@@8
??_R1A@?0A@EA@RTSPRegisterSender@@8
??_R1A@?0A@EA@RTSPServerWithREGISTERProxying@@8
??_R1A@?0A@EA@RegisterRequestRecord@@8
??_R1A@?0A@EA@streamingOverTCPRecord@@8
??_R2ClientSession@GenericMediaServer@@8
??_R2ParamsForREGISTER@RTSPClientConnection@RTSPServer@@8
??_R2RTSPClient@@8
??_R2RTSPClientSession@RTSPServer@@8
??_R2RTSPRegisterSender@@8
??_R2RTSPServerWithREGISTERProxying@@8
??_R2RegisterRequestRecord@@8
??_R2streamingOverTCPRecord@@8
??_R3ClientSession@GenericMediaServer@@8
??_R3ParamsForREGISTER@RTSPClientConnection@RTSPServer@@8
??_R3RTSPClient@@8
??_R3RTSPClientSession@RTSPServer@@8
??_R3RTSPRegisterSender@@8
??_R3RTSPServerWithREGISTERProxying@@8
??_R3RegisterRequestRecord@@8
??_R3streamingOverTCPRecord@@8
??_R4ParamsForREGISTER@RTSPClientConnection@RTSPServer@@6B@
??_R4RTSPClientConnection@RTSPServer@@6B@
??_R4RTSPClientSession@RTSPServer@@6B@
??_R4RTSPServer@@6B@
??_R4RTSPServerWithREGISTERProxying@@6B@
??_R4RegisterRequestRecord@@6B@
??_R4streamingOverTCPRecord@@6B@
?allowedCommandNames@RTSPServer@@MEAAPEBDXZ
?allowedCommandNames@RTSPServerWithREGISTERProxying@@MEAAPEBDXZ
?authenticationOK@RTSPClientConnection@RTSPServer@@IEAA_NPEBD00@Z
?changeClientInputSocket@RTSPClientConnection@RTSPServer@@IEAAXHPEBEI@Z
?closeSocketsRTSP@RTSPClientConnection@RTSPServer@@IEAAXXZ
?continueHandlingREGISTER1@RTSPClientConnection@RTSPServer@@MEAAXPEAVParamsForREGISTER@12@@Z
?continueHandlingREGISTER@RTSPClientConnection@RTSPServer@@KAXPEAVParamsForREGISTER@12@@Z
?createNew@RTSPServer@@SAPEAV1@AEAVUsageEnvironment@@VPort@@PEAVUserAuthenticationDatabase@@I@Z
?createNew@RTSPServerWithREGISTERProxying@@SAPEAV1@AEAVUsageEnvironment@@VPort@@PEAVUserAuthenticationDatabase@@2I_NH@Z
?createNewClientConnection@RTSPServer@@MEAAPEAVClientConnection@GenericMediaServer@@HUsockaddr_in@@@Z
?createNewClientSession@RTSPServer@@MEAAPEAVClientSession@GenericMediaServer@@I@Z
?decrementReferenceCount@ServerMediaSession@@QEAAXXZ
?deleteStreamByTrack@RTSPClientSession@RTSPServer@@IEAAXI@Z
?deleteWhenUnreferenced@ServerMediaSession@@QEAAAEA_NXZ
?getAuthenticationDatabaseForCommand@RTSPServer@@MEAAPEAVUserAuthenticationDatabase@@PEBD@Z
?getAuthenticationDatabaseForCommand@RTSPServerWithREGISTERProxying@@MEAAPEAVUserAuthenticationDatabase@@PEBD@Z
?handleAlternativeRequestByte1@RTSPClientConnection@RTSPServer@@IEAAXE@Z
?handleAlternativeRequestByte@RTSPClientConnection@RTSPServer@@KAXPEAXE@Z
?handleCmd_DESCRIBE@RTSPClientConnection@RTSPServer@@MEAAXPEBD00@Z
?handleCmd_GET_PARAMETER@RTSPClientConnection@RTSPServer@@MEAAXPEBD@Z
?handleCmd_GET_PARAMETER@RTSPClientSession@RTSPServer@@MEAAXPEAVRTSPClientConnection@2@PEAVServerMediaSubsession@@PEBD@Z
?handleCmd_OPTIONS@RTSPClientConnection@RTSPServer@@MEAAXXZ
?handleCmd_PAUSE@RTSPClientSession@RTSPServer@@MEAAXPEAVRTSPClientConnection@2@PEAVServerMediaSubsession@@@Z
?handleCmd_PLAY@RTSPClientSession@RTSPServer@@MEAAXPEAVRTSPClientConnection@2@PEAVServerMediaSubsession@@PEBD@Z
?handleCmd_REGISTER@RTSPClientConnection@RTSPServer@@MEAAXPEBD00_N10@Z
?handleCmd_SETUP@RTSPClientSession@RTSPServer@@MEAAXPEAVRTSPClientConnection@2@PEBD11@Z
?handleCmd_SET_PARAMETER@RTSPClientConnection@RTSPServer@@MEAAXPEBD@Z
?handleCmd_SET_PARAMETER@RTSPClientSession@RTSPServer@@MEAAXPEAVRTSPClientConnection@2@PEAVServerMediaSubsession@@PEBD@Z
?handleCmd_TEARDOWN@RTSPClientSession@RTSPServer@@MEAAXPEAVRTSPClientConnection@2@PEAVServerMediaSubsession@@@Z
?handleCmd_bad@RTSPClientConnection@RTSPServer@@MEAAXXZ
?handleCmd_notFound@RTSPClientConnection@RTSPServer@@MEAAXXZ
?handleCmd_notSupported@RTSPClientConnection@RTSPServer@@MEAAXXZ
?handleCmd_sessionNotFound@RTSPClientConnection@RTSPServer@@MEAAXXZ
?handleCmd_unsupportedTransport@RTSPClientConnection@RTSPServer@@MEAAXXZ
?handleCmd_withinSession@RTSPClientSession@RTSPServer@@MEAAXPEAVRTSPClientConnection@2@PEBD111@Z
?handleHTTPCmd_OPTIONS@RTSPClientConnection@RTSPServer@@MEAAXXZ
?handleHTTPCmd_StreamingGET@RTSPClientConnection@RTSPServer@@MEAAXPEBD0@Z
?handleHTTPCmd_TunnelingGET@RTSPClientConnection@RTSPServer@@MEAAXPEBD@Z
?handleHTTPCmd_TunnelingPOST@RTSPClientConnection@RTSPServer@@MEAA_NPEBDPEBEI@Z
?handleHTTPCmd_notFound@RTSPClientConnection@RTSPServer@@MEAAXXZ
?handleHTTPCmd_notSupported@RTSPClientConnection@RTSPServer@@MEAAXXZ
?handleRequestBytes@RTSPClientConnection@RTSPServer@@MEAAXH@Z
?handleResponse@RegisterRequestRecord@@QEAAXHPEAD@Z
?httpServerPortNum@RTSPServer@@QEBAGXZ
?implementCmd_REGISTER@RTSPServer@@MEAAXPEBD0H_N0@Z
?implementCmd_REGISTER@RTSPServerWithREGISTERProxying@@MEAAXPEBD0H_N0@Z
?incomingConnectionHandlerHTTP@RTSPServer@@AEAAXXZ
?incomingConnectionHandlerHTTP@RTSPServer@@CAXPEAXH@Z
?incrementReferenceCount@ServerMediaSession@@QEAAXXZ
?isRTSPServer@RTSPServer@@EEBA_NXZ
?lookupByName@RTSPServer@@SA_NAEAVUsageEnvironment@@PEBDAEAPEAV1@@Z
?noteTCPStreamingOnSocket@RTSPServer@@AEAAXHPEAVRTSPClientSession@1@I@Z
?parseHTTPRequestString@RTSPClientConnection@RTSPServer@@MEAA_NPEADI0I0I0I@Z
?passwordsAreMD5@UserAuthenticationDatabase@@QEAA_NXZ
?realm@UserAuthenticationDatabase@@QEAAPEBDXZ
?reclaimStreamStates@RTSPClientSession@RTSPServer@@IEAAXXZ
?referenceCount@ServerMediaSession@@QEBAIXZ
?registerStream@RTSPServer@@QEAAIPEAVServerMediaSession@@PEBDGP6AXPEAV1@IHPEAD@Z11_N1@Z
?resetRequestBuffer@RTSPClientConnection@RTSPServer@@IEAAXXZ
?rtspRegisterResponseHandler@@YAXPEAVRTSPClient@@HPEAD@Z
?rtspURL@RTSPServer@@QEBAPEADPEBVServerMediaSession@@H@Z
?rtspURLPrefix@RTSPServer@@QEBAPEADH@Z
?setAuthenticationDatabase@RTSPServer@@QEAAPEAVUserAuthenticationDatabase@@PEAV2@@Z
?setRTSPResponse@RTSPClientConnection@RTSPServer@@IEAAXPEBD0@Z
?setRTSPResponse@RTSPClientConnection@RTSPServer@@IEAAXPEBD@Z
?setRTSPResponse@RTSPClientConnection@RTSPServer@@IEAAXPEBDI0@Z
?setRTSPResponse@RTSPClientConnection@RTSPServer@@IEAAXPEBDI@Z
?setRTSPResponse@RTSPClientSession@RTSPServer@@IEAAXPEAVRTSPClientConnection@2@PEBD@Z
?setRTSPResponse@RTSPClientSession@RTSPServer@@IEAAXPEAVRTSPClientConnection@2@PEBDI1@Z
?setRTSPResponse@RTSPClientSession@RTSPServer@@IEAAXPEAVRTSPClientConnection@2@PEBDI@Z
?setUpTunnelingOverHTTP@RTSPServer@@QEAA_NVPort@@@Z
?specialClientAccessCheck@RTSPServer@@MEAA_NHAEAUsockaddr_in@@PEBD@Z
?specialClientUserAccessCheck@RTSPServer@@MEAA_NHAEAUsockaddr_in@@PEBD1@Z
?stopTCPStreamingOnSocket@RTSPServer@@AEAAXH@Z
?streamName@ServerMediaSession@@QEBAPEBDXZ
?unnoteTCPStreamingOnSocket@RTSPServer@@AEAAXHPEAVRTSPClientSession@1@I@Z
?weImplementREGISTER@RTSPServer@@MEAA_NPEBDAEAPEAD@Z
?weImplementREGISTER@RTSPServerWithREGISTERProxying@@MEAA_NPEBDAEAPEAD@Z
??0RTSPRegisterSender@@IEAA@AEAVUsageEnvironment@@PEBDG1P6AXPEAVRTSPClient@@HPEAD@ZPEAVAuthenticator@@_N16H1@Z
??0RequestRecord_REGISTER@RTSPRegisterSender@@QEAA@IP6AXPEAVRTSPClient@@HPEAD@ZPEBD_N43@Z
??1RTSPRegisterSender@@MEAA@XZ
??1RequestRecord_REGISTER@RTSPRegisterSender@@UEAA@XZ
??_7RTSPRegisterSender@@6B@
??_7RequestRecord_REGISTER@RTSPRegisterSender@@6B@
??_C@_03OCLLGKEH@udp@
??_C@_0BD@GKDANCIF@reuse_connection?$DL?5@
??_C@_0BG@BMLHLMPH@?$DL?5proxy_url_suffix?$DN?$CFs@
??_C@_0DA@FHIPFLCK@Transport?3?5?$CFspreferred_delivery@
??_C@_0M@IFPEBLHO@interleaved@
??_C@_0O@NMFJMNOF@rtsp?3?1?1?$CFs?3?$CFu?1@
??_GRTSPRegisterSender@@MEAAPEAXI@Z
??_GRequestRecord_REGISTER@RTSPRegisterSender@@UEAAPEAXI@Z
??_R0?AVRequestRecord@RTSPClient@@@8
??_R0?AVRequestRecord_REGISTER@RTSPRegisterSender@@@8
??_R1A@?0A@EA@RequestRecord@RTSPClient@@8
??_R1A@?0A@EA@RequestRecord_REGISTER@RTSPRegisterSender@@8
??_R2RequestRecord@RTSPClient@@8
??_R2RequestRecord_REGISTER@RTSPRegisterSender@@8
??_R3RequestRecord@RTSPClient@@8
??_R3RequestRecord_REGISTER@RTSPRegisterSender@@8
??_R4RTSPRegisterSender@@6B@
??_R4RequestRecord_REGISTER@RTSPRegisterSender@@6B@
?commandName@RequestRecord@RTSPClient@@QEBAPEBDXZ
?createNew@RTSPRegisterSender@@SAPEAV1@AEAVUsageEnvironment@@PEBDG1P6AXPEAVRTSPClient@@HPEAD@ZPEAVAuthenticator@@_N16H1@Z
?grabConnection@RTSPRegisterSender@@QEAAXAEAHAEAUsockaddr_in@@@Z
?proxyURLSuffix@RequestRecord_REGISTER@RTSPRegisterSender@@QEBAPEBDXZ
?requestStreamingViaTCP@RequestRecord_REGISTER@RTSPRegisterSender@@QEBA_NXZ
?reuseConnection@RequestRecord_REGISTER@RTSPRegisterSender@@QEBA_NXZ
?rtspURLToRegister@RequestRecord_REGISTER@RTSPRegisterSender@@QEBAPEBDXZ
?setRequestFields@RTSPRegisterSender@@MEAA_NPEAVRequestRecord@RTSPClient@@AEAPEADAEA_NAEAPEBD12@Z
?url@RTSPClient@@QEBAPEBDXZ
??_C@_01GFHCPBMG@C@
??_C@_02GMHACPFF@?$CFu@
??_C@_02NJPGOMH@?$CFf@
??_C@_05MECAEIKK@CSeq?3@
??_C@_06EANJGPKL@Scale?3@
??_C@_07JHDBFNO@Range?3?5@
??_C@_08KJDEHNO@Session?3@
??_C@_0BA@BFBDGILN@npt?5?$DN?5?$CFlf?5?9?5?$CFlf@
??_C@_0BA@DIGAFIOK@Content?9Length?3@
??_C@_0BA@PKNFJJJK@npt?5?$DN?5now?5?9?5?$CFlf@
??_C@_0CC@EPCKNFFG@Date?3?5?$CFa?0?5?$CFb?5?$CFd?5?$CFY?5?$CFH?3?$CFM?3?$CFS?5GMT@
??_C@_0L@DEOHIBDH@smtpe?5?$DN?5?$CFn@
??_C@_0L@PJENLPPL@clock?5?$DN?5?$CFn@
??_C@_0N@OODBPBMK@?$CF?$FL?$FO?9?$FN?9?$CF?$FL?$FO?$AN?6?$FN@
??_C@_0O@JFADLHFL@npt?5?$DN?5now?5?9?$CFn@
??_C@_0O@KEMHPPB@npt?5?$DN?5?$CFn?$CFlf?5?9@
?RTSPOptionIsSupported@@YA_NPEBD0@Z
?dateHeader@@YAPEBDXZ
?parseRTSPRequestString@@YA_NPEBDIPEADI1I1I1I1IAEAI@Z
?parseRangeHeader@@YA_NPEBDAEAN1AEAPEAD2AEA_N@Z
?parseRangeParam@@YA_NPEBDAEAN1AEAPEAD2AEA_N@Z
?parseScaleHeader@@YA_NPEBDAEAM@Z
??0HandlerServerForREGISTERCommand@@IEAA@AEAVUsageEnvironment@@P6AXPEAVRTSPClient@@_N@ZHVPort@@PEAVUserAuthenticationDatabase@@HPEBD@Z
??0RTSPClient@@IEAA@AEAVUsageEnvironment@@PEBDH1GH@Z
??0RequestQueue@RTSPClient@@QEAA@AEAV01@@Z
??0RequestQueue@RTSPClient@@QEAA@XZ
??0RequestRecord@RTSPClient@@QEAA@IP6AXPEAV1@HPEAD@ZPEBD3MPEAVMediaSession@@PEAVMediaSubsession@@@Z
??0RequestRecord@RTSPClient@@QEAA@IPEBDP6AXPEAV1@HPEAD@ZPEAVMediaSession@@PEAVMediaSubsession@@INNM0@Z
??1HandlerServerForREGISTERCommand@@MEAA@XZ
??1RTSPClient@@MEAA@XZ
??1RequestQueue@RTSPClient@@UEAA@XZ
??1RequestRecord@RTSPClient@@UEAA@XZ
??_7HandlerServerForREGISTERCommand@@6B@
??_7RTSPClient@@6B@
??_7RequestQueue@RTSPClient@@6B@
??_7RequestRecord@RTSPClient@@6B@
??_C@_01NBENCBCI@?$CK@
??_C@_02PHMGELLB@?6?6@
??_C@_03KHICJKCI@?4?4?4@
??_C@_03OPEAKHDL@UDP@
??_C@_03PEPJKNAL@?$CJ?6?6@
??_C@_04LLEBNMDN@?$CFs?$AN?6@
??_C@_04LOAJBDKD@true@
??_C@_04MPPNMCOK@?4?4?4?6@
??_C@_05CCMOGDN@?$CFs?3?$CFs@
??_C@_05FKGGGFPK@?$CF?$FL?$FO?$DL?$FN@
??_C@_05KGDBKOGE@?$DLport@
??_C@_06DIJPEION@?$CFs?$CFs?$CFs@
??_C@_06EMNBJMOD@Speed?3@
??_C@_06HBEFMBJ@?$CF?$FL?$FO?$DL?0?$FN@
??_C@_06KOEFFJON@RECORD@
??_C@_06LEEJEMNI@Allow?3@
??_C@_06MHCCOJOO@Digest@
??_C@_06PODHNFME@Range?3@
??_C@_07BAGGLMKM@source?$DN@
??_C@_07EBEDALEI@Public?3@
??_C@_07HLCDDPND@seq?$DN?$CFhu@
??_C@_07KGHAPMJG@rtsp?3?1?1@
??_C@_07LBPCHJMO@?7?$CIplus?5@
??_C@_07MKPDCBEI@unicast@
??_C@_08GMBOPOEI@RTSP?11?40@
??_C@_08HCNIHNDL@ANNOUNCE@
??_C@_08HKGMJBDL@?$CFs?3?5?$CFs?$AN?6@
??_C@_08IJEMDJGI@HTTP?11?41@
??_C@_08KJEDNCKC@?$CFs?$CFs?$CFs?$CFs@
??_C@_08NBALCAFG@port?$DN?$CFhu@
??_C@_08OFLMLEIA@?$DLunicast@
??_C@_09DFMBCCP@RTP?9Info?3@
??_C@_09GILIFLDG@Location?3@
??_C@_09GPGAJHPD@?$CIunknown?$CJ@
??_C@_09IJFMCGII@?$CFn?$CF2hhx?$CFn@
??_C@_09LPEBMKJP@Received?5@
??_C@_0BA@BDBOHKHA@server_port?$DN?$CFhu@
??_C@_0BA@JGBNEGII@Blocksize?3?5?$CFu?$AN?6@
??_C@_0BC@EALNDOCH@WWW?9Authenticate?3@
??_C@_0BC@FGDALOJI@?$CC?5request?5?$CICSeq?3?5@
??_C@_0BC@LHLKFANL@OPTIONS?0?5REGISTER@
??_C@_0BD@EHFBJGJL@?5total?5bytes?5of?5a?5@
??_C@_0BD@ILKMIIBE@connect?$CI?$CJ?5failed?3?5@
??_C@_0BD@JJNAHNBJ@?$CFs?5send?$CI?$CJ?5failed?3?5@
??_C@_0BE@BOFBMBBO@Basic?5realm?$DN?$CC?$CF?$FL?$FO?$CC?$FN?$CC@
??_C@_0BE@FOEFBLCA@Bad?5?$CCSpeed?3?$CC?5header@
??_C@_0BE@FOJBINOO@?5additional?5bytes?$CJ?6@
??_C@_0BE@NGHPODCO@Bad?5?$CCRange?3?$CC?5header@
??_C@_0BE@NIAIINFA@Bad?5?$CCScale?3?$CC?5header@
??_C@_0BF@HLGLDBCH@Content?9Length?3?5?$CFd?$AN?6@
??_C@_0BF@NJILFOPM@Received?5a?5complete?5@
??_C@_0BG@JKNOCGPH@Bad?5?$CCCSeq?3?$CC?5header?3?5?$CC@
??_C@_0BG@LPJAKBIB@?5is?5not?5a?5RTSP?5client@
??_C@_0BH@ILOLIPCH@Bad?5?$CCRTP?9Info?3?$CC?5header@
??_C@_0BH@LLHDAIJL@Opening?5connection?5to?5@
??_C@_0BK@DBDLHKLA@Authorization?3?5Basic?5?$CFs?$AN?6@
??_C@_0BK@NMLIDJKN@?5RTSP?5response?$DL?5awaiting?5@
??_C@_0BK@PJBJHPJP@Accept?3?5application?1sdp?$AN?6@
??_C@_0BM@BPAGHFNO@Client?5port?5number?5unknown?6@
??_C@_0BM@PLAJEHLC@?4?4?4local?5connection?5opened?6@
??_C@_0BN@IAENGBFO@?4?4?4remote?5connection?5opened?6@
??_C@_0BN@JAOLJHPM@Bad?5?$CCGET_PARAMETER?$CC?5response@
??_C@_0BO@FCLGDEIE@?5new?5bytes?5of?5response?5data?4?6@
??_C@_0BO@NIBDKDOP@Connection?5to?5server?5failed?3?5@
??_C@_0CA@NAIPKPJL@Content?9Type?3?5application?1sdp?$AN?6@
??_C@_0CB@FEBNPLED@Missing?5or?5bad?5?$CCSession?3?$CC?5heade@
??_C@_0CB@JEACHBPF@Transport?3?5RTP?1AVP?$CFs?$CFs?$CFs?$DN?$CFd?9?$CFd?$AN@
??_C@_0CB@NJHFAJGF@Received?5incoming?5RTSP?5request?3@
??_C@_0CB@PNOCLDNB@?$CFs?5?$CFs?5?$CFs?$AN?6CSeq?3?5?$CFd?$AN?6?$CFs?$CFs?$CFs?$CFs?$AN?6?$CF@
??_C@_0CD@KHFPNAFB@Missing?5or?5bad?5?$CCTransport?3?$CC?5hea@
??_C@_0CE@HNHLMEGI@Digest?5realm?$DN?$CC?$CF?$FL?$FO?$CC?$FN?$CC?0?5nonce?$DN?$CC?$CF?$FL@
??_C@_0CF@JFBGNNDA@Transport?3?5RAW?1RAW?1UDP?$CFs?$CFs?$CFs?$DN?$CFd@
??_C@_0CG@MGDBEPA@?7The?5request?5was?5base?964?5encode@
??_C@_0CK@BGMHFFOK@No?5RTSP?5session?5is?5currently?5in@
??_C@_0CN@KDJFDPCM@WARNING?3?5The?5server?5did?5not?5res@
??_C@_0CO@FPBKDHGH@RTSP?11?40?5405?5Method?5Not?5Allowed@
??_C@_0CO@NJLOOPAP@Requesting?5RTSP?9over?9HTTP?5tunne@
??_C@_0DF@GNGIOEMM@Digest?5realm?$DN?$CC?$CF?$FL?$FO?$CC?$FN?$CC?0?5nonce?$DN?$CC?$CF?$FL@
??_C@_0EH@DMICNAHG@RTSP?5response?5was?5truncated?4?5In@
??_C@_0FH@KANEGNIK@Authorization?3?5Digest?5username?$DN@
??_C@_0FI@JNANJFPI@?$CJ?4?5?5The?5server?5appears?5to?5be?5bu@
??_C@_0GE@BCAGJNAA@Response?5buffer?5size?5?$CI?$CFd?$CJ?5is?5to@
??_C@_0HB@NBKINPJA@Host?3?5?$CFs?$AN?6x?9sessioncookie?3?5?$CFs?$AN?6@
??_C@_0L@IADEBIDH@rtptime?$DN?$CFu@
??_C@_0L@MCDFJPKI@HTTP?1?$CF?$CKs?$CFu@
??_C@_0L@OKANGOCO@RTSP?1?$CF?$CKs?$CFu@
??_C@_0L@PBGKGDEP@?$DLmulticast@
??_C@_0LF@KFINBKFE@Host?3?5?$CFs?$AN?6x?9sessioncookie?3?5?$CFs?$AN?6@
??_C@_0M@EGHMOPCK@?5response?3?6@
??_C@_0N@BBOFMJBP@?$DLinterleaved@
??_C@_0N@FBAMOALJ@?1TCP?$DLunicast@
??_C@_0N@HODKIOIF@port?$DN?$CFhu?9?$CFhu@
??_C@_0N@IIBAEBGC@?$DLclient_port@
??_C@_0O@CJBEPOMH@?5bytes?5more?4?6@
??_C@_0O@DHJPPONM@?$DLmode?$DNreceive@
??_C@_0O@GEGFLKHA@Content?9Base?3@
??_C@_0O@GOBFNKKF@Speed?3?5?$CF?43f?$AN?6@
??_C@_0O@LAIMJOHG@Session?3?5?$CFs?$AN?6@
??_C@_0O@LAPHBEJC@Resending?4?4?4?6@
??_C@_0P@CKFGAOEB@?$DL?5timeout?5?$DN?5?$CFd@
??_C@_0P@PMJJEMON@Have?5received?5@
??_GHandlerServerForREGISTERCommand@@MEAAPEAXI@Z
??_GRTSPClient@@MEAAPEAXI@Z
??_GRequestQueue@RTSPClient@@UEAAPEAXI@Z
??_GRequestRecord@RTSPClient@@UEAAPEAXI@Z
??_R0?AVHandlerServerForREGISTERCommand@@@8
??_R0?AVRequestQueue@RTSPClient@@@8
??_R1A@?0A@EA@HandlerServerForREGISTERCommand@@8
??_R1A@?0A@EA@RequestQueue@RTSPClient@@8
??_R2HandlerServerForREGISTERCommand@@8
??_R2RequestQueue@RTSPClient@@8
??_R3HandlerServerForREGISTERCommand@@8
??_R3RequestQueue@RTSPClient@@8
??_R4HandlerServerForREGISTERCommand@@6B@
??_R4RTSPClient@@6B@
??_R4RequestQueue@RTSPClient@@6B@
??_R4RequestRecord@RTSPClient@@6B@
?RTCPgs@RTCPInstance@@QEBAPEAVGroupsock@@XZ
?RTPgs@RTPSource@@QEBAPEAVGroupsock@@XZ
?_absEndTime@MediaSession@@QEAAAEAPEADXZ
?_absEndTime@MediaSubsession@@QEAAAEAPEADXZ
?_absStartTime@MediaSession@@QEAAAEAPEADXZ
?_absStartTime@MediaSubsession@@QEAAAEAPEADXZ
?_playEndTime@MediaSubsession@@QEAAAEANXZ
?_playStartTime@MediaSubsession@@QEAAAEANXZ
?absEndTime@RequestRecord@RTSPClient@@QEBAPEBDXZ
?absStartTime@RequestRecord@RTSPClient@@QEBAPEBDXZ
?allowedCommandNames@HandlerServerForREGISTERCommand@@MEAAPEBDXZ
?booleanFlags@RequestRecord@RTSPClient@@QEBAIXZ
?changeResponseHandler@RTSPClient@@QEAA_NIP6AXPEAV1@HPEAD@Z@Z
?checkForHeader@RTSPClient@@CA_NPEBD0IAEAPEBD@Z
?clientPortNum@MediaSubsession@@QEBAGXZ
?connectToServer@RTSPClient@@AEAAHHG@Z
?connectionEndpointName@MediaSubsession@@QEAAAEAPEADXZ
?connectionHandler1@RTSPClient@@AEAAXXZ
?connectionHandler@RTSPClient@@CAXPEAXH@Z
?constructSubsessionURL@RTSPClient@@AEAAXAEBVMediaSubsession@@AEAPEBD11@Z
?contentStr@RequestRecord@RTSPClient@@QEBAPEADXZ
?controlPath@MediaSession@@QEBAPEBDXZ
?controlPath@MediaSubsession@@QEBAPEBDXZ
?createAuthenticatorString@RTSPClient@@AEAAPEADPEBD0@Z
?createBlocksizeString@RTSPClient@@AEAAPEAD_N@Z
?createNew@HandlerServerForREGISTERCommand@@SAPEAV1@AEAVUsageEnvironment@@P6AXPEAVRTSPClient@@_N@ZVPort@@PEAVUserAuthenticationDatabase@@HPEBD@Z
?createNew@RTSPClient@@SAPEAV1@AEAVUsageEnvironment@@PEBDH1GH@Z
?createNewRTSPClient@HandlerServerForREGISTERCommand@@MEAAPEAVRTSPClient@@PEBDH0H@Z
?cseq@RequestRecord@RTSPClient@@QEAAAEAIXZ
?dequeue@RequestQueue@RTSPClient@@QEAAPEAVRequestRecord@2@XZ
?enableRTCPReports@RTPSource@@QEAAAEA_NXZ
?end@RequestRecord@RTSPClient@@QEBANXZ
?enqueue@RequestQueue@RTSPClient@@QEAAXPEAVRequestRecord@2@@Z
?findByCSeq@RequestQueue@RTSPClient@@QEAAPEAVRequestRecord@2@I@Z
?grabSocket@RTSPClient@@IEAAHXZ
?gs@RTPInterface@@QEBAPEAVGroupsock@@XZ
?handleAlternativeRequestByte1@RTSPClient@@AEAAXE@Z
?handleAlternativeRequestByte@RTSPClient@@CAXPEAXE@Z
?handleAuthenticationFailure@RTSPClient@@AEAA_NPEBD@Z
?handleGET_PARAMETERResponse@RTSPClient@@AEAA_NPEBDAEAPEADPEAD@Z
?handleIncomingRequest@RTSPClient@@AEAAXXZ
?handlePLAYResponse@RTSPClient@@AEAA_NAEAVMediaSession@@AEAVMediaSubsession@@PEBD222@Z
?handleRequestError@RTSPClient@@AEAAXPEAVRequestRecord@1@@Z
?handleResponseBytes@RTSPClient@@AEAAXH@Z
?handleSETUPResponse@RTSPClient@@AEAA_NAEAVMediaSubsession@@PEBD1_N@Z
?handleTEARDOWNResponse@RTSPClient@@AEAA_NAEAVMediaSession@@AEAVMediaSubsession@@@Z
?handler@RequestRecord@RTSPClient@@QEAAAEAP6AXPEAV2@HPEAD@ZXZ
?implementCmd_REGISTER@HandlerServerForREGISTERCommand@@MEAAXPEBD0H_N0@Z
?incomingDataHandler1@RTSPClient@@AEAAXXZ
?incomingDataHandler@RTSPClient@@CAXPEAXH@Z
?isEmpty@RequestQueue@RTSPClient@@QEBA_NXZ
?isRTSPClient@RTSPClient@@EEBA_NXZ
?lookupByName@RTSPClient@@SA_NAEAVUsageEnvironment@@PEBDAEAPEAV1@@Z
?next@RequestRecord@RTSPClient@@QEAAAEAPEAV12@XZ
?openConnection@RTSPClient@@AEAAHXZ
?parentSession@MediaSubsession@@QEBAAEBVMediaSession@@XZ
?parseRTPInfoParams@RTSPClient@@AEAA_NAEAPEBDAEAGAEAI@Z
?parseRTSPURL@RTSPClient@@SA_NAEAVUsageEnvironment@@PEBDAEAPEAD2AEAVNetAddress@@AEAGPEAPEBD@Z
?parseResponseCode@RTSPClient@@AEAA_NPEBDAEAIAEAPEBD@Z
?parseScaleParam@RTSPClient@@AEAA_NPEBDAEAM@Z
?parseSpeedParam@RTSPClient@@AEAA_NPEBDAEAM@Z
?parseTransportParams@RTSPClient@@AEAA_NPEBDAEAPEADAEAGAEAE3@Z
?playEndTime@MediaSession@@QEAAAEANXZ
?playStartTime@MediaSession@@QEAAAEANXZ
?protocolName@MediaSubsession@@QEBAPEBDXZ
?putAtHead@RequestQueue@RTSPClient@@QEAAXPEAVRequestRecord@2@@Z
?resendCommand@RTSPClient@@AEAA_NPEAVRequestRecord@1@@Z
?reset@RTSPClient@@IEAAXXZ
?resetResponseBuffer@RTSPClient@@AEAAXXZ
?resetTCPSockets@RTSPClient@@AEAAXXZ
?responseBufferSize@RTSPClient@@2IA
?responseHandlerForHTTP_GET1@RTSPClient@@AEAAXHPEAD@Z
?responseHandlerForHTTP_GET@RTSPClient@@CAXPEAV1@HPEAD@Z
?rtcpInstance@MediaSubsession@@QEAAPEAVRTCPInstance@@XZ
?rtcpIsMuxed@MediaSubsession@@QEBA_NXZ
?rtpSource@MediaSubsession@@QEAAPEAVRTPSource@@XZ
?scale@MediaSession@@QEAAAEAMXZ
?scale@MediaSubsession@@QEAAAEAMXZ
?scale@RequestRecord@RTSPClient@@QEBAMXZ
?sendAnnounceCommand@RTSPClient@@QEAAIPEBDP6AXPEAV1@HPEAD@ZPEAVAuthenticator@@@Z
?sendDescribeCommand@RTSPClient@@QEAAIP6AXPEAV1@HPEAD@ZPEAVAuthenticator@@@Z
?sendDummyUDPPackets@RTSPClient@@QEAAXAEAVMediaSession@@I@Z
?sendDummyUDPPackets@RTSPClient@@QEAAXAEAVMediaSubsession@@I@Z
?sendGetParameterCommand@RTSPClient@@QEAAIAEAVMediaSession@@P6AXPEAV1@HPEAD@ZPEBDPEAVAuthenticator@@@Z
?sendOptionsCommand@RTSPClient@@QEAAIP6AXPEAV1@HPEAD@ZPEAVAuthenticator@@@Z
?sendPauseCommand@RTSPClient@@QEAAIAEAVMediaSession@@P6AXPEAV1@HPEAD@ZPEAVAuthenticator@@@Z
?sendPauseCommand@RTSPClient@@QEAAIAEAVMediaSubsession@@P6AXPEAV1@HPEAD@ZPEAVAuthenticator@@@Z
?sendPlayCommand@RTSPClient@@QEAAIAEAVMediaSession@@P6AXPEAV1@HPEAD@ZNNMPEAVAuthenticator@@@Z
?sendPlayCommand@RTSPClient@@QEAAIAEAVMediaSession@@P6AXPEAV1@HPEAD@ZPEBD4MPEAVAuthenticator@@@Z
?sendPlayCommand@RTSPClient@@QEAAIAEAVMediaSubsession@@P6AXPEAV1@HPEAD@ZNNMPEAVAuthenticator@@@Z
?sendPlayCommand@RTSPClient@@QEAAIAEAVMediaSubsession@@P6AXPEAV1@HPEAD@ZPEBD4MPEAVAuthenticator@@@Z
?sendRecordCommand@RTSPClient@@QEAAIAEAVMediaSession@@P6AXPEAV1@HPEAD@ZPEAVAuthenticator@@@Z
?sendRecordCommand@RTSPClient@@QEAAIAEAVMediaSubsession@@P6AXPEAV1@HPEAD@ZPEAVAuthenticator@@@Z
?sendRequest@RTSPClient@@MEAAIPEAVRequestRecord@1@@Z
?sendSetParameterCommand@RTSPClient@@QEAAIAEAVMediaSession@@P6AXPEAV1@HPEAD@ZPEBD4PEAVAuthenticator@@@Z
?sendSetupCommand@RTSPClient@@QEAAIAEAVMediaSubsession@@P6AXPEAV1@HPEAD@Z_N44PEAVAuthenticator@@@Z
?sendTeardownCommand@RTSPClient@@QEAAIAEAVMediaSession@@P6AXPEAV1@HPEAD@ZPEAVAuthenticator@@@Z
?sendTeardownCommand@RTSPClient@@QEAAIAEAVMediaSubsession@@P6AXPEAV1@HPEAD@ZPEAVAuthenticator@@@Z
?session@RequestRecord@RTSPClient@@QEBAPEAVMediaSession@@XZ
?sessionId@MediaSubsession@@QEBAPEBDXZ
?sessionURL@RTSPClient@@AEBAPEBDAEBVMediaSession@@@Z
?setBaseURL@RTSPClient@@IEAAXPEBD@Z
?setRequestFields@RTSPClient@@MEAA_NPEAVRequestRecord@1@AEAPEADAEA_NAEAPEBD12@Z
?setSpeed@RTSPClient@@QEAAXAEAVMediaSession@@M@Z
?setStreamSocket@RTPSource@@QEAAXHE@Z
?setUserAgentString@RTSPClient@@QEAAXPEBD@Z
?setupHTTPTunneling1@RTSPClient@@AEAA_NXZ
?setupHTTPTunneling2@RTSPClient@@AEAA_NXZ
?speed@MediaSession@@QEAAAEAMXZ
?speed@MediaSubsession@@QEAAAEAMXZ
?start@RequestRecord@RTSPClient@@QEBANXZ
?subsession@RequestRecord@RTSPClient@@QEBAPEAVMediaSubsession@@XZ
?weImplementREGISTER@HandlerServerForREGISTERCommand@@MEAA_NPEBDAEAPEAD@Z
??0Iterator@RTPReceptionStatsDB@@QEAA@AEAV1@@Z
??0RTPReceptionStats@@IEAA@I@Z
??0RTPReceptionStats@@IEAA@IG@Z
??0RTPReceptionStatsDB@@IEAA@XZ
??0RTPSource@@IEAA@AEAVUsageEnvironment@@PEAVGroupsock@@EI@Z
??1Iterator@RTPReceptionStatsDB@@UEAA@XZ
??1RTPReceptionStats@@MEAA@XZ
??1RTPReceptionStatsDB@@MEAA@XZ
??1RTPSource@@MEAA@XZ
??_7Iterator@RTPReceptionStatsDB@@6B@
??_7RTPReceptionStats@@6B@
??_7RTPReceptionStatsDB@@6B@
??_7RTPSource@@6B@
??_C@_0BF@OKBLDMAG@?5is?5not?5a?5RTP?5source@
??_GIterator@RTPReceptionStatsDB@@UEAAPEAXI@Z
??_GRTPReceptionStats@@MEAAPEAXI@Z
??_GRTPReceptionStatsDB@@MEAAPEAXI@Z
??_GRTPSource@@MEAAPEAXI@Z
??_R0?AVIterator@RTPReceptionStatsDB@@@8
??_R0?AVRTPReceptionStats@@@8
??_R0?AVRTPReceptionStatsDB@@@8
??_R1A@?0A@EA@Iterator@RTPReceptionStatsDB@@8
??_R1A@?0A@EA@RTPReceptionStats@@8
??_R1A@?0A@EA@RTPReceptionStatsDB@@8
??_R2Iterator@RTPReceptionStatsDB@@8
??_R2RTPReceptionStats@@8
??_R2RTPReceptionStatsDB@@8
??_R3Iterator@RTPReceptionStatsDB@@8
??_R3RTPReceptionStats@@8
??_R3RTPReceptionStatsDB@@8
??_R4Iterator@RTPReceptionStatsDB@@6B@
??_R4RTPReceptionStats@@6B@
??_R4RTPReceptionStatsDB@@6B@
??_R4RTPSource@@6B@
?add@RTPReceptionStatsDB@@IEAAXIPEAVRTPReceptionStats@@@Z
?getAttributes@RTPSource@@EEBAXXZ
?hasBeenSynchronizedUsingRTCP@RTPSource@@UEAA_NXZ
?init@RTPReceptionStats@@AEAAXI@Z
?initSeqNum@RTPReceptionStats@@AEAAXG@Z
?isRTPSource@RTPSource@@EEBA_NXZ
?jitter@RTPReceptionStats@@QEBAIXZ
?lookup@RTPReceptionStatsDB@@QEBAPEAVRTPReceptionStats@@I@Z
?lookupByName@RTPSource@@SA_NAEAVUsageEnvironment@@PEBDAEAPEAV1@@Z
?next@Iterator@RTPReceptionStatsDB@@QEAAPEAVRTPReceptionStats@@_N@Z
?noteIncomingPacket@RTPReceptionStats@@AEAAXGII_NAEAUtimeval@@AEA_NI@Z
?noteIncomingPacket@RTPReceptionStatsDB@@QEAAXIGII_NAEAUtimeval@@AEA_NI@Z
?noteIncomingSR@RTPReceptionStats@@AEAAXIII@Z
?noteIncomingSR@RTPReceptionStatsDB@@QEAAXIIII@Z
?numPacketsReceivedSinceLastReset@RTPReceptionStats@@QEBAIXZ
?removeRecord@RTPReceptionStatsDB@@QEAAXI@Z
?reset@RTPReceptionStats@@AEAAXXZ
?reset@RTPReceptionStatsDB@@QEAAXXZ
?seqNumLT@@YA_NGG@Z
?totNumKBytesReceived@RTPReceptionStats@@QEBANXZ
??0Iterator@RTPTransmissionStatsDB@@QEAA@AEAV1@@Z
??0RTPSink@@IEAA@AEAVUsageEnvironment@@PEAVGroupsock@@EIPEBDI@Z
??0RTPTransmissionStats@@AEAA@AEAVRTPSink@@I@Z
??0RTPTransmissionStatsDB@@AEAA@AEAVRTPSink@@@Z
??1Iterator@RTPTransmissionStatsDB@@UEAA@XZ
??1RTPSink@@MEAA@XZ
??1RTPTransmissionStats@@EEAA@XZ
??1RTPTransmissionStatsDB@@EEAA@XZ
??_7Iterator@RTPTransmissionStatsDB@@6B@
??_7RTPSink@@6B@
??_7RTPTransmissionStats@@6B@
??_7RTPTransmissionStatsDB@@6B@
??_C@_03BBKEAIF@?$DP?$DP?$DP@
??_C@_03BJPNLFCD@?1?$CFd@
??_C@_04PJOLNDGD@data@
??_C@_0BD@GAHIJBKF@?5is?5not?5a?5RTP?5sink@
??_C@_0BG@GNDGHDIN@a?$DNrtpmap?3?$CFd?5?$CFs?1?$CFd?$CFs?$AN?6@
??_GIterator@RTPTransmissionStatsDB@@UEAAPEAXI@Z
??_GRTPSink@@MEAAPEAXI@Z
??_GRTPTransmissionStats@@EEAAPEAXI@Z
??_GRTPTransmissionStatsDB@@EEAAPEAXI@Z
??_R0?AVIterator@RTPTransmissionStatsDB@@@8
??_R0?AVRTPTransmissionStats@@@8
??_R0?AVRTPTransmissionStatsDB@@@8
??_R1A@?0A@EA@Iterator@RTPTransmissionStatsDB@@8
??_R1A@?0A@EA@RTPTransmissionStats@@8
??_R1A@?0A@EA@RTPTransmissionStatsDB@@8
??_R2Iterator@RTPTransmissionStatsDB@@8
??_R2RTPTransmissionStats@@8
??_R2RTPTransmissionStatsDB@@8
??_R3Iterator@RTPTransmissionStatsDB@@8
??_R3RTPTransmissionStats@@8
??_R3RTPTransmissionStatsDB@@8
??_R4Iterator@RTPTransmissionStatsDB@@6B@
??_R4RTPSink@@6B@
??_R4RTPTransmissionStats@@6B@
??_R4RTPTransmissionStatsDB@@6B@
?add@RTPTransmissionStatsDB@@AEAAXIPEAVRTPTransmissionStats@@@Z
?auxSDPLine@RTPSink@@UEAAPEBDXZ
?convertToRTPTimestamp@RTPSink@@IEAAIUtimeval@@@Z
?forgetOurGroupsock@RTPInterface@@QEAAXXZ
?getTotalBitrate@RTPSink@@QEAAXAEAIAEAN@Z
?getTotalOctetCount@RTPTransmissionStats@@QEAAXAEAI0@Z
?getTotalPacketCount@RTPTransmissionStats@@QEAAXAEAI0@Z
?isRTPSink@RTPSink@@EEBA_NXZ
?lookup@RTPTransmissionStatsDB@@QEBAPEAVRTPTransmissionStats@@I@Z
?lookupByName@RTPSink@@SA_NAEAVUsageEnvironment@@PEBDAEAPEAV1@@Z
?next@Iterator@RTPTransmissionStatsDB@@QEAAPEAVRTPTransmissionStats@@XZ
?noteIncomingRR@RTPTransmissionStats@@AEAAXAEBUsockaddr_in@@IIIII@Z
?noteIncomingRR@RTPTransmissionStatsDB@@QEAAXIAEBUsockaddr_in@@IIIII@Z
?numChannels@RTPSink@@QEBAIXZ
?octetCount@RTPSink@@IEBAIXZ
?packetCount@RTPSink@@IEBAIXZ
?packetsLostBetweenRR@RTPTransmissionStats@@QEBAHXZ
?packetsReceivedSinceLastRR@RTPTransmissionStats@@QEBAIXZ
?presetNextTimestamp@RTPSink@@QEAAIXZ
?removeRecord@RTPTransmissionStatsDB@@QEAAXI@Z
?resetPresentationTimes@RTPSink@@QEAAXXZ
?roundTripDelay@RTPTransmissionStats@@QEBAIXZ
?rtpPayloadFormatName@RTPSink@@QEBAPEBDXZ
?rtpTimestampFrequency@RTPSink@@QEBAIXZ
?rtpmapLine@RTPSink@@UEBAPEADXZ
?sdpMediaType@RTPSink@@UEBAPEBDXZ
??0RTPInterface@@QEAA@PEAVMedium@@PEAVGroupsock@@@Z
??0SocketDescriptor@@QEAA@AEAVUsageEnvironment@@H@Z
??0tcpStreamRecord@@QEAA@HEPEAV0@@Z
??1RTPInterface@@UEAA@XZ
??1SocketDescriptor@@UEAA@XZ
??1tcpStreamRecord@@UEAA@XZ
??_7RTPInterface@@6B@
??_7SocketDescriptor@@6B@
??_7tcpStreamRecord@@6B@
??_GRTPInterface@@UEAAPEAXI@Z
??_GSocketDescriptor@@UEAAPEAXI@Z
??_GtcpStreamRecord@@UEAAPEAXI@Z
??_R0?AVRTPInterface@@@8
??_R0?AVSocketDescriptor@@@8
??_R0?AVtcpStreamRecord@@@8
??_R1A@?0A@EA@RTPInterface@@8
??_R1A@?0A@EA@SocketDescriptor@@8
??_R1A@?0A@EA@tcpStreamRecord@@8
??_R2RTPInterface@@8
??_R2SocketDescriptor@@8
??_R2tcpStreamRecord@@8
??_R3RTPInterface@@8
??_R3SocketDescriptor@@8
??_R3tcpStreamRecord@@8
??_R4RTPInterface@@6B@
??_R4SocketDescriptor@@6B@
??_R4tcpStreamRecord@@6B@
?IsEmpty@HashTable@@QEBA_NXZ
?addStreamSocket@RTPInterface@@QEAAXHE@Z
?clearServerRequestAlternativeByteHandler@RTPInterface@@SAXAEAVUsageEnvironment@@H@Z
?deregisterRTPInterface@SocketDescriptor@@QEAAXE@Z
?envir@RTPInterface@@QEBAAEAVUsageEnvironment@@XZ
?handleRead@RTPInterface@@QEAA_NPEAEIAEAIAEAUsockaddr_in@@AEAHAEAEAEA_N@Z
?lookupRTPInterface@SocketDescriptor@@QEAAPEAVRTPInterface@@E@Z
?registerRTPInterface@SocketDescriptor@@QEAAXEPEAVRTPInterface@@@Z
?removeStreamSocket@RTPInterface@@QEAAXHE@Z
?sendDataOverTCP@RTPInterface@@AEAA_NHPEBEI_N@Z
?sendPacket@RTPInterface@@QEAA_NPEAEI@Z
?sendRTPorRTCPPacketOverTCP@RTPInterface@@AEAA_NPEAEIHE@Z
?setServerRequestAlternativeByteHandler@RTPInterface@@SAXAEAVUsageEnvironment@@HP6AXPEAXE@Z1@Z
?setServerRequestAlternativeByteHandler@SocketDescriptor@@QEAAXP6AXPEAXE@Z0@Z
?setStreamSocket@RTPInterface@@QEAAXHE@Z
?startNetworkReading@RTPInterface@@QEAAXP6AXPEAXH@Z@Z
?stopNetworkReading@RTPInterface@@QEAAXXZ
?tcpReadHandler1@SocketDescriptor@@AEAA_NH@Z
?tcpReadHandler@SocketDescriptor@@CAXPEAV1@H@Z
??0RTCPInstance@@IEAA@AEAVUsageEnvironment@@PEAVGroupsock@@IPEBEPEAVRTPSink@@PEAVRTPSource@@_N@Z
??0RTCPMemberDatabase@@QEAA@AEAVRTCPInstance@@@Z
??0SDESItem@@QEAA@EPEBE@Z
??1RTCPInstance@@MEAA@XZ
??1RTCPMemberDatabase@@UEAA@XZ
??_7RTCPInstance@@6B@
??_7RTCPMemberDatabase@@6B@
??_C@_0BI@LMJBDNPE@?5is?5not?5a?5RTCP?5instance@
??_C@_0EO@KHDGAGJO@RTCPInstance?3?3RTCPInstance?5erro@
??_C@_0GD@DNOJNIFH@RTCPInstance?5error?3?5Hit?5limit?5w@
??_GOutPacketBuffer@@QEAAPEAXI@Z
??_GRTCPInstance@@MEAAPEAXI@Z
??_GRTCPMemberDatabase@@UEAAPEAXI@Z
??_R0?AVRTCPInstance@@@8
??_R0?AVRTCPMemberDatabase@@@8
??_R1A@?0A@EA@RTCPInstance@@8
??_R1A@?0A@EA@RTCPMemberDatabase@@8
??_R2RTCPInstance@@8
??_R2RTCPMemberDatabase@@8
??_R3RTCPInstance@@8
??_R3RTCPMemberDatabase@@8
??_R4RTCPInstance@@6B@
??_R4RTCPMemberDatabase@@6B@
?SSRC@RTPReceptionStats@@QEBAIXZ
?SSRC@RTPSink@@IEBAIXZ
?SSRC@RTPSource@@QEBAIXZ
?addBYE@RTCPInstance@@AEAAXXZ
?addRR@RTCPInstance@@AEAAXXZ
?addReport@RTCPInstance@@AEAA_N_N@Z
?addSDES@RTCPInstance@@AEAAXXZ
?addSR@RTCPInstance@@AEAAXXZ
?addStreamSocket@RTCPInstance@@QEAAXHE@Z
?baseExtSeqNumReceived@RTPReceptionStats@@QEBAIXZ
?checkNewSSRC@RTCPInstance@@QEAAHXZ
?createNew@RTCPInstance@@SAPEAV1@AEAVUsageEnvironment@@PEAVGroupsock@@IPEBEPEAVRTPSink@@PEAVRTPSource@@_N@Z
?curPacketSize@OutPacketBuffer@@QEBAIXZ
?data@SDESItem@@QEBAPEBEXZ
?deregisterForMultiplexedRTCPPackets@RTPSource@@QEAAXXZ
?enableRTCPReports@RTPSink@@QEAAAEA_NXZ
?enqueueCommonReportPrefix@RTCPInstance@@AEAAXEII@Z
?enqueueCommonReportSuffix@RTCPInstance@@AEAAXXZ
?enqueueReportBlock@RTCPInstance@@AEAAXPEAVRTPReceptionStats@@@Z
?highestExtSeqNumReceived@RTPReceptionStats@@QEBAIXZ
?incomingReportHandler1@RTCPInstance@@IEAAXXZ
?incomingReportHandler@RTCPInstance@@CAXPEAV1@H@Z
?injectReport@RTCPInstance@@QEAAXPEBEIAEBUsockaddr_in@@@Z
?isMember@RTCPMemberDatabase@@QEBA_NI@Z
?isRTCPInstance@RTCPInstance@@EEBA_NXZ
?lastReceivedSR_NTPlsw@RTPReceptionStats@@QEBAIXZ
?lastReceivedSR_NTPmsw@RTPReceptionStats@@QEBAIXZ
?lastReceivedSR_time@RTPReceptionStats@@QEBAAEBUtimeval@@XZ
?lastResetExtSeqNumReceived@RTPReceptionStats@@QEBAIXZ
?lookupByName@RTCPInstance@@SA_NAEAVUsageEnvironment@@PEBDAEAPEAV1@@Z
?nextTimestampHasBeenPreset@RTPSink@@QEBA_NXZ
?noteArrivingRR@RTCPInstance@@MEAAXAEBUsockaddr_in@@HE@Z
?noteMembership@RTCPMemberDatabase@@QEAA_NII@Z
?numActiveSourcesSinceLastReset@RTPReceptionStatsDB@@QEBAIXZ
?numMembers@RTCPInstance@@QEBAIXZ
?numMembers@RTCPMemberDatabase@@QEBAIXZ
?onExpire1@RTCPInstance@@AEAAXXZ
?onExpire@RTCPInstance@@CAXPEAV1@@Z
?onReceive@RTCPInstance@@AEAAXHHI@Z
?packet@OutPacketBuffer@@QEBAPEAEXZ
?packetType@RTCPInstance@@QEAAHXZ
?processIncomingReport@RTCPInstance@@AEAAXIAEBUsockaddr_in@@HE@Z
?reapOldMembers@RTCPMemberDatabase@@QEAAXI@Z
?receivedPacketSize@RTCPInstance@@QEAAHXZ
?receptionStatsDB@RTPSource@@QEBAAEAVRTPReceptionStatsDB@@XZ
?registerForMultiplexedRTCPPackets@RTPSource@@QEAAXPEAVRTCPInstance@@@Z
?remove@RTCPMemberDatabase@@QEAA_NI@Z
?removeLastReceivedSSRC@RTCPInstance@@QEAAXXZ
?removeSSRC@RTCPInstance@@QEAAXI_N@Z
?reschedule@RTCPInstance@@QEAAXN@Z
?resetOffset@OutPacketBuffer@@QEAAXXZ
?schedule@RTCPInstance@@QEAAXN@Z
?sendAppPacket@RTCPInstance@@QEAAXEPEBDPEAEI@Z
?sendBYE@RTCPInstance@@QEAAXXZ
?sendBuiltPacket@RTCPInstance@@AEAAXXZ
?sendReport@RTCPInstance@@QEAAXXZ
?sentPacketSize@RTCPInstance@@QEAAHXZ
?setAppHandler@RTCPInstance@@QEAAXP6AXPEAXEIPEAEI@Z0@Z
?setByeHandler@RTCPInstance@@QEAAXP6AXPEAX@Z0_N@Z
?setRRHandler@RTCPInstance@@QEAAXP6AXPEAX@Z0@Z
?setSRHandler@RTCPInstance@@QEAAXP6AXPEAX@Z0@Z
?setSpecificRRHandler@RTCPInstance@@QEAAXIVPort@@P6AXPEAX@Z1@Z
?setStreamSocket@RTCPInstance@@QEAAXHE@Z
?totNumPacketsReceived@RTPReceptionStats@@QEBAIXZ
?totalSize@SDESItem@@QEBAIXZ
?transmissionStatsDB@RTPSink@@QEBAAEAVRTPTransmissionStatsDB@@XZ
?typeOfEvent@RTCPInstance@@QEAAHXZ
?unsetSpecificRRHandler@RTCPInstance@@QEAAXIVPort@@@Z
??0QTGenericBufferedPacket@@QEAA@AEAVQuickTimeGenericRTPSource@@@Z
??0QTGenericBufferedPacketFactory@@QEAA@XZ
??0QuickTimeGenericRTPSource@@AEAA@AEAVUsageEnvironment@@PEAVGroupsock@@EIPEBD@Z
??1QTGenericBufferedPacket@@UEAA@XZ
??1QTGenericBufferedPacketFactory@@UEAA@XZ
??1QuickTimeGenericRTPSource@@MEAA@XZ
??_7QTGenericBufferedPacket@@6B@
??_7QTGenericBufferedPacketFactory@@6B@
??_7QuickTimeGenericRTPSource@@6B@
??_GQTGenericBufferedPacket@@UEAAPEAXI@Z
??_GQTGenericBufferedPacketFactory@@UEAAPEAXI@Z
??_GQuickTimeGenericRTPSource@@MEAAPEAXI@Z
??_R0?AVQTGenericBufferedPacket@@@8
??_R0?AVQTGenericBufferedPacketFactory@@@8
??_R0?AVQuickTimeGenericRTPSource@@@8
??_R1A@?0A@EA@QTGenericBufferedPacket@@8
??_R1A@?0A@EA@QTGenericBufferedPacketFactory@@8
??_R1A@?0A@EA@QuickTimeGenericRTPSource@@8
??_R2QTGenericBufferedPacket@@8
??_R2QTGenericBufferedPacketFactory@@8
??_R2QuickTimeGenericRTPSource@@8
??_R3QTGenericBufferedPacket@@8
??_R3QTGenericBufferedPacketFactory@@8
??_R3QuickTimeGenericRTPSource@@8
??_R4QTGenericBufferedPacket@@6B@
??_R4QTGenericBufferedPacketFactory@@6B@
??_R4QuickTimeGenericRTPSource@@6B@
?MIMEtype@QuickTimeGenericRTPSource@@EEBAPEBDXZ
?createNew@QuickTimeGenericRTPSource@@SAPEAV1@AEAVUsageEnvironment@@PEAVGroupsock@@EIPEBD@Z
?createNewPacket@QTGenericBufferedPacketFactory@@EEAAPEAVBufferedPacket@@PEAVMultiFramedRTPSource@@@Z
?nextEnclosedFrameSize@QTGenericBufferedPacket@@EEAAIAEAPEAEI@Z
?processSpecialHeader@QuickTimeGenericRTPSource@@EEAA_NPEAVBufferedPacket@@AEAI@Z
??0ChunkDescriptor@@QEAA@_JIIIUtimeval@@@Z
??0Count64@@QEAA@XZ
??0QuickTimeFileSink@@IEAA@AEAVUsageEnvironment@@AEAVMediaSession@@PEBDIGGI_N333@Z
??0SubsessionBuffer@@QEAA@I@Z
??0SubsessionIOState@@QEAA@AEAVQuickTimeFileSink@@AEAVMediaSubsession@@@Z
??0SyncFrame@@QEAA@I@Z
??0hinf@SubsessionIOState@@QEAA@XZ
??1QuickTimeFileSink@@MEAA@XZ
??1SubsessionBuffer@@UEAA@XZ
??1SubsessionIOState@@UEAA@XZ
??YCount64@@QEAAXI@Z
??_7QuickTimeFileSink@@6B@
??_7SubsessionBuffer@@6B@
??_7SubsessionIOState@@6B@
??_C@_03PDFFOBMG@GSM@
??_C@_04BGDPAIDF@Hclp@
??_C@_04BNEAOCG@moov@
??_C@_04BODAPIFG@h263@
??_C@_04BPMGIIPP@co64@
??_C@_04CMAOLAOF@nump@
??_C@_04DBFHFJAK@stss@
??_C@_04DCNAKEFI@dmax@
??_C@_04DEBIEPIP@stts@
??_C@_04DENENNJM@stsd@
??_C@_04DHLMIECC@tims@
??_C@_04DKCMMHCE@srcq@
??_C@_04DLKFDFIB@trak@
??_C@_04EALLNHLF@tmin@
??_C@_04EBLNCJP@elst@
??_C@_04ECBOMAOA@avcC@
??_C@_04EHKNILFL@isom@
??_C@_04FAHEGBMA@ulaw@
??_C@_04FBHOHAGF@mvhd@
??_C@_04FCDADDNK@tmax@
??_C@_04FDOGJHGG@payt@
??_C@_04FKEJLGGE@esds@
??_C@_04FOLFIMBF@trpy@
??_C@_04FPBHNLJE@avc1@
??_C@_04GCKPELON@dinf@
??_C@_04GHPLDKOH@gmin@
??_C@_04GJEHIILO@mp4v@
??_C@_04GLAJLKHI@appl@
??_C@_04GMMEAMCI@mp4a@
??_C@_04GPLPCJJM@minf@
??_C@_04HIBPHNAK@hdlr@
??_C@_04HLJFELFL@stsc@
??_C@_04HLMPPNMG@Qclp@
??_C@_04IDBNCMHP@dimm@
??_C@_04IFHGLDEC@iods@
??_C@_04IJACODBA@tref@
??_C@_04ILKBHKDC@edts@
??_C@_04JALAEBJF@H264@
??_C@_04JDLFJNGD@udta@
??_C@_04JLGIJBI@smhd@
??_C@_04JMNGLIFK@gmhd@
??_C@_04JOPNAKNE@tkhd@
??_C@_04JPOHMAHE@rtp?5@
??_C@_04KHFPKGOM@hinf@
??_C@_04KHLAJFBK@pmax@
??_C@_04KJAPLGFE@Fclp@
??_C@_04KLGOOPHB@mdhd@
??_C@_04KMKBKEDM@hnti@
??_C@_04KPGLMEDO@alis@
??_C@_04LIHIKGEH@npck@
??_C@_04LJEDCPFL@wave@
??_C@_04LNJKFKEG@agsm@
??_C@_04LPONJHON@ftyp@
??_C@_04MBFGAGGI@vmhd@
??_C@_04MEMAJGDJ@name@
??_C@_04MFANEHND@?$DP?$DP?$DP?$DP@
??_C@_04MFBEFAIC@alaw@
??_C@_04MMHKENJP@totl@
??_C@_04MMNIJJAF@tpyl@
??_C@_04NAEPCHNM@X?9QT@
??_C@_04NCHAOAIN@frma@
??_C@_04NDKOFBNJ@dmed@
??_C@_04NHNLHBAD@mdia@
??_C@_04NPKLNGDP@hint@
??_C@_04OAJFOCED@stsz@
??_C@_04OBOJJOND@stbl@
??_C@_04OJFIINNJ@tpay@
??_C@_04OJOCHEJC@dref@
??_C@_04OOHNMGKP@mdat@
??_C@_04PCJOLOFL@sdp?5@
??_C@_04PFHKMBEF@drep@
??_C@_04PHDJCPLD@dhlr@
??_C@_04PKCJENMC@mhlr@
??_C@_04PNFCACLP@mp42@
??_C@_05BIPFLOHN@Video@
??_C@_05GAGIMFAG@?$CFs?1?$CFd@
??_C@_05KKCMAPLJ@Audio@
??_C@_05PJENCGGI@QCELP@
??_C@_06ICBIEL@?5?$CF?$CKd?$CFn@
??_C@_07JGLHFHJC@MP4V?9ES@
??_C@_08KMCOGIGD@?$CFs?$CFs?$CFd?$AN?6@
??_C@_09CACDALHA@H263?92000@
??_C@_09MNGDFCHJ@MP4A?9LATM@
??_C@_09NNIDIPKN@H263?91998@
??_C@_0BA@CBGIHNFC@Hinted?5?$CFs?5track@
??_C@_0BD@BKJNEHHG@a?$DNcontrol?3trackid?$DN@
??_C@_0BD@CPMFJCOI@hint?5media?5handler@
??_C@_0BE@KBAMHLKI@?5and?5?8indexLength?8?5@
??_C@_0BF@IHFLHAOJ@sprop?9parameter?9sets@
??_C@_0BF@LAFDKICE@?$CC?5subsession?5?$CIafter?5@
??_C@_0BH@LBBAPDE@?0?5so?5a?5track?5for?5the?5?$CC@
??_C@_0BJ@FDHEBPBM@Apple?5Alias?5Data?5Handler@
??_C@_0BJ@LEFHCFGP@Received?5RTCP?5?$CCBYE?$CC?5on?5?$CC@
??_C@_0BK@FMPJPLFL@Apple?5Video?5Media?5Handler@
??_C@_0BK@MEAPPFAJ@Apple?5Sound?5Media?5Handler@
??_C@_0BL@EBGEGJOF@?5Media?5Data?5Type?5for?5the?5?$CC@
??_C@_0BP@NFAAAEDJ@seen?5when?5creating?5hint?5track?6@
??_C@_0CC@LJJKEJLK@Warning?3?5unexpected?5?8sizeLength@
??_C@_0CC@MLNGDDAP@This?5sink?5has?5already?5been?5play@
??_C@_0CE@CCKNBCKN@No?5subsessions?5are?5currently?5ac@
??_C@_0CI@EMIOMLLA@QuickTimeFileSink?3?3addArbitrary@
??_C@_0CJ@DMGCGEBF@Warning?3?5We?5don?8t?5implement?5a?5Q@
??_C@_0DC@CFLHPCPF@?$CC?$CJ?5saw?5string?5longer?5than?5we?5kn@
??_C@_0DG@JDEACBNJ@QuickTimeFileSink?3?3setWord?$CI?$CJ?3?5S@
??_C@_0DI@MJOPJJFD@QuickTimeFileSink?3?3setWord64?$CI?$CJ?3@
??_C@_0EA@LGIMJGDJ@?$CC?5subsession?5will?5not?5be?5includ@
??_C@_0EH@JGIHIBLP@Warning?3?5We?5don?8t?5implement?5a?5Q@
??_C@_0FN@IKGOFJPD@QuickTimeFileSink?3?3afterGetting@
??_C@_0HI@EBINGJFP@?5bytes?5of?5trailing?5data?5was?5dro@
??_C@_0JL@IOBNKCOB@?$CC?5track?0?5so?5we?8ll?5insert?5a?5dumm@
??_C@_0L@EJMMCNAC@sizelength@
??_C@_0L@NAEBIFNA@?5seconds?$CJ?6@
??_C@_0M@GFCLKJBP@X?9QUICKTIME@
??_C@_0M@OIDOKHDO@indexlength@
??_C@_0O@MBKJPNHG@MPEG4?9GENERIC@
??_GQuickTimeFileSink@@MEAAPEAXI@Z
??_GSubsessionBuffer@@UEAAPEAXI@Z
??_GSubsessionIOState@@UEAAPEAXI@Z
??_R0?AVQuickTimeFileSink@@@8
??_R0?AVSubsessionBuffer@@@8
??_R0?AVSubsessionIOState@@@8
??_R1A@?0A@EA@QuickTimeFileSink@@8
??_R1A@?0A@EA@SubsessionBuffer@@8
??_R1A@?0A@EA@SubsessionIOState@@8
??_R2QuickTimeFileSink@@8
??_R2SubsessionBuffer@@8
??_R2SubsessionIOState@@8
??_R3QuickTimeFileSink@@8
??_R3SubsessionBuffer@@8
??_R3SubsessionIOState@@8
??_R4QuickTimeFileSink@@6B@
??_R4SubsessionBuffer@@6B@
??_R4SubsessionIOState@@6B@
?add4ByteString@QuickTimeFileSink@@AEAAIPEBD@Z
?addArbitraryString@QuickTimeFileSink@@AEAAIPEBD_N@Z
?addAtomHeader64@QuickTimeFileSink@@AEAAIPEBD@Z
?addAtomHeader@QuickTimeFileSink@@AEAAIPEBD@Z
?addAtom_Fclp@QuickTimeFileSink@@AEAAIXZ
?addAtom_Hclp@QuickTimeFileSink@@AEAAIXZ
?addAtom_Qclp@QuickTimeFileSink@@AEAAIXZ
?addAtom_alis@QuickTimeFileSink@@AEAAIXZ
?addAtom_avc1@QuickTimeFileSink@@AEAAIXZ
?addAtom_avcC@QuickTimeFileSink@@AEAAIXZ
?addAtom_co64@QuickTimeFileSink@@AEAAIXZ
?addAtom_dimm@QuickTimeFileSink@@AEAAIXZ
?addAtom_dinf@QuickTimeFileSink@@AEAAIXZ
?addAtom_dmax@QuickTimeFileSink@@AEAAIXZ
?addAtom_dmed@QuickTimeFileSink@@AEAAIXZ
?addAtom_dref@QuickTimeFileSink@@AEAAIXZ
?addAtom_drep@QuickTimeFileSink@@AEAAIXZ
?addAtom_dummy@QuickTimeFileSink@@AEAAIXZ
?addAtom_edts@QuickTimeFileSink@@AEAAIXZ
?addAtom_elst@QuickTimeFileSink@@AEAAIXZ
?addAtom_esds@QuickTimeFileSink@@AEAAIXZ
?addAtom_frma@QuickTimeFileSink@@AEAAIXZ
?addAtom_ftyp@QuickTimeFileSink@@AEAAIXZ
?addAtom_genericMedia@QuickTimeFileSink@@AEAAIXZ
?addAtom_gmhd@QuickTimeFileSink@@AEAAIXZ
?addAtom_gmin@QuickTimeFileSink@@AEAAIXZ
?addAtom_h263@QuickTimeFileSink@@AEAAIXZ
?addAtom_hdlr2@QuickTimeFileSink@@AEAAIXZ
?addAtom_hdlr@QuickTimeFileSink@@AEAAIXZ
?addAtom_hinf@QuickTimeFileSink@@AEAAIXZ
?addAtom_hint@QuickTimeFileSink@@AEAAIXZ
?addAtom_hnti@QuickTimeFileSink@@AEAAIXZ
?addAtom_iods@QuickTimeFileSink@@AEAAIXZ
?addAtom_mdhd@QuickTimeFileSink@@AEAAIXZ
?addAtom_mdia@QuickTimeFileSink@@AEAAIXZ
?addAtom_minf@QuickTimeFileSink@@AEAAIXZ
?addAtom_moov@QuickTimeFileSink@@AEAAIXZ
?addAtom_mp4a@QuickTimeFileSink@@AEAAIXZ
?addAtom_mp4v@QuickTimeFileSink@@AEAAIXZ
?addAtom_mvhd@QuickTimeFileSink@@AEAAIXZ
?addAtom_name@QuickTimeFileSink@@AEAAIXZ
?addAtom_npck@QuickTimeFileSink@@AEAAIXZ
?addAtom_nump@QuickTimeFileSink@@AEAAIXZ
?addAtom_payt@QuickTimeFileSink@@AEAAIXZ
?addAtom_pmax@QuickTimeFileSink@@AEAAIXZ
?addAtom_rtp@QuickTimeFileSink@@AEAAIXZ
?addAtom_sdp@QuickTimeFileSink@@AEAAIXZ
?addAtom_smhd@QuickTimeFileSink@@AEAAIXZ
?addAtom_soundMediaGeneral@QuickTimeFileSink@@AEAAIXZ
?addAtom_srcq@QuickTimeFileSink@@AEAAIXZ
?addAtom_stbl@QuickTimeFileSink@@AEAAIXZ
?addAtom_stsc@QuickTimeFileSink@@AEAAIXZ
?addAtom_stsd@QuickTimeFileSink@@AEAAIXZ
?addAtom_stss@QuickTimeFileSink@@AEAAIXZ
?addAtom_stsz@QuickTimeFileSink@@AEAAIXZ
?addAtom_stts@QuickTimeFileSink@@AEAAIXZ
?addAtom_tims@QuickTimeFileSink@@AEAAIXZ
?addAtom_tkhd@QuickTimeFileSink@@AEAAIXZ
?addAtom_tmax@QuickTimeFileSink@@AEAAIXZ
?addAtom_tmin@QuickTimeFileSink@@AEAAIXZ
?addAtom_totl@QuickTimeFileSink@@AEAAIXZ
?addAtom_tpay@QuickTimeFileSink@@AEAAIXZ
?addAtom_tpyl@QuickTimeFileSink@@AEAAIXZ
?addAtom_trak@QuickTimeFileSink@@AEAAIXZ
?addAtom_tref@QuickTimeFileSink@@AEAAIXZ
?addAtom_trpy@QuickTimeFileSink@@AEAAIXZ
?addAtom_udta@QuickTimeFileSink@@AEAAIXZ
?addAtom_vmhd@QuickTimeFileSink@@AEAAIXZ
?addAtom_wave@QuickTimeFileSink@@AEAAIXZ
?addByte@QuickTimeFileSink@@AEAAIE@Z
?addBytes@SubsessionBuffer@@QEAAXI@Z
?addHalfWord@QuickTimeFileSink@@AEAAIG@Z
?addWord64@QuickTimeFileSink@@AEAAI_K@Z
?addWord@QuickTimeFileSink@@AEAAII@Z
?addZeroWords@QuickTimeFileSink@@AEAAII@Z
?afterGettingFrame@QuickTimeFileSink@@CAXPEAXIIUtimeval@@I@Z
?afterGettingFrame@SubsessionIOState@@QEAAXIUtimeval@@@Z
?attrVal_unsigned@MediaSubsession@@QEBAIPEBD@Z
?bytesAvailable@SubsessionBuffer@@QEBAIXZ
?bytesInUse@SubsessionBuffer@@QEBAIXZ
?codecName@MediaSubsession@@QEBAPEBDXZ
?completeOutputFile@QuickTimeFileSink@@AEAAXXZ
?continuePlaying@QuickTimeFileSink@@AEAA_NXZ
?createNew@QuickTimeFileSink@@SAPEAV1@AEAVUsageEnvironment@@AEAVMediaSession@@PEBDIGGI_N333@Z
?curPacketMarkerBit@RTPSource@@QEBA_NXZ
?curPacketRTPSeqNum@RTPSource@@QEBAGXZ
?dataEnd@SubsessionBuffer@@QEAAPEAEXZ
?dataStart@SubsessionBuffer@@QEAAPEAEXZ
?envir@SubsessionIOState@@QEBAAEAVUsageEnvironment@@XZ
?extendChunk@ChunkDescriptor@@QEAAPEAV1@_JIIIUtimeval@@@Z
?fCurrentTrackNumber@SubsessionIOState@@2IA
?fmtp_spropparametersets@MediaSubsession@@QEBAPEBDXZ
?hasHintTrack@SubsessionIOState@@QEBA_NXZ
?isHintTrack@SubsessionIOState@@QEBA_NXZ
?mediumName@MediaSubsession@@QEBAPEBDXZ
?movieTimeScale@QuickTimeFileSink@@AEBAIXZ
?noteRecordedFrame@QuickTimeFileSink@@MEAAXAEAVMediaSubsession@@IAEBUtimeval@@@Z
?numChannels@MediaSubsession@@QEBAIXZ
?onRTCPBye@QuickTimeFileSink@@CAXPEAX@Z
?onSourceClosure1@QuickTimeFileSink@@AEAAXXZ
?onSourceClosure@QuickTimeFileSink@@CAXPEAX@Z
?onSourceClosure@SubsessionIOState@@QEAAXXZ
?presentationTime@SubsessionBuffer@@QEBAAEBUtimeval@@XZ
?readSource@MediaSubsession@@QEAAPEAVFramedSource@@XZ
?reset@SubsessionBuffer@@QEAAXXZ
?rtpPayloadFormat@RTPSource@@QEBAEXZ
?rtpTimestampFrequency@MediaSubsession@@QEBAIXZ
?savedSDPLines@MediaSubsession@@QEBAPEBDXZ
?setFinalQTstate@SubsessionIOState@@QEAAXXZ
?setHintTrack@SubsessionIOState@@SAXPEAV1@0@Z
?setPresentationTime@SubsessionBuffer@@QEAAXAEBUtimeval@@@Z
?setQTstate@SubsessionIOState@@QEAA_NXZ
?setWord64@QuickTimeFileSink@@AEAAX_J_K@Z
?setWord@QuickTimeFileSink@@AEAAX_JI@Z
?startPlaying@QuickTimeFileSink@@QEAA_NP6AXPEAX@Z0@Z
?syncOK@SubsessionIOState@@QEAA_NUtimeval@@@Z
?timestampFrequency@RTPSource@@QEBAIXZ
?useFrame1@SubsessionIOState@@AEAAIIUtimeval@@I_J@Z
?useFrame@SubsessionIOState@@AEAAXAEAVSubsessionBuffer@@@Z
?useFrameForHinting@SubsessionIOState@@AEAAXIUtimeval@@I@Z
?videoFPS@MediaSubsession@@QEBAIXZ
?videoHeight@MediaSubsession@@QEBAGXZ
?videoWidth@MediaSubsession@@QEBAGXZ
??0FrameDescriptor@QCELPDeinterleavingBuffer@@QEAA@XZ
??0QCELPBufferedPacket@@QEAA@AEAVRawQCELPRTPSource@@@Z
??0QCELPBufferedPacketFactory@@QEAA@XZ
??0QCELPDeinterleaver@@AEAA@AEAVUsageEnvironment@@PEAVRawQCELPRTPSource@@@Z
??0QCELPDeinterleavingBuffer@@QEAA@XZ
??0RawQCELPRTPSource@@AEAA@AEAVUsageEnvironment@@PEAVGroupsock@@EI@Z
??1FrameDescriptor@QCELPDeinterleavingBuffer@@UEAA@XZ
??1QCELPBufferedPacket@@UEAA@XZ
??1QCELPBufferedPacketFactory@@UEAA@XZ
??1QCELPDeinterleaver@@EEAA@XZ
??1QCELPDeinterleavingBuffer@@UEAA@XZ
??1RawQCELPRTPSource@@EEAA@XZ
??_7FrameDescriptor@QCELPDeinterleavingBuffer@@6B@
??_7QCELPBufferedPacket@@6B@
??_7QCELPBufferedPacketFactory@@6B@
??_7QCELPDeinterleaver@@6B@
??_7QCELPDeinterleavingBuffer@@6B@
??_7RawQCELPRTPSource@@6B@
??_C@_0M@BHCKPHOF@audio?1QCELP@
??_GFrameDescriptor@QCELPDeinterleavingBuffer@@UEAAPEAXI@Z
??_GQCELPBufferedPacket@@UEAAPEAXI@Z
??_GQCELPBufferedPacketFactory@@UEAAPEAXI@Z
??_GQCELPDeinterleaver@@EEAAPEAXI@Z
??_GQCELPDeinterleavingBuffer@@UEAAPEAXI@Z
??_GRawQCELPRTPSource@@EEAAPEAXI@Z
??_R0?AVFrameDescriptor@QCELPDeinterleavingBuffer@@@8
??_R0?AVQCELPBufferedPacket@@@8
??_R0?AVQCELPBufferedPacketFactory@@@8
??_R0?AVQCELPDeinterleaver@@@8
??_R0?AVQCELPDeinterleavingBuffer@@@8
??_R0?AVRawQCELPRTPSource@@@8
??_R1A@?0A@EA@FrameDescriptor@QCELPDeinterleavingBuffer@@8
??_R1A@?0A@EA@QCELPBufferedPacket@@8
??_R1A@?0A@EA@QCELPBufferedPacketFactory@@8
??_R1A@?0A@EA@QCELPDeinterleaver@@8
??_R1A@?0A@EA@QCELPDeinterleavingBuffer@@8
??_R1A@?0A@EA@RawQCELPRTPSource@@8
??_R2FrameDescriptor@QCELPDeinterleavingBuffer@@8
??_R2QCELPBufferedPacket@@8
??_R2QCELPBufferedPacketFactory@@8
??_R2QCELPDeinterleaver@@8
??_R2QCELPDeinterleavingBuffer@@8
??_R2RawQCELPRTPSource@@8
??_R3FrameDescriptor@QCELPDeinterleavingBuffer@@8
??_R3QCELPBufferedPacket@@8
??_R3QCELPBufferedPacketFactory@@8
??_R3QCELPDeinterleaver@@8
??_R3QCELPDeinterleavingBuffer@@8
??_R3RawQCELPRTPSource@@8
??_R4FrameDescriptor@QCELPDeinterleavingBuffer@@6B@
??_R4QCELPBufferedPacket@@6B@
??_R4QCELPBufferedPacketFactory@@6B@
??_R4QCELPDeinterleaver@@6B@
??_R4QCELPDeinterleavingBuffer@@6B@
??_R4RawQCELPRTPSource@@6B@
?MIMEtype@RawQCELPRTPSource@@EEBAPEBDXZ
?afterGettingFrame1@QCELPDeinterleaver@@AEAAXIUtimeval@@@Z
?afterGettingFrame@QCELPDeinterleaver@@CAXPEAXIIUtimeval@@I@Z
?createNew@QCELPAudioRTPSource@@SAPEAVFramedSource@@AEAVUsageEnvironment@@PEAVGroupsock@@AEAPEAVRTPSource@@EI@Z
?createNew@QCELPDeinterleaver@@SAPEAV1@AEAVUsageEnvironment@@PEAVRawQCELPRTPSource@@@Z
?createNew@RawQCELPRTPSource@@SAPEAV1@AEAVUsageEnvironment@@PEAVGroupsock@@EI@Z
?createNewPacket@QCELPBufferedPacketFactory@@EEAAPEAVBufferedPacket@@PEAVMultiFramedRTPSource@@@Z
?deliverIncomingFrame@QCELPDeinterleavingBuffer@@QEAAXIEEEGUtimeval@@@Z
?doGetNextFrame@QCELPDeinterleaver@@EEAAXXZ
?doStopGettingFrames@QCELPDeinterleaver@@EEAAXXZ
?frameIndex@RawQCELPRTPSource@@QEAAAEAEXZ
?hasBeenSynchronizedUsingRTCP@RawQCELPRTPSource@@EEAA_NXZ
?inputBuffer@QCELPDeinterleavingBuffer@@QEAAPEAEXZ
?inputBufferSize@QCELPDeinterleavingBuffer@@QEBAIXZ
?interleaveL@RawQCELPRTPSource@@QEBAEXZ
?interleaveN@RawQCELPRTPSource@@QEBAEXZ
?nextEnclosedFrameSize@QCELPBufferedPacket@@EEAAIAEAPEAEI@Z
?processSpecialHeader@RawQCELPRTPSource@@EEAA_NPEAVBufferedPacket@@AEAI@Z
?retrieveFrame@QCELPDeinterleavingBuffer@@QEAA_NPEAEIAEAI1AEAUtimeval@@@Z
??0PresentationTimeSessionNormalizer@@QEAA@AEAVUsageEnvironment@@@Z
??0PresentationTimeSubsessionNormalizer@@AEAA@AEAVPresentationTimeSessionNormalizer@@PEAVFramedSource@@PEAVRTPSource@@PEBDPEAV0@@Z
??0ProxyRTSPClient@@QEAA@AEAVProxyServerMediaSession@@PEBD11GHH@Z
??0ProxyServerMediaSession@@IEAA@AEAVUsageEnvironment@@PEAVGenericMediaServer@@PEBD222GHHPEAVMediaTranscodingTable@@P6APEAVProxyRTSPClient@@AEAV0@222GHH@ZG_N@Z
??0ProxyServerMediaSubsession@@QEAA@AEAVMediaSubsession@@G_N@Z
??1PresentationTimeSessionNormalizer@@UEAA@XZ
??1PresentationTimeSubsessionNormalizer@@EEAA@XZ
??1ProxyRTSPClient@@UEAA@XZ
??1ProxyServerMediaSession@@UEAA@XZ
??1ProxyServerMediaSubsession@@UEAA@XZ
??6@YAAEAVUsageEnvironment@@AEAV0@AEBVProxyRTSPClient@@@Z
??6@YAAEAVUsageEnvironment@@AEAV0@AEBVProxyServerMediaSession@@@Z
??6@YAAEAVUsageEnvironment@@AEAV0@AEBVProxyServerMediaSubsession@@@Z
??_7PresentationTimeSessionNormalizer@@6B@
??_7PresentationTimeSubsessionNormalizer@@6B@
??_7ProxyRTSPClient@@6B@
??_7ProxyServerMediaSession@@6B@
??_7ProxyServerMediaSubsession@@6B@
??_C@_01GPOEFGEJ@?7@
??_C@_02DEGCJHHK@?$CC?$FN@
??_C@_02JLMMPJCD@DV@
??_C@_03DCBLPAPH@MPA@
??_C@_03DHJIHEGB@MPV@
??_C@_03HLKEEJBC@AC3@
??_C@_03NNMDOPO@AMR@
??_C@_04CJPKNBEB@JPEG@
??_C@_04GMGOKAFF@mode@
??_C@_04IJKLHANE@H265@
??_C@_04KLILDCBG@MP2T@
??_C@_04MNBLGCK@EAC3@
??_C@_04NDJCCKBE@OPUS@
??_C@_04ONMHLFNA@H261@
??_C@_06IIBOLJAE@AMR?9WB@
??_C@_07OMKNAGJ@?5track?6@
??_C@_08OEOBECCI@?6?7queue?3@
??_C@_09EOOHJLHH@sprop?9vps@
??_C@_09GLIMMEKL@sprop?9pps@
??_C@_09HJDJGLEF@sprop?9sps@
??_C@_0BA@ODFLBMBC@ProxyRTSPClient@
??_C@_0BB@OKAFEDLL@profile?9level?9id@
??_C@_0BC@KLKOEILG@ProxyRTSPClient?$FL?$CC@
??_C@_0BC@MPCDNOBK@?$CJ?4?5?5Resetting?4?4?4?6@
??_C@_0BC@PHNNJNPF@?$DL?5numSubsessions?5@
??_C@_0BG@GHMBAKIJ@?3?3createNewRTPSink?$CI?$CJ?6@
??_C@_0BH@NJANLDFF@?3?3closeStreamSource?$CI?$CJ?6@
??_C@_0BK@BGPKMLHJ@ProxyServerMediaSession?$FL?$CC@
??_C@_0BN@HDHMKHNI@ProxyServerMediaSubsession?$FL?$CC@
??_C@_0BO@BNHFPOGJ@?3?3?$HOProxyServerMediaSession?$CI?$CJ?6@
??_C@_0CB@IGKAJPGP@?3?3?$HOProxyServerMediaSubsession?$CI?$CJ@
??_C@_0CE@BFJAEDDM@?3?3createNewStreamSource?$CIsession@
??_C@_0CF@KADMAPMH@?3?3continueAfterSETUP?$CI?$CJ?3?5head?5co@
??_C@_0CH@IBPEMPPJ@?3?5lost?5connection?5to?5server?5?$CI?8e@
??_C@_0CN@JNFHEMDJ@?5added?5new?5?$CCProxyServerMediaSub@
??_C@_0DD@JBNLODOG@?3?5RTSP?5?$CCDESCRIBE?$CC?5command?5faile@
??_C@_0DK@KJPPGKON@?3?5received?5RTCP?5?$CCBYE?$CC?4?5?5?$CIThe?5ba@
??_C@_0EE@JGHBHLDM@?7returns?5NULL?5?$CIbecause?5we?5curre@
??_C@_0FI@MFMMHDCO@?7returns?5NULL?5?$CIbecause?5we?5don?8t@
??_C@_0L@LPKDEAFH@MPA?9ROBUST@
??_C@_0M@GHIFFPFJ@?$CC?5streams?$CJ?6@
??_C@_0N@HDPDFBDC@?7Initiated?3?5@
??_GPresentationTimeSessionNormalizer@@UEAAPEAXI@Z
??_GPresentationTimeSubsessionNormalizer@@EEAAPEAXI@Z
??_GProxyRTSPClient@@UEAAPEAXI@Z
??_GProxyServerMediaSession@@UEAAPEAXI@Z
??_GProxyServerMediaSubsession@@UEAAPEAXI@Z
??_R0?AVPresentationTimeSessionNormalizer@@@8
??_R0?AVPresentationTimeSubsessionNormalizer@@@8
??_R0?AVProxyRTSPClient@@@8
??_R0?AVProxyServerMediaSession@@@8
??_R0?AVProxyServerMediaSubsession@@@8
??_R1A@?0A@EA@PresentationTimeSessionNormalizer@@8
??_R1A@?0A@EA@PresentationTimeSubsessionNormalizer@@8
??_R1A@?0A@EA@ProxyRTSPClient@@8
??_R1A@?0A@EA@ProxyServerMediaSession@@8
??_R1A@?0A@EA@ProxyServerMediaSubsession@@8
??_R2PresentationTimeSessionNormalizer@@8
??_R2PresentationTimeSubsessionNormalizer@@8
??_R2ProxyRTSPClient@@8
??_R2ProxyServerMediaSession@@8
??_R2ProxyServerMediaSubsession@@8
??_R3PresentationTimeSessionNormalizer@@8
??_R3PresentationTimeSubsessionNormalizer@@8
??_R3ProxyRTSPClient@@8
??_R3ProxyServerMediaSession@@8
??_R3ProxyServerMediaSubsession@@8
??_R4PresentationTimeSessionNormalizer@@6B@
??_R4PresentationTimeSubsessionNormalizer@@6B@
??_R4ProxyRTSPClient@@6B@
??_R4ProxyServerMediaSession@@6B@
??_R4ProxyServerMediaSubsession@@6B@
?afterGettingFrame@PresentationTimeSubsessionNormalizer@@AEAAXIIUtimeval@@I@Z
?afterGettingFrame@PresentationTimeSubsessionNormalizer@@CAXPEAXIIUtimeval@@I@Z
?auth@ProxyRTSPClient@@AEAAPEAVAuthenticator@@XZ
?bandwidth@MediaSubsession@@QEBAIXZ
?closeStreamSource@ProxyServerMediaSubsession@@EEAAXPEAVFramedSource@@@Z
?codecName@ProxyServerMediaSubsession@@QEBAPEBDXZ
?continueAfterDESCRIBE@ProxyRTSPClient@@QEAAXPEBD@Z
?continueAfterDESCRIBE@ProxyServerMediaSession@@AEAAXPEBD@Z
?continueAfterLivenessCommand@ProxyRTSPClient@@QEAAXH_N@Z
?continueAfterPLAY@ProxyRTSPClient@@QEAAXH@Z
?continueAfterSETUP@ProxyRTSPClient@@QEAAXH@Z
?createGroupsock@ProxyServerMediaSession@@MEAAPEAVGroupsock@@AEBUin_addr@@VPort@@@Z
?createGroupsock@ProxyServerMediaSubsession@@EEAAPEAVGroupsock@@AEBUin_addr@@VPort@@@Z
?createNew@ProxyServerMediaSession@@SAPEAV1@AEAVUsageEnvironment@@PEAVGenericMediaServer@@PEBD222GHHPEAVMediaTranscodingTable@@@Z
?createNewPresentationTimeSubsessionNormalizer@PresentationTimeSessionNormalizer@@QEAAPEAVPresentationTimeSubsessionNormalizer@@PEAVFramedSource@@PEAVRTPSource@@PEBD@Z
?createNewRTPSink@ProxyServerMediaSubsession@@EEAAPEAVRTPSink@@PEAVGroupsock@@EPEAVFramedSource@@@Z
?createNewStreamSource@ProxyServerMediaSubsession@@EEAAPEAVFramedSource@@IAEAI@Z
?createRTCP@ProxyServerMediaSession@@MEAAPEAVRTCPInstance@@PEAVGroupsock@@IPEBEPEAVRTPSink@@@Z
?createRTCP@ProxyServerMediaSubsession@@EEAAPEAVRTCPInstance@@PEAVGroupsock@@IPEBEPEAVRTPSink@@@Z
?defaultCreateNewProxyRTSPClientFunc@@YAPEAVProxyRTSPClient@@AEAVProxyServerMediaSession@@PEBD11GHH@Z
?doGetNextFrame@PresentationTimeSubsessionNormalizer@@EEAAXXZ
?fmtp_sproppps@MediaSubsession@@QEBAPEBDXZ
?fmtp_spropsps@MediaSubsession@@QEBAPEBDXZ
?fmtp_spropvps@MediaSubsession@@QEBAPEBDXZ
?handleSubsessionTimeout@ProxyRTSPClient@@AEAAXXZ
?normalizePresentationTime@PresentationTimeSessionNormalizer@@AEAAXPEAVPresentationTimeSubsessionNormalizer@@AEAUtimeval@@AEBU3@@Z
?numSubsessions@ServerMediaSession@@QEBAIXZ
?parentSession@MediaSubsession@@QEAAAEAVMediaSession@@XZ
?receiveRawJPEGFrames@MediaSubsession@@QEAAXXZ
?receiveRawMP3ADUs@MediaSubsession@@QEAAXXZ
?removePresentationTimeSubsessionNormalizer@PresentationTimeSessionNormalizer@@AEAAXPEAVPresentationTimeSubsessionNormalizer@@@Z
?reset@ProxyRTSPClient@@AEAAXXZ
?resetDESCRIBEState@ProxyServerMediaSession@@AEAAXXZ
?scheduleDESCRIBECommand@ProxyRTSPClient@@AEAAXXZ
?scheduleLivenessCommand@ProxyRTSPClient@@AEAAXXZ
?sendDESCRIBE@ProxyRTSPClient@@CAXPEAX@Z
?sendLivenessCommand@ProxyRTSPClient@@CAXPEAX@Z
?sessionTimeoutParameter@RTSPClient@@QEBAIXZ
?setMBitOnNextPacket@SimpleRTPSink@@QEAAXXZ
?setRTPSink@PresentationTimeSubsessionNormalizer@@QEAAXPEAVRTPSink@@@Z
?subsessionByeHandler@ProxyServerMediaSubsession@@AEAAXXZ
?subsessionByeHandler@ProxyServerMediaSubsession@@CAXPEAX@Z
?subsessionTimeout@ProxyRTSPClient@@CAXPEAX@Z
?url@ProxyServerMediaSession@@QEBAPEBDXZ
?verbosityLevel@ProxyServerMediaSubsession@@AEBAHXZ
??0PassiveServerMediaSubsession@@IEAA@AEAVRTPSink@@PEAVRTCPInstance@@@Z
??0RTCPSourceRecord@@QEAA@IAEBVPort@@@Z
??1PassiveServerMediaSubsession@@MEAA@XZ
??_7PassiveServerMediaSubsession@@6B@
??_C@_0EE@MPBJKCFD@m?$DN?$CFs?5?$CFd?5RTP?1AVP?5?$CFd?$AN?6c?$DNIN?5IP4?5?$CFs@
??_C@_0N@EOLELHKA@a?$DNrtcp?9mux?$AN?6@
??_GPassiveServerMediaSubsession@@MEAAPEAXI@Z
??_R0?AVPassiveServerMediaSubsession@@@8
??_R1A@?0A@EA@PassiveServerMediaSubsession@@8
??_R2PassiveServerMediaSubsession@@8
??_R3PassiveServerMediaSubsession@@8
??_R4PassiveServerMediaSubsession@@6B@
?createNew@PassiveServerMediaSubsession@@SAPEAV1@AEAVRTPSink@@PEAVRTCPInstance@@@Z
?creationTime@RTPSink@@QEBAAEBUtimeval@@XZ
?currentSeqNo@RTPSink@@QEBAGXZ
?deleteStream@PassiveServerMediaSubsession@@MEAAXIAEAPEAX@Z
?getCurrentNPT@PassiveServerMediaSubsession@@MEAAMPEAX@Z
?getRTPSinkandRTCP@PassiveServerMediaSubsession@@MEAAXPEAXAEAPEBVRTPSink@@AEAPEBVRTCPInstance@@@Z
?getStreamParameters@PassiveServerMediaSubsession@@MEAAXIIAEBVPort@@0HEEAEAIAEAEAEA_NAEAV2@4AEAPEAX@Z
?groupAddress@GroupEId@@QEBAAEBUin_addr@@XZ
?groupAddress@Groupsock@@QEBAAEBUin_addr@@XZ
?groupsockBeingUsed@RTPSink@@QEAAAEAVGroupsock@@XZ
?port@Socket@@QEBA?AVPort@@XZ
?rtcpIsMuxed@PassiveServerMediaSubsession@@MEAA_NXZ
?sdpLines@PassiveServerMediaSubsession@@MEAAPEBDXZ
?startStream@PassiveServerMediaSubsession@@MEAAXIPEAXP6AX0@Z0AEAGAEAIP6AX0E@Z0@Z
?totSessionBW@RTCPInstance@@QEBAIXZ
?ttl@GroupEId@@QEBAEXZ
?ttl@Groupsock@@QEBAEXZ
??_C@_02GMLFBBN@wb@
??_C@_06DJDOIFHB@stdout@
??_C@_06FJGNEBG@stderr@
??_C@_0BG@GKDACDPL@unable?5to?5open?5file?5?$CC@
?CloseOutputFile@@YAXPEAU_iobuf@@@Z
?OpenOutputFile@@YAPEAU_iobuf@@AEAVUsageEnvironment@@PEBD@Z
??0MD5Context@@QEAA@XZ
??1MD5Context@@QEAA@XZ
?addData@MD5Context@@QEAAXPEBEI@Z
?end@MD5Context@@QEAAXPEAD@Z
?finalize@MD5Context@@QEAAXPEAE@Z
?our_MD5Data@@YAPEADPEBEIPEAD@Z
?our_MD5DataRaw@@YAPEAEPEBEIPEAE@Z
?transform64Bytes@MD5Context@@AEAAXQEBE@Z
?zeroize@MD5Context@@AEAAXXZ
??0Destinations@@QEAA@AEBUin_addr@@AEBVPort@@1@Z
??0Destinations@@QEAA@HEE@Z
??0OnDemandServerMediaSubsession@@IEAA@AEAVUsageEnvironment@@_NG1@Z
??0StreamState@@QEAA@AEAVOnDemandServerMediaSubsession@@AEBVPort@@1PEAVRTPSink@@PEAVBasicUDPSink@@IPEAVFramedSource@@PEAVGroupsock@@5@Z
??1OnDemandServerMediaSubsession@@MEAA@XZ
??1StreamState@@UEAA@XZ
??_7OnDemandServerMediaSubsession@@6B@
??_7StreamState@@6B@
??_C@_0EB@DJJFIGNH@m?$DN?$CFs?5?$CFu?5RTP?1AVP?5?$CFd?$AN?6c?$DNIN?5IP4?5?$CFs@
??_GOnDemandServerMediaSubsession@@MEAAPEAXI@Z
??_GStreamState@@UEAAPEAXI@Z
??_R0?AVStreamState@@@8
??_R1A@?0A@EA@StreamState@@8
??_R2StreamState@@8
??_R3StreamState@@8
??_R4OnDemandServerMediaSubsession@@6B@
??_R4StreamState@@6B@
?addStreamSocket@RTPSink@@QEAAXHE@Z
?closeStreamSource@OnDemandServerMediaSubsession@@MEAAXPEAVFramedSource@@@Z
?createGroupsock@OnDemandServerMediaSubsession@@MEAAPEAVGroupsock@@AEBUin_addr@@VPort@@@Z
?createRTCP@OnDemandServerMediaSubsession@@MEAAPEAVRTCPInstance@@PEAVGroupsock@@IPEBEPEAVRTPSink@@@Z
?deleteStream@OnDemandServerMediaSubsession@@MEAAXIAEAPEAX@Z
?endPlaying@StreamState@@QEAAXPEAVDestinations@@I@Z
?getAuxSDPLine@OnDemandServerMediaSubsession@@MEAAPEBDPEAVRTPSink@@PEAVFramedSource@@@Z
?getCurrentNPT@OnDemandServerMediaSubsession@@MEAAMPEAX@Z
?getRTPSinkandRTCP@OnDemandServerMediaSubsession@@MEAAXPEAXAEAPEBVRTPSink@@AEAPEBVRTCPInstance@@@Z
?getStreamParameters@OnDemandServerMediaSubsession@@MEAAXIIAEBVPort@@0HEEAEAIAEAEAEA_NAEAV2@4AEAPEAX@Z
?getStreamSource@OnDemandServerMediaSubsession@@MEAAPEAVFramedSource@@PEAX@Z
?initialPresentationTime@RTPSink@@QEBAAEBUtimeval@@XZ
?mediaSource@StreamState@@QEBAPEAVFramedSource@@XZ
?mostRecentPresentationTime@RTPSink@@QEBAAEBUtimeval@@XZ
?nullSeekStream@OnDemandServerMediaSubsession@@MEAAXIPEAXNAEA_K@Z
?pause@StreamState@@QEAAXXZ
?pauseStream@OnDemandServerMediaSubsession@@MEAAXIPEAX@Z
?reclaim@StreamState@@QEAAXXZ
?referenceCount@StreamState@@QEAAAEAIXZ
?removeStreamSocket@RTCPInstance@@QEAAXHE@Z
?removeStreamSocket@RTPSink@@QEAAXHE@Z
?rtcpInstance@StreamState@@QEBAPEAVRTCPInstance@@XZ
?rtpSink@StreamState@@QEBAPEAVRTPSink@@XZ
?sdpLines@OnDemandServerMediaSubsession@@MEAAPEBDXZ
?seekStream@OnDemandServerMediaSubsession@@MEAAXIPEAXAEANNAEA_K@Z
?seekStream@OnDemandServerMediaSubsession@@MEAAXIPEAXAEAPEAD1@Z
?seekStreamSource@OnDemandServerMediaSubsession@@MEAAXPEAVFramedSource@@AEANNAEA_K@Z
?seekStreamSource@OnDemandServerMediaSubsession@@MEAAXPEAVFramedSource@@AEAPEAD1@Z
?sendRTCPAppPacket@OnDemandServerMediaSubsession@@QEAAXEPEBDPEAEI@Z
?sendRTCPAppPacket@StreamState@@QEAAXEPEBDPEAEI@Z
?serverRTCPPort@StreamState@@QEBAAEBVPort@@XZ
?serverRTPPort@StreamState@@QEBAAEBVPort@@XZ
?setRTCPAppPacketHandler@OnDemandServerMediaSubsession@@QEAAXP6AXPEAXEIPEAEI@Z0@Z
?setSDPLinesFromRTPSink@OnDemandServerMediaSubsession@@AEAAXPEAVRTPSink@@PEAVFramedSource@@I@Z
?setStreamScale@OnDemandServerMediaSubsession@@MEAAXIPEAXM@Z
?setStreamSourceDuration@OnDemandServerMediaSubsession@@MEAAXPEAVFramedSource@@NAEA_K@Z
?setStreamSourceScale@OnDemandServerMediaSubsession@@MEAAXPEAVFramedSource@@M@Z
?startNPT@StreamState@@QEAAAEAMXZ
?startPlaying@StreamState@@QEAAXPEAVDestinations@@IP6AXPEAX@Z1P6AX1E@Z1@Z
?startStream@OnDemandServerMediaSubsession@@MEAAXIPEAXP6AX0@Z0AEAGAEAIP6AX0E@Z0@Z
?streamDuration@StreamState@@QEBAMXZ
?trackNumber@ServerMediaSubsession@@QEBAIXZ
??0OggFileSink@@IEAA@AEAVUsageEnvironment@@PEAU_iobuf@@IPEBDI2@Z
??1OggFileSink@@MEAA@XZ
??_7OggFileSink@@6B@
??_C@_06IHBHKADO@theora@
??_GOggFileSink@@MEAAPEAXI@Z
??_R0?AVFileSink@@@8
??_R0?AVOggFileSink@@@8
??_R1A@?0A@EA@FileSink@@8
??_R1A@?0A@EA@OggFileSink@@8
??_R2FileSink@@8
??_R2OggFileSink@@8
??_R3FileSink@@8
??_R3OggFileSink@@8
??_R4OggFileSink@@6B@
?addData@OggFileSink@@MEAAXPEBEIUtimeval@@@Z
?afterGettingFrame@OggFileSink@@MEAAXIIUtimeval@@@Z
?continuePlaying@OggFileSink@@MEAA_NXZ
?createNew@OggFileSink@@SAPEAV1@AEAVUsageEnvironment@@PEBDI1I_N@Z
?ourOnSourceClosure@OggFileSink@@AEAAXXZ
?ourOnSourceClosure@OggFileSink@@CAXPEAX@Z
??0OggFileServerMediaSubsession@@IEAA@AEAVOggFileServerDemux@@PEAVOggTrack@@@Z
??1OggFileServerMediaSubsession@@MEAA@XZ
??_7OggFileServerMediaSubsession@@6B@
??_GOggFileServerMediaSubsession@@MEAAPEAXI@Z
??_R0?AVOggFileServerMediaSubsession@@@8
??_R1A@?0A@EA@OggFileServerMediaSubsession@@8
??_R2OggFileServerMediaSubsession@@8
??_R3OggFileServerMediaSubsession@@8
??_R4OggFileServerMediaSubsession@@6B@
?createNew@OggFileServerMediaSubsession@@SAPEAV1@AEAVOggFileServerDemux@@PEAVOggTrack@@@Z
?createNewRTPSink@OggFileServerMediaSubsession@@MEAAPEAVRTPSink@@PEAVGroupsock@@EPEAVFramedSource@@@Z
?createNewStreamSource@OggFileServerMediaSubsession@@MEAAPEAVFramedSource@@IAEAI@Z
?fileName@OggFileServerDemux@@QEBAPEBDXZ
?ourOggFile@OggFileServerDemux@@QEAAPEAVOggFile@@XZ
??0OggFileServerDemux@@AEAA@AEAVUsageEnvironment@@PEBDP6AXPEAV0@PEAX@Z3@Z
??1OggFileServerDemux@@EEAA@XZ
??_7OggFileServerDemux@@6B@
??_GOggFileServerDemux@@EEAAPEAXI@Z
??_R0?AVOggFileServerDemux@@@8
??_R1A@?0A@EA@OggFileServerDemux@@8
??_R2OggFileServerDemux@@8
??_R3OggFileServerDemux@@8
??_R4OggFileServerDemux@@6B@
?createNew@OggFileServerDemux@@SAXAEAVUsageEnvironment@@PEBDP6AXPEAV1@PEAX@Z3@Z
?newDemuxedTrack@OggFileServerDemux@@QEAAPEAVFramedSource@@II@Z
?newServerMediaSubsession@OggFileServerDemux@@QEAAPEAVServerMediaSubsession@@AEAI@Z
?newServerMediaSubsession@OggFileServerDemux@@QEAAPEAVServerMediaSubsession@@XZ
?newServerMediaSubsessionByTrackNumber@OggFileServerDemux@@QEAAPEAVServerMediaSubsession@@I@Z
?onOggFileCreation@OggFileServerDemux@@AEAAXPEAVOggFile@@@Z
?onOggFileCreation@OggFileServerDemux@@CAXPEAVOggFile@@PEAX@Z
?trackTable@OggFile@@QEAAAEAVOggTrackTable@@XZ
??0LEBitVector@@QEAA@PEBEI@Z
??0OggFileParser@@QEAA@AEAVOggFile@@PEAVFramedSource@@P6AXPEAX@Z2PEAVOggDemux@@@Z
??0PacketSizeTable@@QEAA@I@Z
??1OggFileParser@@UEAA@XZ
??1PacketSizeTable@@QEAA@XZ
??_7OggFileParser@@6B@
??_C@_06EFKACOKC@vorbis@
??_C@_08IAOIDIAJ@OpusTags@
??_C@_08KLJECNPJ@OpusHead@
??_C@_0CA@NPMNAJJD@?7?7?7?7vorbis_mapping_mux?$FL?$CFd?$FN?3?5?$CFd?6@
??_C@_0CH@OKKNFFKG@Vorbis?5Floors?0?5read?5bad?5floor?5t@
??_C@_0CI@LDECKAO@Failed?5to?5parse?5Vorbis?5?$CCsetup?$CC?5@
??_C@_0CK@GBJJMJEC@?$CCcomment?$CC?5header?5is?5too?5short?5?$CI@
??_C@_0CM@IFMEIPCB@Vorbis?5Mappings?0?5read?5bad?5?8rese@
??_C@_0DD@KEAEPOMH@Vorbis?5Residues?0?5read?5bad?5vorbi@
??_C@_0DD@NDEECBGE@Vorbis?5Mappings?0?5read?5bad?5vorbi@
??_C@_0DH@HBEEDCLH@Saw?5page?5with?5unknown?5Ogg?5file?5@
??_C@_0DH@HHBHPJOB@Vorbis?5Time?5domain?5transforms?0?5@
??_C@_0DI@DAOALMAI@Vorbis?5?$CCidentification?$CC?5header?3@
??_C@_0DI@GJJNPDGH@Theora?5?$CCidentification?$CC?5header?5@
??_C@_0DI@IOCBCEKB@Vorbis?5?$CCidentification?$CC?5header?5@
??_C@_0DJ@OFFGFDCN@Theora?5?$CCidentification?$CC?5header?3@
??_C@_0DJ@PNCKGCPK@Vorbis?5codebook?5parsing?5error?3?5@
??_C@_0DK@FGAPKEDE@Vorbis?5?$CCsetup?$CC?5header?5did?5not?5e@
??_C@_0DL@GMIODOCM@Vorbis?5?$CCidentification?$CC?5header?3@
??_C@_0DL@HCGLKDFH@Vorbis?5?$CCidentification?$CC?5header?3@
??_C@_0DO@BNIFMCLF@Invalid?5Vorbis?5?$CCblocksize_0?$CC?5?$CI?$CF@
??_C@_0ED@BDAKHOOC@Theora?5?$CCidentification?$CC?5header?3@
??_C@_0ED@LAFEHIGA@Vorbis?5?$CCidentification?$CC?5header?5@
??_C@_0EH@GDALGKDD@Error?3?5Bad?5mode?5number?5?$CFd?5?$CI?$DO?$DN?5v@
??_C@_0EI@LFGLEDO@Vorbis?5codebook?5parsing?5error?3?5@
??_C@_0FE@HMMOPPLI@Vorbis?5Mappings?0?5read?5bad?5?$CCvorb@
??_C@_0L@LKCCILBG@audio?1OPUS@
??_GOggFileParser@@UEAAPEAXI@Z
??_GPacketSizeTable@@QEAAPEAXI@Z
??_R0?AVOggFileParser@@@8
??_R1A@?0A@EA@OggFileParser@@8
??_R2OggFileParser@@8
??_R3OggFileParser@@8
??_R4OggFileParser@@6B@
?continueParsing@OggFileParser@@QEAAXXZ
?continueParsing@OggFileParser@@SAXPEAXPEAEIUtimeval@@@Z
?deliverPacketWithinPage@OggFileParser@@AEAA_NXZ
?durationInMicroseconds@OggDemuxedTrack@@AEAAAEAIXZ
?frameSize@OggDemuxedTrack@@AEAAAEAIXZ
?get1Byte@StreamParser@@IEAAEXZ
?get4Bytes@StreamParser@@IEAAIXZ
?getBits@LEBitVector@@QEAAII@Z
?getBytes@StreamParser@@IEAAXPEAEI@Z
?maxSize@OggDemuxedTrack@@AEAAAEAIXZ
?needHeaders@OggFileParser@@AEAA_NXZ
?nextPresentationTime@OggDemuxedTrack@@AEAAAEAUtimeval@@XZ
?noMoreBits@LEBitVector@@QEBA_NXZ
?numTruncatedBytes@OggDemuxedTrack@@AEAAAEAIXZ
?parse@OggFileParser@@AEAA_NXZ
?parseAndDeliverPage@OggFileParser@@AEAA_NXZ
?parseAndDeliverPages@OggFileParser@@AEAAXXZ
?parseInitialPage@OggFileParser@@AEAAEXZ
?parseStartOfFile@OggFileParser@@AEAA_NXZ
?parseStartOfPage@OggFileParser@@AEAAXAEAEAEAI@Z
?presentationTime@OggDemuxedTrack@@AEAAAEAUtimeval@@XZ
?skipBits@LEBitVector@@QEAAXI@Z
?skipBytes@StreamParser@@IEAAXI@Z
?testBytes@StreamParser@@IEAAXPEAEI@Z
?to@OggDemuxedTrack@@AEAAAEAPEAEXZ
?validateHeader@OggFileParser@@AEAA_NPEAVOggTrack@@PEBEI@Z
?weNeedHeaders@OggTrack@@QEBA_NXZ
??0OggDemux@@IEAA@AEAVOggFile@@@Z
??0OggFile@@AEAA@AEAVUsageEnvironment@@PEBDP6AXPEAV0@PEAX@Z3@Z
??0OggTrack@@QEAA@XZ
??0OggTrackTable@@QEAA@XZ
??0OggTrackTableIterator@@QEAA@AEAVOggTrackTable@@@Z
??1OggDemux@@MEAA@XZ
??1OggFile@@EEAA@XZ
??1OggTrack@@UEAA@XZ
??1OggTrackTable@@UEAA@XZ
??1OggTrackTableIterator@@UEAA@XZ
??_7OggDemux@@6B@
??_7OggFile@@6B@
??_7OggTrack@@6B@
??_7OggTrackTable@@6B@
??_7OggTrackTableIterator@@6B@
??_GOggDemux@@MEAAPEAXI@Z
??_GOggFile@@EEAAPEAXI@Z
??_GOggTrack@@UEAAPEAXI@Z
??_GOggTrackTable@@UEAAPEAXI@Z
??_GOggTrackTableIterator@@UEAAPEAXI@Z
??_R0?AVOggDemux@@@8
??_R0?AVOggFile@@@8
??_R0?AVOggTrack@@@8
??_R0?AVOggTrackTable@@@8
??_R0?AVOggTrackTableIterator@@@8
??_R1A@?0A@EA@OggDemux@@8
??_R1A@?0A@EA@OggFile@@8
??_R1A@?0A@EA@OggTrack@@8
??_R1A@?0A@EA@OggTrackTable@@8
??_R1A@?0A@EA@OggTrackTableIterator@@8
??_R2OggDemux@@8
??_R2OggFile@@8
??_R2OggTrack@@8
??_R2OggTrackTable@@8
??_R2OggTrackTableIterator@@8
??_R3OggDemux@@8
??_R3OggFile@@8
??_R3OggTrack@@8
??_R3OggTrackTable@@8
??_R3OggTrackTableIterator@@8
??_R4OggDemux@@6B@
??_R4OggFile@@6B@
??_R4OggTrack@@6B@
??_R4OggTrackTable@@6B@
??_R4OggTrackTableIterator@@6B@
?add@OggTrackTable@@QEAAXPEAVOggTrack@@@Z
?addTrack@OggFile@@AEAAXPEAVOggTrack@@@Z
?continueReading@OggDemux@@AEAAXXZ
?createNew@OggFile@@SAXAEAVUsageEnvironment@@PEBDP6AXPEAV1@PEAX@Z3@Z
?createRTPSinkForTrackNumber@OggFile@@QEAAPEAVRTPSink@@IPEAVGroupsock@@E@Z
?createSourceForStreaming@OggFile@@QEAAPEAVFramedSource@@PEAV2@IAEAI1@Z
?fileName@OggFile@@QEBAPEBDXZ
?handleEndOfBosPageParsing@OggFile@@AEAAXXZ
?handleEndOfBosPageParsing@OggFile@@CAXPEAX@Z
?handleEndOfFile@OggDemux@@AEAAXXZ
?handleEndOfFile@OggDemux@@CAXPEAX@Z
?lookup@OggFile@@QEAAPEAVOggTrack@@I@Z
?lookup@OggTrackTable@@QEAAPEAVOggTrack@@I@Z
?lookupDemuxedTrack@OggDemux@@IEAAPEAVOggDemuxedTrack@@I@Z
?newDemux@OggFile@@QEAAPEAVOggDemux@@XZ
?newDemuxedTrack@OggDemux@@QEAAPEAVFramedSource@@AEAI@Z
?newDemuxedTrackByTrackNumber@OggDemux@@QEAAPEAVFramedSource@@I@Z
?next@OggTrackTableIterator@@QEAAPEAVOggTrack@@XZ
?numTracks@OggFile@@QEBAIXZ
?numTracks@OggTrackTable@@QEBAIXZ
?removeDemux@OggFile@@AEAAXPEAVOggDemux@@@Z
?removeTrack@OggDemux@@AEAAXI@Z
??0OggDemuxedTrack@@AEAA@AEAVUsageEnvironment@@IAEAVOggDemux@@@Z
??1OggDemuxedTrack@@EEAA@XZ
??_7OggDemuxedTrack@@6B@
??_GOggDemuxedTrack@@EEAAPEAXI@Z
??_R0?AVOggDemuxedTrack@@@8
??_R1A@?0A@EA@OggDemuxedTrack@@8
??_R2OggDemuxedTrack@@8
??_R3OggDemuxedTrack@@8
??_R4OggDemuxedTrack@@6B@
?MIMEtype@OggDemuxedTrack@@EEBAPEBDXZ
?doGetNextFrame@OggDemuxedTrack@@EEAAXXZ
??0BufferedPacket@@QEAA@XZ
??0BufferedPacketFactory@@QEAA@XZ
??0MultiFramedRTPSource@@IEAA@AEAVUsageEnvironment@@PEAVGroupsock@@EIPEAVBufferedPacketFactory@@@Z
??0ReorderingPacketBuffer@@QEAA@PEAVBufferedPacketFactory@@@Z
??1BufferedPacket@@UEAA@XZ
??1BufferedPacketFactory@@UEAA@XZ
??1MultiFramedRTPSource@@MEAA@XZ
??1ReorderingPacketBuffer@@UEAA@XZ
??_7BufferedPacket@@6B@
??_7BufferedPacketFactory@@6B@
??_7MultiFramedRTPSource@@6B@
??_7ReorderingPacketBuffer@@6B@
??_C@_04BICIPPNI@?$CJ?4?5?5@
??_C@_0CK@PNJDMKAM@?5bytes?5of?5trailing?5data?5will?5be@
??_C@_0FG@PKGDOJGC@MultiFramedRTPSource?5internal?5e@
??_C@_0GK@CCEDGBJO@MultiFramedRTPSource?3?3doGetNext@
??_GBufferedPacket@@UEAAPEAXI@Z
??_GBufferedPacketFactory@@UEAAPEAXI@Z
??_GMultiFramedRTPSource@@MEAAPEAXI@Z
??_GReorderingPacketBuffer@@UEAAPEAXI@Z
??_R0?AVReorderingPacketBuffer@@@8
??_R1A@?0A@EA@ReorderingPacketBuffer@@8
??_R2ReorderingPacketBuffer@@8
??_R3ReorderingPacketBuffer@@8
??_R4BufferedPacket@@6B@
??_R4BufferedPacketFactory@@6B@
??_R4MultiFramedRTPSource@@6B@
??_R4ReorderingPacketBuffer@@6B@
?appendData@BufferedPacket@@QEAAXPEAEI@Z
?assignMiscParams@BufferedPacket@@QEAAXGIUtimeval@@_N10@Z
?bytesAvailable@BufferedPacket@@QEBAIXZ
?createNewPacket@BufferedPacketFactory@@UEAAPEAVBufferedPacket@@PEAVMultiFramedRTPSource@@@Z
?doGetNextFrame1@MultiFramedRTPSource@@AEAAXXZ
?doGetNextFrame@MultiFramedRTPSource@@EEAAXXZ
?doStopGettingFrames@MultiFramedRTPSource@@MEAAXXZ
?fillInData@BufferedPacket@@QEAA_NAEAVRTPInterface@@AEAUsockaddr_in@@AEA_N@Z
?freePacket@ReorderingPacketBuffer@@QEAAXPEAVBufferedPacket@@@Z
?getFreePacket@ReorderingPacketBuffer@@QEAAPEAVBufferedPacket@@PEAVMultiFramedRTPSource@@@Z
?getNextCompletedPacket@ReorderingPacketBuffer@@QEAAPEAVBufferedPacket@@AEA_N@Z
?getNextEnclosedFrameParameters@BufferedPacket@@MEAAXAEAPEAEIAEAI1@Z
?hasUsableData@BufferedPacket@@QEBA_NXZ
?isEmpty@ReorderingPacketBuffer@@QEBA_NXZ
?isFirstPacket@BufferedPacket@@QEAAAEA_NXZ
?networkReadHandler1@MultiFramedRTPSource@@AEAAXXZ
?networkReadHandler@MultiFramedRTPSource@@CAXPEAV1@H@Z
?nextEnclosedFrameSize@BufferedPacket@@MEAAIAEAPEAEI@Z
?nextPacket@BufferedPacket@@QEAAAEAPEAV1@XZ
?packetIsUsableInJitterCalculation@MultiFramedRTPSource@@MEAA_NPEAEI@Z
?processSpecialHeader@MultiFramedRTPSource@@MEAA_NPEAVBufferedPacket@@AEAI@Z
?releaseUsedPacket@ReorderingPacketBuffer@@QEAAXPEAVBufferedPacket@@@Z
?removePadding@BufferedPacket@@QEAAXI@Z
?reset@BufferedPacket@@MEAAXXZ
?reset@MultiFramedRTPSource@@AEAAXXZ
?reset@ReorderingPacketBuffer@@QEAAXXZ
?resetHaveSeenFirstPacket@ReorderingPacketBuffer@@QEAAXXZ
?rtpSeqNo@BufferedPacket@@QEBAGXZ
?setPacketReorderingThresholdTime@MultiFramedRTPSource@@EEAAXI@Z
?setThresholdTime@ReorderingPacketBuffer@@QEAAXI@Z
?skip@BufferedPacket@@QEAAXI@Z
?storePacket@ReorderingPacketBuffer@@QEAA_NPEAVBufferedPacket@@@Z
?timeReceived@BufferedPacket@@QEBAAEBUtimeval@@XZ
?use@BufferedPacket@@QEAAXPEAEIAEAI1AEAG1AEAUtimeval@@AEA_N4@Z
?useCount@BufferedPacket@@QEBAIXZ
??0MultiFramedRTPSink@@IEAA@AEAVUsageEnvironment@@PEAVGroupsock@@EIPEBDI@Z
??1MultiFramedRTPSink@@MEAA@XZ
??_7MultiFramedRTPSink@@6B@
??_C@_03FDCFGNAL@?4?$CJ?6@
??_C@_0DI@DAFHEPIF@?0?5?$CKbefore?$CK?5creating?5this?5?8RTPSi@
??_C@_0GD@BEPJOCIK@MultiFramedRTPSink?3?3afterGettin@
??_C@_0GJ@IKNJIFMA@?5bytes?5of?5trailing?5data?5was?5dro@
??_GMultiFramedRTPSink@@MEAAPEAXI@Z
??_R4MultiFramedRTPSink@@6B@
?afterGettingFrame1@MultiFramedRTPSink@@AEAAXIIUtimeval@@I@Z
?afterGettingFrame@MultiFramedRTPSink@@CAXPEAXIIUtimeval@@I@Z
?allowFragmentationAfterStart@MultiFramedRTPSink@@MEBA_NXZ
?allowOtherFramesAfterLastFragment@MultiFramedRTPSink@@MEBA_NXZ
?buildAndSendPacket@MultiFramedRTPSink@@AEAAX_N@Z
?computeOverflowForNewFrame@MultiFramedRTPSink@@MEBAII@Z
?continuePlaying@MultiFramedRTPSink@@MEAA_NXZ
?curPtr@OutPacketBuffer@@QEBAPEAEXZ
?doSpecialFrameHandling@MultiFramedRTPSink@@MEAAXIPEAEIUtimeval@@I@Z
?frameCanAppearAfterPacketStart@MultiFramedRTPSink@@MEBA_NPEBEI@Z
?frameSpecificHeaderSize@MultiFramedRTPSink@@MEBAIXZ
?haveOverflowData@OutPacketBuffer@@QEBA_NXZ
?increment@OutPacketBuffer@@QEAAXI@Z
?isFirstFrameInPacket@MultiFramedRTPSink@@IEBA_NXZ
?isPreferredSize@OutPacketBuffer@@QEBA_NXZ
?isTooBigForAPacket@MultiFramedRTPSink@@AEBA_NI@Z
?isTooBigForAPacket@OutPacketBuffer@@QEBA_NI@Z
?numOverflowBytes@OutPacketBuffer@@QEBAII@Z
?ourHandleClosure@MultiFramedRTPSink@@CAXPEAX@Z
?overflowDataSize@OutPacketBuffer@@QEBAIXZ
?overflowDurationInMicroseconds@OutPacketBuffer@@QEBAIXZ
?overflowPresentationTime@OutPacketBuffer@@QEBA?AUtimeval@@XZ
?packFrame@MultiFramedRTPSink@@AEAAXXZ
?resetOverflowData@OutPacketBuffer@@QEAAXXZ
?sendNext@MultiFramedRTPSink@@CAXPEAX@Z
?sendPacketIfNecessary@MultiFramedRTPSink@@AEAAXXZ
?setFramePadding@MultiFramedRTPSink@@IEAAXI@Z
?setFrameSpecificHeaderBytes@MultiFramedRTPSink@@IEAAXPEBEII@Z
?setFrameSpecificHeaderWord@MultiFramedRTPSink@@IEAAXII@Z
?setMarkerBit@MultiFramedRTPSink@@IEAAXXZ
?setPacketSizes@MultiFramedRTPSink@@QEAAXII@Z
?setSpecialHeaderBytes@MultiFramedRTPSink@@IEAAXPEBEII@Z
?setSpecialHeaderWord@MultiFramedRTPSink@@IEAAXII@Z
?setTimestamp@MultiFramedRTPSink@@IEAAXUtimeval@@@Z
?specialHeaderSize@MultiFramedRTPSink@@MEBAIXZ
?stopPlaying@MultiFramedRTPSink@@UEAAXXZ
?totalBufferSize@OutPacketBuffer@@QEBAIXZ
?totalBytesAvailable@OutPacketBuffer@@QEBAIXZ
?wouldOverflow@OutPacketBuffer@@QEBA_NI@Z
??0MPEGVideoStreamParser@@QEAA@PEAVMPEGVideoStreamFramer@@PEAVFramedSource@@@Z
??1MPEGVideoStreamParser@@UEAA@XZ
??_7MPEGVideoStreamParser@@6B@
??_GMPEGVideoStreamParser@@UEAAPEAXI@Z
??_R0?AVMPEGVideoStreamParser@@@8
??_R1A@?0A@EA@MPEGVideoStreamParser@@8
??_R2MPEGVideoStreamParser@@8
??_R3MPEGVideoStreamParser@@8
??_R4MPEGVideoStreamParser@@6B@
?registerReadInterest@MPEGVideoStreamParser@@QEAAXPEAEI@Z
?restoreSavedParserState@MPEGVideoStreamParser@@EEAAXXZ
??0MPEGVideoStreamFramer@@IEAA@AEAVUsageEnvironment@@PEAVFramedSource@@@Z
??0TimeCode@@QEAA@XZ
??1MPEGVideoStreamFramer@@MEAA@XZ
??1TimeCode@@UEAA@XZ
??4TimeCode@@QEAAAEAV0@AEBV0@@Z
??8TimeCode@@QEAAHAEBV0@@Z
??_7MPEGVideoStreamFramer@@6B@
??_7TimeCode@@6B@
??_GMPEGVideoStreamFramer@@MEAAPEAXI@Z
??_GTimeCode@@UEAAPEAXI@Z
??_R0?AVMPEGVideoStreamFramer@@@8
??_R0?AVTimeCode@@@8
??_R1A@?0A@EA@MPEGVideoStreamFramer@@8
??_R1A@?0A@EA@TimeCode@@8
??_R2MPEGVideoStreamFramer@@8
??_R2TimeCode@@8
??_R3MPEGVideoStreamFramer@@8
??_R3TimeCode@@8
??_R4MPEGVideoStreamFramer@@6B@
??_R4TimeCode@@6B@
?computePresentationTime@MPEGVideoStreamFramer@@IEAAXI@Z
?continueReadProcessing@MPEGVideoStreamFramer@@AEAAXXZ
?continueReadProcessing@MPEGVideoStreamFramer@@CAXPEAXPEAEIUtimeval@@@Z
?doGetNextFrame@MPEGVideoStreamFramer@@EEAAXXZ
?doStopGettingFrames@MPEGVideoStreamFramer@@EEAAXXZ
?flushInput@MPEGVideoStreamFramer@@QEAAXXZ
?numTruncatedBytes@MPEGVideoStreamParser@@QEBAIXZ
?reset@MPEGVideoStreamFramer@@AEAAXXZ
?setTimeCode@MPEGVideoStreamFramer@@IEAAXIIIII@Z
??0MPEG4VideoStreamFramer@@IEAA@AEAVUsageEnvironment@@PEAVFramedSource@@_N@Z
??0MPEG4VideoStreamParser@@QEAA@PEAVMPEG4VideoStreamFramer@@PEAVFramedSource@@@Z
??1MPEG4VideoStreamFramer@@MEAA@XZ
??1MPEG4VideoStreamParser@@UEAA@XZ
??_7MPEG4VideoStreamFramer@@6B@
??_7MPEG4VideoStreamParser@@6B@
??_C@_0CL@OHICIEA@Not?5enough?5bits?5in?5VOL?5header?3?5@
??_C@_0ED@LEEAAAIM@MPEG4VideoStreamParser?3?3analyze@
??_C@_0ED@MDNONCHM@MPEG4VideoStreamParser?3?3analyze@
??_C@_0EG@LHPOFNAE@MPEG4VideoStreamParser?3?3parseVi@
??_C@_0EG@OJHLMDFE@MPEG4VideoStreamParser?3?3parseVi@
??_C@_0FE@GCPIKECO@MPEG4VideoStreamParser?3?3analyze@
??_C@_0FK@HMCGKPPK@MPEG4VideoStreamParser?3?3parseVi@
??_C@_0GG@HADBCOI@MPEG4VideoStreamParser?3?3parseVi@
??_C@_0HM@OAMMKCKB@MPEG4VideoStreamParser?3?3parseVi@
??_GMPEG4VideoStreamFramer@@MEAAPEAXI@Z
??_GMPEG4VideoStreamParser@@UEAAPEAXI@Z
??_R0?AVMPEG4VideoStreamFramer@@@8
??_R0?AVMPEG4VideoStreamParser@@@8
??_R1A@?0A@EA@MPEG4VideoStreamFramer@@8
??_R1A@?0A@EA@MPEG4VideoStreamParser@@8
??_R2MPEG4VideoStreamFramer@@8
??_R2MPEG4VideoStreamParser@@8
??_R3MPEG4VideoStreamFramer@@8
??_R3MPEG4VideoStreamParser@@8
??_R4MPEG4VideoStreamFramer@@6B@
??_R4MPEG4VideoStreamParser@@6B@
?analyzeVOLHeader@MPEG4VideoStreamParser@@AEAAXXZ
?appendToNewConfig@MPEG4VideoStreamFramer@@IEAAXPEAEI@Z
?completeNewConfig@MPEG4VideoStreamFramer@@IEAAXXZ
?createNew@MPEG4VideoStreamFramer@@SAPEAV1@AEAVUsageEnvironment@@PEAVFramedSource@@@Z
?curFrameSize@MPEGVideoStreamParser@@IEAAIXZ
?flushInput@MPEG4VideoStreamParser@@EEAAXXZ
?getConfigBytes@MPEG4VideoStreamFramer@@QEBAPEAEAEAI@Z
?getNextFrameBit@MPEG4VideoStreamParser@@AEAA_NAEAE@Z
?getNextFrameBits@MPEG4VideoStreamParser@@AEAA_NIAEAI@Z
?isMPEG4VideoStreamFramer@MPEG4VideoStreamFramer@@EEBA_NXZ
?parse@MPEG4VideoStreamParser@@EEAAIXZ
?parseGroupOfVideoObjectPlane@MPEG4VideoStreamParser@@AEAAIXZ
?parseVideoObjectLayer@MPEG4VideoStreamParser@@AEAAIXZ
?parseVideoObjectPlane@MPEG4VideoStreamParser@@AEAAIXZ
?parseVisualObject@MPEG4VideoStreamParser@@AEAAIXZ
?parseVisualObjectSequence@MPEG4VideoStreamParser@@AEAAI_N@Z
?parseVisualObjectSequenceEndCode@MPEG4VideoStreamParser@@AEAAIXZ
?save4Bytes@MPEGVideoStreamParser@@IEAAXI@Z
?saveByte@MPEGVideoStreamParser@@IEAAXE@Z
?saveToNextCode@MPEGVideoStreamParser@@IEAAXAEAI@Z
?setConfigInfo@MPEG4VideoStreamFramer@@QEAAXEPEBD@Z
?setParseState@MPEG4VideoStreamParser@@AEAAXW4MPEGParseState@@@Z
?setParseState@MPEGVideoStreamParser@@IEAAXXZ
?startNewConfig@MPEG4VideoStreamFramer@@IEAAXXZ
?usingSource@MPEG4VideoStreamParser@@AEAAPEAVMPEG4VideoStreamFramer@@XZ
??0MPEG4VideoStreamDiscreteFramer@@IEAA@AEAVUsageEnvironment@@PEAVFramedSource@@_N@Z
??1MPEG4VideoStreamDiscreteFramer@@MEAA@XZ
??_7MPEG4VideoStreamDiscreteFramer@@6B@
??_GMPEG4VideoStreamDiscreteFramer@@MEAAPEAXI@Z
??_R0?AVMPEG4VideoStreamDiscreteFramer@@@8
??_R1A@?0A@EA@MPEG4VideoStreamDiscreteFramer@@8
??_R2MPEG4VideoStreamDiscreteFramer@@8
??_R3MPEG4VideoStreamDiscreteFramer@@8
??_R4MPEG4VideoStreamDiscreteFramer@@6B@
?afterGettingFrame1@MPEG4VideoStreamDiscreteFramer@@IEAAXIIUtimeval@@I@Z
?afterGettingFrame@MPEG4VideoStreamDiscreteFramer@@KAXPEAXIIUtimeval@@I@Z
?analyzeVOLHeader@MPEG4VideoStreamDiscreteFramer@@IEAAXXZ
?createNew@MPEG4VideoStreamDiscreteFramer@@SAPEAV1@AEAVUsageEnvironment@@PEAVFramedSource@@_N@Z
?doGetNextFrame@MPEG4VideoStreamDiscreteFramer@@MEAAXXZ
?getNextFrameBit@MPEG4VideoStreamDiscreteFramer@@IEAA_NAEAE@Z
?getNextFrameBits@MPEG4VideoStreamDiscreteFramer@@IEAA_NIAEAI@Z
??0MPEG4VideoFileServerMediaSubsession@@IEAA@AEAVUsageEnvironment@@PEBD_N@Z
??1MPEG4VideoFileServerMediaSubsession@@MEAA@XZ
??_7MPEG4VideoFileServerMediaSubsession@@6B@
??_GMPEG4VideoFileServerMediaSubsession@@MEAAPEAXI@Z
??_R0?AVMPEG4VideoFileServerMediaSubsession@@@8
??_R1A@?0A@EA@MPEG4VideoFileServerMediaSubsession@@8
??_R2MPEG4VideoFileServerMediaSubsession@@8
??_R3MPEG4VideoFileServerMediaSubsession@@8
??_R4MPEG4VideoFileServerMediaSubsession@@6B@
?afterPlayingDummy1@MPEG4VideoFileServerMediaSubsession@@QEAAXXZ
?checkForAuxSDPLine1@MPEG4VideoFileServerMediaSubsession@@QEAAXXZ
?createNew@MPEG4VideoFileServerMediaSubsession@@SAPEAV1@AEAVUsageEnvironment@@PEBD_N@Z
?createNewRTPSink@MPEG4VideoFileServerMediaSubsession@@MEAAPEAVRTPSink@@PEAVGroupsock@@EPEAVFramedSource@@@Z
?createNewStreamSource@MPEG4VideoFileServerMediaSubsession@@MEAAPEAVFramedSource@@IAEAI@Z
?fileSize@ByteStreamFileSource@@QEBA_KXZ
?getAuxSDPLine@MPEG4VideoFileServerMediaSubsession@@MEAAPEBDPEAVRTPSink@@PEAVFramedSource@@@Z
?setDoneFlag@MPEG4VideoFileServerMediaSubsession@@IEAAXXZ
??0LATMBufferedPacket@@QEAA@_N@Z
??0LATMBufferedPacketFactory@@QEAA@XZ
??0MPEG4LATMAudioRTPSource@@AEAA@AEAVUsageEnvironment@@PEAVGroupsock@@EI@Z
??1LATMBufferedPacket@@UEAA@XZ
??1LATMBufferedPacketFactory@@UEAA@XZ
??1MPEG4LATMAudioRTPSource@@MEAA@XZ
??_7LATMBufferedPacket@@6B@
??_7LATMBufferedPacketFactory@@6B@
??_7MPEG4LATMAudioRTPSource@@6B@
??_C@_0BA@DDBFFBIH@audio?1MP4A?9LATM@
??_GLATMBufferedPacket@@UEAAPEAXI@Z
??_GLATMBufferedPacketFactory@@UEAAPEAXI@Z
??_GMPEG4LATMAudioRTPSource@@MEAAPEAXI@Z
??_R0?AVLATMBufferedPacket@@@8
??_R0?AVLATMBufferedPacketFactory@@@8
??_R0?AVMPEG4LATMAudioRTPSource@@@8
??_R1A@?0A@EA@LATMBufferedPacket@@8
??_R1A@?0A@EA@LATMBufferedPacketFactory@@8
??_R1A@?0A@EA@MPEG4LATMAudioRTPSource@@8
??_R2LATMBufferedPacket@@8
??_R2LATMBufferedPacketFactory@@8
??_R2MPEG4LATMAudioRTPSource@@8
??_R3LATMBufferedPacket@@8
??_R3LATMBufferedPacketFactory@@8
??_R3MPEG4LATMAudioRTPSource@@8
??_R4LATMBufferedPacket@@6B@
??_R4LATMBufferedPacketFactory@@6B@
??_R4MPEG4LATMAudioRTPSource@@6B@
?MIMEtype@MPEG4LATMAudioRTPSource@@EEBAPEBDXZ
?createNew@MPEG4LATMAudioRTPSource@@SAPEAV1@AEAVUsageEnvironment@@PEAVGroupsock@@EI@Z
?createNewPacket@LATMBufferedPacketFactory@@EEAAPEAVBufferedPacket@@PEAVMultiFramedRTPSource@@@Z
?nextEnclosedFrameSize@LATMBufferedPacket@@EEAAIAEAPEAEI@Z
?omitLATMDataLengthField@MPEG4LATMAudioRTPSource@@QEAAXXZ
?parseGeneralConfigStr@@YAPEAEPEBDAEAI@Z
?parseStreamMuxConfigStr@@YAPEAEPEBDAEAI@Z
?parseStreamMuxConfigStr@@YA_NPEBDAEA_N1AEAE22AEAPEAEAEAI@Z
?processSpecialHeader@MPEG4LATMAudioRTPSource@@EEAA_NPEAVBufferedPacket@@AEAI@Z
?returnedFrameIncludesLATMDataLengthField@MPEG4LATMAudioRTPSource@@QEBA_NXZ
??0MPEG4LATMAudioRTPSink@@IEAA@AEAVUsageEnvironment@@PEAVGroupsock@@EIPEBDI_N@Z
??1MPEG4LATMAudioRTPSink@@MEAA@XZ
??_7MPEG4LATMAudioRTPSink@@6B@
??_C@_0CB@ODAFONOO@a?$DNfmtp?3?$CFd?5cpresent?$DN0?$DLconfig?$DN?$CFs?$AN@
??_GMPEG4LATMAudioRTPSink@@MEAAPEAXI@Z
??_R0?AVMPEG4LATMAudioRTPSink@@@8
??_R1A@?0A@EA@MPEG4LATMAudioRTPSink@@8
??_R2MPEG4LATMAudioRTPSink@@8
??_R3MPEG4LATMAudioRTPSink@@8
??_R4MPEG4LATMAudioRTPSink@@6B@
?auxSDPLine@MPEG4LATMAudioRTPSink@@EEAAPEBDXZ
?createNew@MPEG4LATMAudioRTPSink@@SAPEAV1@AEAVUsageEnvironment@@PEAVGroupsock@@EIPEBDI_N@Z
?doSpecialFrameHandling@MPEG4LATMAudioRTPSink@@EEAAXIPEAEIUtimeval@@I@Z
?frameCanAppearAfterPacketStart@MPEG4LATMAudioRTPSink@@EEBA_NPEBEI@Z
??0MPEG4GenericBufferedPacket@@QEAA@PEAVMPEG4GenericRTPSource@@@Z
??0MPEG4GenericBufferedPacketFactory@@QEAA@XZ
??0MPEG4GenericRTPSource@@AEAA@AEAVUsageEnvironment@@PEAVGroupsock@@EIPEBD2III@Z
??1MPEG4GenericBufferedPacket@@UEAA@XZ
??1MPEG4GenericBufferedPacketFactory@@UEAA@XZ
??1MPEG4GenericRTPSource@@MEAA@XZ
??_7MPEG4GenericBufferedPacket@@6B@
??_7MPEG4GenericBufferedPacketFactory@@6B@
??_7MPEG4GenericRTPSource@@6B@
??_C@_03MAOBAEAK@?$CJ?$CB?6@
??_C@_07DCLBNMLN@generic@
??_C@_07LEKEIKHF@aac?9hbr@
??_C@_0BA@CKAMJKPD@?$CJ?3?5data?5error?5?$CI@
??_C@_0BB@CJBDFBJC@?$CFs?1MPEG4?9GENERIC@
??_C@_0DD@FHCFMNLD@MPEG4GenericBufferedPacket?3?3nex@
??_C@_0DP@CFGABKGN@MPEG4GenericRTPSource?5Warning?3?5@
??_GMPEG4GenericBufferedPacket@@UEAAPEAXI@Z
??_GMPEG4GenericBufferedPacketFactory@@UEAAPEAXI@Z
??_GMPEG4GenericRTPSource@@MEAAPEAXI@Z
??_R0?AVMPEG4GenericBufferedPacket@@@8
??_R0?AVMPEG4GenericBufferedPacketFactory@@@8
??_R0?AVMPEG4GenericRTPSource@@@8
??_R1A@?0A@EA@MPEG4GenericBufferedPacket@@8
??_R1A@?0A@EA@MPEG4GenericBufferedPacketFactory@@8
??_R1A@?0A@EA@MPEG4GenericRTPSource@@8
??_R2MPEG4GenericBufferedPacket@@8
??_R2MPEG4GenericBufferedPacketFactory@@8
??_R2MPEG4GenericRTPSource@@8
??_R3MPEG4GenericBufferedPacket@@8
??_R3MPEG4GenericBufferedPacketFactory@@8
??_R3MPEG4GenericRTPSource@@8
??_R4MPEG4GenericBufferedPacket@@6B@
??_R4MPEG4GenericBufferedPacketFactory@@6B@
??_R4MPEG4GenericRTPSource@@6B@
?MIMEtype@MPEG4GenericRTPSource@@EEBAPEBDXZ
?createNew@MPEG4GenericRTPSource@@SAPEAV1@AEAVUsageEnvironment@@PEAVGroupsock@@EIPEBD2III@Z
?createNewPacket@MPEG4GenericBufferedPacketFactory@@EEAAPEAVBufferedPacket@@PEAVMultiFramedRTPSource@@@Z
?nextEnclosedFrameSize@MPEG4GenericBufferedPacket@@EEAAIAEAPEAEI@Z
?processSpecialHeader@MPEG4GenericRTPSource@@EEAA_NPEAVBufferedPacket@@AEAI@Z
?samplingFrequencyFromAudioSpecificConfig@@YAIPEBD@Z
??0MPEG4GenericRTPSink@@IEAA@AEAVUsageEnvironment@@PEAVGroupsock@@EIPEBD22I@Z
??1MPEG4GenericRTPSink@@MEAA@XZ
??_7MPEG4GenericRTPSink@@6B@
??_C@_02MBJIFMOJ@?$CC?6@
??_C@_05EMIBFIGM@POSIX@
??_C@_0DH@HIGEHMHM@MPEG4GenericRTPSink?5error?3?5NULL@
??_C@_0DM@JFCCCFNA@MPEG4GenericRTPSink?5error?3?5Unkn@
??_C@_0GO@BOLADEKN@a?$DNfmtp?3?$CFd?5streamtype?$DN?$CFd?$DLprofile@
??_GMPEG4GenericRTPSink@@MEAAPEAXI@Z
??_R0?AVMPEG4GenericRTPSink@@@8
??_R1A@?0A@EA@MPEG4GenericRTPSink@@8
??_R2MPEG4GenericRTPSink@@8
??_R3MPEG4GenericRTPSink@@8
??_R4MPEG4GenericRTPSink@@6B@
?auxSDPLine@MPEG4GenericRTPSink@@EEAAPEBDXZ
?createNew@MPEG4GenericRTPSink@@SAPEAV1@AEAVUsageEnvironment@@PEAVGroupsock@@EIPEBD22I@Z
?doSpecialFrameHandling@MPEG4GenericRTPSink@@EEAAXIPEAEIUtimeval@@I@Z
?frameCanAppearAfterPacketStart@MPEG4GenericRTPSink@@EEBA_NPEBEI@Z
?sdpMediaType@MPEG4GenericRTPSink@@EEBAPEBDXZ
?specialHeaderSize@MPEG4GenericRTPSink@@EEBAIXZ
??0MPEG4ESVideoRTPSource@@AEAA@AEAVUsageEnvironment@@PEAVGroupsock@@EI@Z
??1MPEG4ESVideoRTPSource@@MEAA@XZ
??_7MPEG4ESVideoRTPSource@@6B@
??_C@_0O@MOJGKGPL@video?1MP4V?9ES@
??_GMPEG4ESVideoRTPSource@@MEAAPEAXI@Z
??_R0?AVMPEG4ESVideoRTPSource@@@8
??_R1A@?0A@EA@MPEG4ESVideoRTPSource@@8
??_R2MPEG4ESVideoRTPSource@@8
??_R3MPEG4ESVideoRTPSource@@8
??_R4MPEG4ESVideoRTPSource@@6B@
?MIMEtype@MPEG4ESVideoRTPSource@@EEBAPEBDXZ
?createNew@MPEG4ESVideoRTPSource@@SAPEAV1@AEAVUsageEnvironment@@PEAVGroupsock@@EI@Z
?processSpecialHeader@MPEG4ESVideoRTPSource@@EEAA_NPEAVBufferedPacket@@AEAI@Z
??0MPEG4ESVideoRTPSink@@IEAA@AEAVUsageEnvironment@@PEAVGroupsock@@EIEPEBD@Z
??1MPEG4ESVideoRTPSink@@MEAA@XZ
??_7MPEG4ESVideoRTPSink@@6B@
??_C@_02PCIJFNDE@?$AN?6@
??_C@_04JFFKLGJF@?$CF02X@
??_C@_0CG@DLGFLDBD@a?$DNfmtp?3?$CFd?5profile?9level?9id?$DN?$CFd?$DLc@
??_GMPEG4ESVideoRTPSink@@MEAAPEAXI@Z
??_R0?AVMPEG4ESVideoRTPSink@@@8
??_R1A@?0A@EA@MPEG4ESVideoRTPSink@@8
??_R2MPEG4ESVideoRTPSink@@8
??_R3MPEG4ESVideoRTPSink@@8
??_R4MPEG4ESVideoRTPSink@@6B@
?allowFragmentationAfterStart@MPEG4ESVideoRTPSink@@MEBA_NXZ
?auxSDPLine@MPEG4ESVideoRTPSink@@MEAAPEBDXZ
?createNew@MPEG4ESVideoRTPSink@@SAPEAV1@AEAVUsageEnvironment@@PEAVGroupsock@@EI@Z
?createNew@MPEG4ESVideoRTPSink@@SAPEAV1@AEAVUsageEnvironment@@PEAVGroupsock@@EIEPEBD@Z
?doSpecialFrameHandling@MPEG4ESVideoRTPSink@@MEAAXIPEAEIUtimeval@@I@Z
?frameCanAppearAfterPacketStart@MPEG4ESVideoRTPSink@@MEBA_NPEBEI@Z
?pictureEndMarker@MPEGVideoStreamFramer@@QEAAAEA_NXZ
?profile_and_level_indication@MPEG4VideoStreamFramer@@QEBAEXZ
?sourceIsCompatibleWithUs@MPEG4ESVideoRTPSink@@MEAA_NAEAVMediaSource@@@Z
??0MPEG2TransportUDPServerMediaSubsession@@IEAA@AEAVUsageEnvironment@@PEBDAEBVPort@@_N@Z
??1MPEG2TransportUDPServerMediaSubsession@@MEAA@XZ
??_7MPEG2TransportUDPServerMediaSubsession@@6B@
??_C@_0L@CPMLDGHF@video?1MP2T@
??_GMPEG2TransportUDPServerMediaSubsession@@MEAAPEAXI@Z
??_R0?AVMPEG2TransportUDPServerMediaSubsession@@@8
??_R1A@?0A@EA@MPEG2TransportUDPServerMediaSubsession@@8
??_R2MPEG2TransportUDPServerMediaSubsession@@8
??_R3MPEG2TransportUDPServerMediaSubsession@@8
??_R4MPEG2TransportUDPServerMediaSubsession@@6B@
?createNew@MPEG2TransportUDPServerMediaSubsession@@SAPEAV1@AEAVUsageEnvironment@@PEBDAEBVPort@@_N@Z
?createNewRTPSink@MPEG2TransportUDPServerMediaSubsession@@MEAAPEAVRTPSink@@PEAVGroupsock@@EPEAVFramedSource@@@Z
?createNewStreamSource@MPEG2TransportUDPServerMediaSubsession@@MEAAPEAVFramedSource@@IAEAI@Z
??0MPEG2TransportStreamTrickModeFilter@@IEAA@AEAVUsageEnvironment@@PEAVFramedSource@@PEAVMPEG2TransportStreamIndexFile@@H@Z
??1MPEG2TransportStreamTrickModeFilter@@MEAA@XZ
??_7MPEG2TransportStreamTrickModeFilter@@6B@
??_GMPEG2TransportStreamTrickModeFilter@@MEAAPEAXI@Z
??_R0?AVMPEG2TransportStreamTrickModeFilter@@@8
??_R1A@?0A@EA@MPEG2TransportStreamTrickModeFilter@@8
??_R2MPEG2TransportStreamTrickModeFilter@@8
??_R3MPEG2TransportStreamTrickModeFilter@@8
??_R4MPEG2TransportStreamTrickModeFilter@@6B@
?afterGettingFrame1@MPEG2TransportStreamTrickModeFilter@@AEAAXI@Z
?afterGettingFrame@MPEG2TransportStreamTrickModeFilter@@CAXPEAXIIUtimeval@@I@Z
?attemptDeliveryToClient@MPEG2TransportStreamTrickModeFilter@@AEAAXXZ
?createNew@MPEG2TransportStreamTrickModeFilter@@SAPEAV1@AEAVUsageEnvironment@@PEAVFramedSource@@PEAVMPEG2TransportStreamIndexFile@@H@Z
?doGetNextFrame@MPEG2TransportStreamTrickModeFilter@@EEAAXXZ
?doStopGettingFrames@MPEG2TransportStreamTrickModeFilter@@EEAAXXZ
?onSourceClosure1@MPEG2TransportStreamTrickModeFilter@@AEAAXXZ
?onSourceClosure@MPEG2TransportStreamTrickModeFilter@@CAXPEAX@Z
?readTransportPacket@MPEG2TransportStreamTrickModeFilter@@AEAAXK@Z
?seekTo@MPEG2TransportStreamTrickModeFilter@@QEAA_NKK@Z
?seekToTransportPacket@MPEG2TransportStreamTrickModeFilter@@AEAAXK@Z
?stopReading@MPEG2TransportStreamIndexFile@@QEAAXXZ
??0MPEG2TransportStreamMultiplexor@@IEAA@AEAVUsageEnvironment@@@Z
??1MPEG2TransportStreamMultiplexor@@MEAA@XZ
??_7MPEG2TransportStreamMultiplexor@@6B@
??_GMPEG2TransportStreamMultiplexor@@MEAAPEAXI@Z
??_R0?AVMPEG2TransportStreamMultiplexor@@@8
??_R1A@?0A@EA@MPEG2TransportStreamMultiplexor@@8
??_R2MPEG2TransportStreamMultiplexor@@8
??_R3MPEG2TransportStreamMultiplexor@@8
??_R4MPEG2TransportStreamMultiplexor@@6B@
?calculateCRC@@YAIPEBEII@Z
?deliverDataToClient@MPEG2TransportStreamMultiplexor@@AEAAXEPEAEIAEAI@Z
?deliverPATPacket@MPEG2TransportStreamMultiplexor@@AEAAXXZ
?deliverPMTPacket@MPEG2TransportStreamMultiplexor@@AEAAX_N@Z
?doGetNextFrame@MPEG2TransportStreamMultiplexor@@EEAAXXZ
?handleNewBuffer@MPEG2TransportStreamMultiplexor@@IEAAXPEAEIHVSCR@MPEG1or2Demux@@F@Z
?setProgramStreamMap@MPEG2TransportStreamMultiplexor@@AEAAXI@Z
??0MPEG2TransportStreamIndexFile@@AEAA@AEAVUsageEnvironment@@PEBD@Z
??1MPEG2TransportStreamIndexFile@@UEAA@XZ
??_7MPEG2TransportStreamIndexFile@@6B@
??_C@_03LBJAKPBM@?$CC?5?$CI@
??_C@_0CC@BFMGDJLC@Warning?3?5Size?5of?5the?5index?5file@
??_C@_0CP@INLCPJKO@?$CJ?5is?5not?5a?5multiple?5of?5the?5inde@
??_GMPEG2TransportStreamIndexFile@@UEAAPEAXI@Z
??_R0?AVMPEG2TransportStreamIndexFile@@@8
??_R1A@?0A@EA@MPEG2TransportStreamIndexFile@@8
??_R2MPEG2TransportStreamIndexFile@@8
??_R3MPEG2TransportStreamIndexFile@@8
??_R4MPEG2TransportStreamIndexFile@@6B@
?closeFid@MPEG2TransportStreamIndexFile@@AEAAXXZ
?createNew@MPEG2TransportStreamIndexFile@@SAPEAV1@AEAVUsageEnvironment@@PEBD@Z
?getPlayingDuration@MPEG2TransportStreamIndexFile@@QEAAMXZ
?lookupPCRFromTSPacketNum@MPEG2TransportStreamIndexFile@@QEAAXAEAK_NAEAM0@Z
?lookupTSPacketNumFromNPT@MPEG2TransportStreamIndexFile@@QEAAXAEAMAEAK1@Z
?mpegVersion@MPEG2TransportStreamIndexFile@@QEAAHXZ
?offsetFromBuf@MPEG2TransportStreamIndexFile@@AEAAEXZ
?openFid@MPEG2TransportStreamIndexFile@@AEAA_NXZ
?pcrFromBuf@MPEG2TransportStreamIndexFile@@AEAAMXZ
?readIndexRecord@MPEG2TransportStreamIndexFile@@AEAA_NK@Z
?readIndexRecordValues@MPEG2TransportStreamIndexFile@@QEAA_NKAEAKAEAE1AEAM1@Z
?readOneIndexRecord@MPEG2TransportStreamIndexFile@@AEAA_NK@Z
?recordTypeFromBuf@MPEG2TransportStreamIndexFile@@AEAAEXZ
?rewindToCleanPoint@MPEG2TransportStreamIndexFile@@AEAA_NAEAK@Z
?seekToIndexRecord@MPEG2TransportStreamIndexFile@@AEAA_NK@Z
?setMPEGVersionFromRecordType@MPEG2TransportStreamIndexFile@@AEAAXE@Z
?sizeFromBuf@MPEG2TransportStreamIndexFile@@AEAAEXZ
?tsPacketNumFromBuf@MPEG2TransportStreamIndexFile@@AEAAKXZ
??0MPEG2TransportStreamFromPESSource@@IEAA@AEAVUsageEnvironment@@PEAVMPEG1or2DemuxedElementaryStream@@@Z
??1MPEG2TransportStreamFromPESSource@@MEAA@XZ
??_7MPEG2TransportStreamFromPESSource@@6B@
??_GMPEG2TransportStreamFromPESSource@@MEAAPEAXI@Z
??_R0?AVMPEG2TransportStreamFromPESSource@@@8
??_R1A@?0A@EA@MPEG2TransportStreamFromPESSource@@8
??_R2MPEG2TransportStreamFromPESSource@@8
??_R3MPEG2TransportStreamFromPESSource@@8
??_R4MPEG2TransportStreamFromPESSource@@6B@
?afterGettingFrame1@MPEG2TransportStreamFromPESSource@@AEAAXIIUtimeval@@I@Z
?afterGettingFrame@MPEG2TransportStreamFromPESSource@@CAXPEAXIIUtimeval@@I@Z
?awaitNewBuffer@MPEG2TransportStreamFromPESSource@@EEAAXPEAE@Z
?createNew@MPEG2TransportStreamFromPESSource@@SAPEAV1@AEAVUsageEnvironment@@PEAVMPEG1or2DemuxedElementaryStream@@@Z
?doStopGettingFrames@MPEG2TransportStreamFromPESSource@@EEAAXXZ
?lastSeenSCR@MPEG1or2DemuxedElementaryStream@@QEBA?AVSCR@MPEG1or2Demux@@XZ
?mpegVersion@MPEG1or2DemuxedElementaryStream@@QEBAEXZ
??0InputESSourceRecord@@QEAA@AEAVMPEG2TransportStreamFromESSource@@PEAVFramedSource@@EHPEAV0@F@Z
??0MPEG2TransportStreamFromESSource@@IEAA@AEAVUsageEnvironment@@@Z
??1InputESSourceRecord@@UEAA@XZ
??1MPEG2TransportStreamFromESSource@@MEAA@XZ
??_7InputESSourceRecord@@6B@
??_7MPEG2TransportStreamFromESSource@@6B@
??_C@_08LLCCHAJ@?5bytes?$CB?6@
??_C@_0JA@LINEMHFG@MPEG2TransportStreamFromESSourc@
??_GInputESSourceRecord@@UEAAPEAXI@Z
??_GMPEG2TransportStreamFromESSource@@MEAAPEAXI@Z
??_R0?AVInputESSourceRecord@@@8
??_R0?AVMPEG2TransportStreamFromESSource@@@8
??_R1A@?0A@EA@InputESSourceRecord@@8
??_R1A@?0A@EA@MPEG2TransportStreamFromESSource@@8
??_R2InputESSourceRecord@@8
??_R2MPEG2TransportStreamFromESSource@@8
??_R3InputESSourceRecord@@8
??_R3MPEG2TransportStreamFromESSource@@8
??_R4InputESSourceRecord@@6B@
??_R4MPEG2TransportStreamFromESSource@@6B@
?addNewAudioSource@MPEG2TransportStreamFromESSource@@QEAAXPEAVFramedSource@@HF@Z
?addNewInputSource@MPEG2TransportStreamFromESSource@@IEAAXPEAVFramedSource@@EHF@Z
?addNewVideoSource@MPEG2TransportStreamFromESSource@@QEAAXPEAVFramedSource@@HF@Z
?afterGettingFrame1@InputESSourceRecord@@AEAAXIIUtimeval@@@Z
?afterGettingFrame@InputESSourceRecord@@CAXPEAXIIUtimeval@@I@Z
?askForNewData@InputESSourceRecord@@QEAAXXZ
?awaitNewBuffer@MPEG2TransportStreamFromESSource@@EEAAXPEAE@Z
?buffer@InputESSourceRecord@@QEBAPEAEXZ
?createNew@MPEG2TransportStreamFromESSource@@SAPEAV1@AEAVUsageEnvironment@@@Z
?deliverBufferToClient@InputESSourceRecord@@QEAA_NXZ
?doStopGettingFrames@MPEG2TransportStreamFromESSource@@EEAAXXZ
?inputSource@InputESSourceRecord@@QEBAPEAVFramedSource@@XZ
?next@InputESSourceRecord@@QEBAPEAV1@XZ
?reset@InputESSourceRecord@@QEAAXXZ
??0MPEG2TransportStreamFramer@@IEAA@AEAVUsageEnvironment@@PEAVFramedSource@@@Z
??0PIDStatus@@QEAA@NN@Z
??1MPEG2TransportStreamFramer@@MEAA@XZ
??_7MPEG2TransportStreamFramer@@6B@
??_C@_0BE@LFFGPJAG@Missing?5sync?5byte?$CB?6@
??_C@_0CH@MJDEJLOI@No?5Transport?5Stream?5sync?5byte?5i@
??_GMPEG2TransportStreamFramer@@MEAAPEAXI@Z
??_R0?AVMPEG2TransportStreamFramer@@@8
??_R1A@?0A@EA@MPEG2TransportStreamFramer@@8
??_R2MPEG2TransportStreamFramer@@8
??_R3MPEG2TransportStreamFramer@@8
??_R4MPEG2TransportStreamFramer@@6B@
?afterGettingFrame1@MPEG2TransportStreamFramer@@AEAAXIUtimeval@@@Z
?afterGettingFrame@MPEG2TransportStreamFramer@@CAXPEAXIIUtimeval@@I@Z
?clearPIDStatusTable@MPEG2TransportStreamFramer@@QEAAXXZ
?createNew@MPEG2TransportStreamFramer@@SAPEAV1@AEAVUsageEnvironment@@PEAVFramedSource@@@Z
?doGetNextFrame@MPEG2TransportStreamFramer@@EEAAXXZ
?doStopGettingFrames@MPEG2TransportStreamFramer@@EEAAXXZ
?setNumTSPacketsToStream@MPEG2TransportStreamFramer@@QEAAXK@Z
?setPCRLimit@MPEG2TransportStreamFramer@@QEAAXM@Z
?updateTSPacketDurationEstimate@MPEG2TransportStreamFramer@@AEAA_NPEAEN@Z
??0ClientTrickPlayState@@QEAA@PEAVMPEG2TransportStreamIndexFile@@@Z
??0MPEG2TransportFileServerMediaSubsession@@IEAA@AEAVUsageEnvironment@@PEBDPEAVMPEG2TransportStreamIndexFile@@_N@Z
??1MPEG2TransportFileServerMediaSubsession@@MEAA@XZ
??_7MPEG2TransportFileServerMediaSubsession@@6B@
??_C@_0HH@KLMEAHFD@MPEG2TransportFileServerMediaSu@
??_GMPEG2TransportFileServerMediaSubsession@@MEAAPEAXI@Z
??_R0?AVMPEG2TransportFileServerMediaSubsession@@@8
??_R1A@?0A@EA@MPEG2TransportFileServerMediaSubsession@@8
??_R2MPEG2TransportFileServerMediaSubsession@@8
??_R3MPEG2TransportFileServerMediaSubsession@@8
??_R4MPEG2TransportFileServerMediaSubsession@@6B@
?areChangingScale@ClientTrickPlayState@@QEBA_NXZ
?changeInputSource@MPEG2TransportStreamFramer@@QEAAXPEAVFramedSource@@@Z
?createNew@MPEG2TransportFileServerMediaSubsession@@SAPEAV1@AEAVUsageEnvironment@@PEBD1_N@Z
?createNewRTPSink@MPEG2TransportFileServerMediaSubsession@@EEAAPEAVRTPSink@@PEAVGroupsock@@EPEAVFramedSource@@@Z
?createNewStreamSource@MPEG2TransportFileServerMediaSubsession@@EEAAPEAVFramedSource@@IAEAI@Z
?deleteStream@MPEG2TransportFileServerMediaSubsession@@EEAAXIAEAPEAX@Z
?duration@MPEG2TransportFileServerMediaSubsession@@EEBAMXZ
?forgetInputSource@MPEG2TransportStreamTrickModeFilter@@QEAAXXZ
?lookupClient@MPEG2TransportFileServerMediaSubsession@@AEAAPEAVClientTrickPlayState@@I@Z
?newClientTrickPlayState@MPEG2TransportFileServerMediaSubsession@@MEAAPEAVClientTrickPlayState@@XZ
?nextIndexRecordNum@MPEG2TransportStreamTrickModeFilter@@QEBAKXZ
?pauseStream@MPEG2TransportFileServerMediaSubsession@@EEAAXIPEAX@Z
?reseekOriginalTransportStreamSource@ClientTrickPlayState@@IEAAXXZ
?seekStream@MPEG2TransportFileServerMediaSubsession@@EEAAXIPEAXAEANNAEA_K@Z
?setNextScale@ClientTrickPlayState@@QEAAXM@Z
?setSource@ClientTrickPlayState@@QEAAXPEAVMPEG2TransportStreamFramer@@@Z
?setStreamScale@MPEG2TransportFileServerMediaSubsession@@EEAAXIPEAXM@Z
?startStream@MPEG2TransportFileServerMediaSubsession@@EEAAXIPEAXP6AX0@Z0AEAGAEAIP6AX0E@Z0@Z
?testScaleFactor@MPEG2TransportFileServerMediaSubsession@@EEAAXAEAM@Z
?tsPacketCount@MPEG2TransportStreamFramer@@QEBA_KXZ
?updateStateFromNPT@ClientTrickPlayState@@QEAAKNN@Z
?updateStateOnPlayChange@ClientTrickPlayState@@QEAAX_N@Z
?updateStateOnScaleChange@ClientTrickPlayState@@QEAAXXZ
?updateTSRecordNum@ClientTrickPlayState@@IEAAXXZ
??0IndexRecord@@QEAA@EEKM@Z
??0MPEG2IFrameIndexFromTransportStream@@IEAA@AEAVUsageEnvironment@@PEAVFramedSource@@@Z
??1IndexRecord@@UEAA@XZ
??1MPEG2IFrameIndexFromTransportStream@@MEAA@XZ
??_7IndexRecord@@6B@
??_7MPEG2IFrameIndexFromTransportStream@@6B@
??_C@_04MKEOLIJC@?5to?5@
??_C@_0BE@KGNCOHJA@?6Warning?3?5At?5about?5@
??_C@_0BF@IOIJPHDB@Bad?5TS?5sync?5byte?3?50x@
??_C@_0CA@GBHMGJHD@Bad?5?$CCadaptation_field_length?$CC?3?5@
??_C@_0CF@KPKJEKDO@Unexpectedly?5large?5PES?5header?5s@
??_C@_0CG@LJOOAODP@?$CB?$CB?$CB?$CB?$CBInternal?5consistency?5error@
??_C@_0DD@BJGCECLN@ERROR?3?5parse?5buffer?5full?$DL?5incre@
??_C@_0DM@OADAMGDA@?5seconds?5into?5the?5file?0?5the?5PCR@
??_GIndexRecord@@UEAAPEAXI@Z
??_GMPEG2IFrameIndexFromTransportStream@@MEAAPEAXI@Z
??_R0?AVIndexRecord@@@8
??_R0?AVMPEG2IFrameIndexFromTransportStream@@@8
??_R1A@?0A@EA@IndexRecord@@8
??_R1A@?0A@EA@MPEG2IFrameIndexFromTransportStream@@8
??_R2IndexRecord@@8
??_R2MPEG2IFrameIndexFromTransportStream@@8
??_R3IndexRecord@@8
??_R3MPEG2IFrameIndexFromTransportStream@@8
??_R4IndexRecord@@6B@
??_R4MPEG2IFrameIndexFromTransportStream@@6B@
?addAfter@IndexRecord@@QEAAXPEAV1@@Z
?addToTail@MPEG2IFrameIndexFromTransportStream@@AEAAXPEAVIndexRecord@@@Z
?afterGettingFrame1@MPEG2IFrameIndexFromTransportStream@@AEAAXIIUtimeval@@I@Z
?afterGettingFrame@MPEG2IFrameIndexFromTransportStream@@CAXPEAXIIUtimeval@@I@Z
?analyzePAT@MPEG2IFrameIndexFromTransportStream@@AEAAXPEAEI@Z
?analyzePMT@MPEG2IFrameIndexFromTransportStream@@AEAAXPEAEI@Z
?compactParseBuffer@MPEG2IFrameIndexFromTransportStream@@AEAAXXZ
?createNew@MPEG2IFrameIndexFromTransportStream@@SAPEAV1@AEAVUsageEnvironment@@PEAVFramedSource@@@Z
?deliverIndexRecord@MPEG2IFrameIndexFromTransportStream@@AEAA_NXZ
?doGetNextFrame@MPEG2IFrameIndexFromTransportStream@@EEAAXXZ
?handleInputClosure1@MPEG2IFrameIndexFromTransportStream@@AEAAXXZ
?handleInputClosure@MPEG2IFrameIndexFromTransportStream@@CAXPEAX@Z
?next@IndexRecord@@QEBAPEAV1@XZ
?parseFrame@MPEG2IFrameIndexFromTransportStream@@AEAA_NXZ
?parseToNextCode@MPEG2IFrameIndexFromTransportStream@@AEAA_NAEAE@Z
?pcr@IndexRecord@@QEBAMXZ
?recordType@IndexRecord@@QEAAAEAW4RecordType@@XZ
?setFirstFlag@IndexRecord@@QEAAXXZ
?size@IndexRecord@@QEAAAEAEXZ
?startOffset@IndexRecord@@QEBAEXZ
?transportPacketNumber@IndexRecord@@QEBAKXZ
?unlink@IndexRecord@@QEAAXXZ
??0MPEG1or2VideoStreamFramer@@IEAA@AEAVUsageEnvironment@@PEAVFramedSource@@_NN2@Z
??0MPEG1or2VideoStreamParser@@QEAA@PEAVMPEG1or2VideoStreamFramer@@PEAVFramedSource@@_NN@Z
??1MPEG1or2VideoStreamFramer@@MEAA@XZ
??1MPEG1or2VideoStreamParser@@UEAA@XZ
??_7MPEG1or2VideoStreamFramer@@6B@
??_7MPEG1or2VideoStreamParser@@6B@
??_C@_0DO@MIDFJCHM@MPEG1or2VideoStreamParser?3?3pars@
??_GMPEG1or2VideoStreamFramer@@MEAAPEAXI@Z
??_GMPEG1or2VideoStreamParser@@UEAAPEAXI@Z
??_R0?AVMPEG1or2VideoStreamFramer@@@8
??_R0?AVMPEG1or2VideoStreamParser@@@8
??_R1A@?0A@EA@MPEG1or2VideoStreamFramer@@8
??_R1A@?0A@EA@MPEG1or2VideoStreamParser@@8
??_R2MPEG1or2VideoStreamFramer@@8
??_R2MPEG1or2VideoStreamParser@@8
??_R3MPEG1or2VideoStreamFramer@@8
??_R3MPEG1or2VideoStreamParser@@8
??_R4MPEG1or2VideoStreamFramer@@6B@
??_R4MPEG1or2VideoStreamParser@@6B@
?createNew@MPEG1or2VideoStreamFramer@@SAPEAV1@AEAVUsageEnvironment@@PEAVFramedSource@@_NN@Z
?flushInput@MPEG1or2VideoStreamParser@@EEAAXXZ
?getCurrentPTS@MPEG1or2VideoStreamFramer@@AEBANXZ
?isMPEG1or2VideoStreamFramer@MPEG1or2VideoStreamFramer@@EEBA_NXZ
?isSliceStartCode@@YA_NI@Z
?needToUseSavedVSH@MPEG1or2VideoStreamParser@@AEAA_NXZ
?parse@MPEG1or2VideoStreamParser@@EEAAIXZ
?parseGOPHeader@MPEG1or2VideoStreamParser@@AEAAI_N@Z
?parsePictureHeader@MPEG1or2VideoStreamParser@@AEAAIXZ
?parseSlice@MPEG1or2VideoStreamParser@@AEAAIXZ
?parseVideoSequenceHeader@MPEG1or2VideoStreamParser@@AEAAI_N@Z
?reset@MPEG1or2VideoStreamParser@@AEAAXXZ
?saveCurrentVSH@MPEG1or2VideoStreamParser@@AEAAXXZ
?setParseState@MPEG1or2VideoStreamParser@@AEAAXW4MPEGParseState@@@Z
?skipToNextCode@MPEGVideoStreamParser@@IEAAXAEAI@Z
?useSavedVSH@MPEG1or2VideoStreamParser@@AEAAIXZ
?usingSource@MPEG1or2VideoStreamParser@@AEAAPEAVMPEG1or2VideoStreamFramer@@XZ
??0MPEG1or2VideoStreamDiscreteFramer@@IEAA@AEAVUsageEnvironment@@PEAVFramedSource@@_NN2@Z
??1MPEG1or2VideoStreamDiscreteFramer@@MEAA@XZ
??_7MPEG1or2VideoStreamDiscreteFramer@@6B@
??_GMPEG1or2VideoStreamDiscreteFramer@@MEAAPEAXI@Z
??_R0?AVMPEG1or2VideoStreamDiscreteFramer@@@8
??_R1A@?0A@EA@MPEG1or2VideoStreamDiscreteFramer@@8
??_R2MPEG1or2VideoStreamDiscreteFramer@@8
??_R3MPEG1or2VideoStreamDiscreteFramer@@8
??_R4MPEG1or2VideoStreamDiscreteFramer@@6B@
?afterGettingFrame1@MPEG1or2VideoStreamDiscreteFramer@@IEAAXIIUtimeval@@I@Z
?afterGettingFrame@MPEG1or2VideoStreamDiscreteFramer@@KAXPEAXIIUtimeval@@I@Z
?createNew@MPEG1or2VideoStreamDiscreteFramer@@SAPEAV1@AEAVUsageEnvironment@@PEAVFramedSource@@_NN2@Z
?doGetNextFrame@MPEG1or2VideoStreamDiscreteFramer@@MEAAXXZ
??0MPEG1or2VideoRTPSource@@AEAA@AEAVUsageEnvironment@@PEAVGroupsock@@EI@Z
??1MPEG1or2VideoRTPSource@@MEAA@XZ
??_7MPEG1or2VideoRTPSource@@6B@
??_C@_0L@BPJKAJDC@video?1MPEG@
??_GMPEG1or2VideoRTPSource@@MEAAPEAXI@Z
??_R0?AVMPEG1or2VideoRTPSource@@@8
??_R1A@?0A@EA@MPEG1or2VideoRTPSource@@8
??_R2MPEG1or2VideoRTPSource@@8
??_R3MPEG1or2VideoRTPSource@@8
??_R4MPEG1or2VideoRTPSource@@6B@
?MIMEtype@MPEG1or2VideoRTPSource@@EEBAPEBDXZ
?createNew@MPEG1or2VideoRTPSource@@SAPEAV1@AEAVUsageEnvironment@@PEAVGroupsock@@EI@Z
?packetIsUsableInJitterCalculation@MPEG1or2VideoRTPSource@@EEAA_NPEAEI@Z
?processSpecialHeader@MPEG1or2VideoRTPSource@@EEAA_NPEAVBufferedPacket@@AEAI@Z
??0MPEG1or2VideoRTPSink@@IEAA@AEAVUsageEnvironment@@PEAVGroupsock@@@Z
??1MPEG1or2VideoRTPSink@@MEAA@XZ
??_7MPEG1or2VideoRTPSink@@6B@
??_C@_0BM@GGOIPIAB@?0?5but?5we?8re?5not?5a?5fragment?6@
??_C@_0FB@EJIEIIIF@Warning?3?5MPEG1or2VideoRTPSink?3?3@
??_GMPEG1or2VideoRTPSink@@MEAAPEAXI@Z
??_R0?AVMPEG1or2VideoRTPSink@@@8
??_R1A@?0A@EA@MPEG1or2VideoRTPSink@@8
??_R2MPEG1or2VideoRTPSink@@8
??_R3MPEG1or2VideoRTPSink@@8
??_R4MPEG1or2VideoRTPSink@@6B@
?allowFragmentationAfterStart@MPEG1or2VideoRTPSink@@EEBA_NXZ
?createNew@MPEG1or2VideoRTPSink@@SAPEAV1@AEAVUsageEnvironment@@PEAVGroupsock@@@Z
?doSpecialFrameHandling@MPEG1or2VideoRTPSink@@EEAAXIPEAEIUtimeval@@I@Z
?frameCanAppearAfterPacketStart@MPEG1or2VideoRTPSink@@EEBA_NPEBEI@Z
?sourceIsCompatibleWithUs@MPEG1or2VideoRTPSink@@EEAA_NAEAVMediaSource@@@Z
?specialHeaderSize@MPEG1or2VideoRTPSink@@EEBAIXZ
??0MPEG1or2VideoFileServerMediaSubsession@@AEAA@AEAVUsageEnvironment@@PEBD_N2N@Z
??1MPEG1or2VideoFileServerMediaSubsession@@EEAA@XZ
??_7MPEG1or2VideoFileServerMediaSubsession@@6B@
??_GMPEG1or2VideoFileServerMediaSubsession@@EEAAPEAXI@Z
??_R0?AVMPEG1or2VideoFileServerMediaSubsession@@@8
??_R1A@?0A@EA@MPEG1or2VideoFileServerMediaSubsession@@8
??_R2MPEG1or2VideoFileServerMediaSubsession@@8
??_R3MPEG1or2VideoFileServerMediaSubsession@@8
??_R4MPEG1or2VideoFileServerMediaSubsession@@6B@
?createNew@MPEG1or2VideoFileServerMediaSubsession@@SAPEAV1@AEAVUsageEnvironment@@PEBD_N2N@Z
?createNewRTPSink@MPEG1or2VideoFileServerMediaSubsession@@EEAAPEAVRTPSink@@PEAVGroupsock@@EPEAVFramedSource@@@Z
?createNewStreamSource@MPEG1or2VideoFileServerMediaSubsession@@EEAAPEAVFramedSource@@IAEAI@Z
??0MFSD_DummySink@@QEAA@AEAVMPEG1or2Demux@@_N@Z
??0MPEG1or2FileServerDemux@@AEAA@AEAVUsageEnvironment@@PEBD_N@Z
??1MFSD_DummySink@@UEAA@XZ
??1MPEG1or2FileServerDemux@@EEAA@XZ
??_7MFSD_DummySink@@6B@
??_7MPEG1or2FileServerDemux@@6B@
??_GMFSD_DummySink@@UEAAPEAXI@Z
??_GMPEG1or2FileServerDemux@@EEAAPEAXI@Z
??_R0?AVMFSD_DummySink@@@8
??_R0?AVMPEG1or2FileServerDemux@@@8
??_R1A@?0A@EA@MFSD_DummySink@@8
??_R1A@?0A@EA@MPEG1or2FileServerDemux@@8
??_R2MFSD_DummySink@@8
??_R2MPEG1or2FileServerDemux@@8
??_R3MFSD_DummySink@@8
??_R3MPEG1or2FileServerDemux@@8
??_R4MFSD_DummySink@@6B@
??_R4MPEG1or2FileServerDemux@@6B@
?afterGettingFrame1@MFSD_DummySink@@AEAAXXZ
?afterGettingFrame@MFSD_DummySink@@CAXPEAXIIUtimeval@@I@Z
?continuePlaying@MFSD_DummySink@@EEAA_NXZ
?createNew@MPEG1or2FileServerDemux@@SAPEAV1@AEAVUsageEnvironment@@PEBD_N@Z
?lastSeenSCR@MPEG1or2Demux@@QEAAAEAVSCR@1@XZ
?newAC3AudioServerMediaSubsession@MPEG1or2FileServerDemux@@QEAAPEAVServerMediaSubsession@@XZ
?newAudioServerMediaSubsession@MPEG1or2FileServerDemux@@QEAAPEAVServerMediaSubsession@@XZ
?newElementaryStream@MPEG1or2FileServerDemux@@AEAAPEAVMPEG1or2DemuxedElementaryStream@@IE@Z
?newVideoServerMediaSubsession@MPEG1or2FileServerDemux@@QEAAPEAVServerMediaSubsession@@_NN@Z
??0MPEG1or2DemuxedServerMediaSubsession@@AEAA@AEAVMPEG1or2FileServerDemux@@E_N1N@Z
??1MPEG1or2DemuxedServerMediaSubsession@@EEAA@XZ
??_7MPEG1or2DemuxedServerMediaSubsession@@6B@
??_GMPEG1or2DemuxedServerMediaSubsession@@EEAAPEAXI@Z
??_R0?AVMPEG1or2DemuxedServerMediaSubsession@@@8
??_R1A@?0A@EA@MPEG1or2DemuxedServerMediaSubsession@@8
??_R2MPEG1or2DemuxedServerMediaSubsession@@8
??_R3MPEG1or2DemuxedServerMediaSubsession@@8
??_R4MPEG1or2DemuxedServerMediaSubsession@@6B@
?createNew@MPEG1or2DemuxedServerMediaSubsession@@SAPEAV1@AEAVMPEG1or2FileServerDemux@@E_N1N@Z
?createNewRTPSink@MPEG1or2DemuxedServerMediaSubsession@@EEAAPEAVRTPSink@@PEAVGroupsock@@EPEAVFramedSource@@@Z
?createNewStreamSource@MPEG1or2DemuxedServerMediaSubsession@@EEAAPEAVFramedSource@@IAEAI@Z
?duration@MPEG1or2DemuxedServerMediaSubsession@@EEBAMXZ
?fileDuration@MPEG1or2FileServerDemux@@QEBAMXZ
?fileSize@MPEG1or2FileServerDemux@@QEBAIXZ
?inputSource@MPEG1or2Demux@@QEBAPEAVFramedSource@@XZ
?seekStreamSource@MPEG1or2DemuxedServerMediaSubsession@@EEAAXPEAVFramedSource@@AEANNAEA_K@Z
?sourceDemux@MPEG1or2DemuxedElementaryStream@@QEBAAEAVMPEG1or2Demux@@XZ
??0MPEG1or2DemuxedElementaryStream@@AEAA@AEAVUsageEnvironment@@EAEAVMPEG1or2Demux@@@Z
??1MPEG1or2DemuxedElementaryStream@@EEAA@XZ
??_7MPEG1or2DemuxedElementaryStream@@6B@
??_C@_0L@PCGKKMFD@audio?1MPEG@
??_GMPEG1or2DemuxedElementaryStream@@EEAAPEAXI@Z
??_R0?AVMPEG1or2DemuxedElementaryStream@@@8
??_R1A@?0A@EA@MPEG1or2DemuxedElementaryStream@@8
??_R2MPEG1or2DemuxedElementaryStream@@8
??_R3MPEG1or2DemuxedElementaryStream@@8
??_R4MPEG1or2DemuxedElementaryStream@@6B@
?MIMEtype@MPEG1or2DemuxedElementaryStream@@EEBAPEBDXZ
?afterGettingFrame1@MPEG1or2DemuxedElementaryStream@@AEAAXIIUtimeval@@I@Z
?afterGettingFrame@MPEG1or2DemuxedElementaryStream@@CAXPEAXIIUtimeval@@I@Z
?doGetNextFrame@MPEG1or2DemuxedElementaryStream@@EEAAXXZ
?doStopGettingFrames@MPEG1or2DemuxedElementaryStream@@EEAAXXZ
?maxFrameSize@MPEG1or2DemuxedElementaryStream@@EEBAIXZ
?mpegVersion@MPEG1or2Demux@@QEBAEXZ
??0MPEG1or2Demux@@AEAA@AEAVUsageEnvironment@@PEAVFramedSource@@_N@Z
??0MPEGProgramStreamParser@@QEAA@PEAVMPEG1or2Demux@@PEAVFramedSource@@@Z
??0SCR@MPEG1or2Demux@@QEAA@XZ
??0SavedData@OutputDescriptor@MPEG1or2Demux@@QEAA@PEAEI@Z
??1MPEG1or2Demux@@EEAA@XZ
??1MPEGProgramStreamParser@@UEAA@XZ
??1SavedData@OutputDescriptor@MPEG1or2Demux@@UEAA@XZ
??_7MPEG1or2Demux@@6B@
??_7MPEGProgramStreamParser@@6B@
??_7SavedData@OutputDescriptor@MPEG1or2Demux@@6B@
??_C@_03MGHMLHIL@?5?$DM?5@
??_C@_05FHHLNAHL@?5?$DM?56?6@
??_C@_0CF@GIMGOFOB@?$CJ?5exceeds?5max?5frame?5size?5asked?5@
??_C@_0DP@DOJPJINB@StreamParser?3?3parseSystemHeader@
??_C@_0EE@NAFGHJF@StreamParser?3?3parsePESPacket?$CI?$CJ?3@
??_C@_0EF@MJABHFHF@MPEGProgramStreamParser?3?3parseP@
??_C@_0EG@PKMOJNMK@StreamParser?3?3parsePack?$CI?$CJ?5saw?5s@
??_C@_0EP@MJOFCALP@MPEG1or2Demux?3?3registerReadInte@
??_GMPEG1or2Demux@@EEAAPEAXI@Z
??_GMPEGProgramStreamParser@@UEAAPEAXI@Z
??_GSavedData@OutputDescriptor@MPEG1or2Demux@@UEAAPEAXI@Z
??_R0?AVMPEG1or2Demux@@@8
??_R0?AVMPEGProgramStreamParser@@@8
??_R0?AVSavedData@OutputDescriptor@MPEG1or2Demux@@@8
??_R1A@?0A@EA@MPEG1or2Demux@@8
??_R1A@?0A@EA@MPEGProgramStreamParser@@8
??_R1A@?0A@EA@SavedData@OutputDescriptor@MPEG1or2Demux@@8
??_R2MPEG1or2Demux@@8
??_R2MPEGProgramStreamParser@@8
??_R2SavedData@OutputDescriptor@MPEG1or2Demux@@8
??_R3MPEG1or2Demux@@8
??_R3MPEGProgramStreamParser@@8
??_R3SavedData@OutputDescriptor@MPEG1or2Demux@@8
??_R4MPEG1or2Demux@@6B@
??_R4MPEGProgramStreamParser@@6B@
??_R4SavedData@OutputDescriptor@MPEG1or2Demux@@6B@
?continueReadProcessing@MPEG1or2Demux@@AEAAXXZ
?continueReadProcessing@MPEG1or2Demux@@CAXPEAXPEAEIUtimeval@@@Z
?createNew@MPEG1or2Demux@@SAPEAV1@AEAVUsageEnvironment@@PEAVFramedSource@@_N@Z
?curOffset@StreamParser@@IEBAIXZ
?flushInput@MPEG1or2Demux@@QEAAXXZ
?get2Bytes@StreamParser@@IEAAGXZ
?getNextFrame@MPEG1or2Demux@@QEAAXEPEAEIP6AXPEAXIIUtimeval@@I@Z1P6AX1@Z1@Z
?handleClosure@MPEG1or2Demux@@SAXPEAX@Z
?isSpecialStreamId@MPEGProgramStreamParser@@AEBA_NE@Z
?newAudioStream@MPEG1or2Demux@@QEAAPEAVMPEG1or2DemuxedElementaryStream@@XZ
?newElementaryStream@MPEG1or2Demux@@QEAAPEAVMPEG1or2DemuxedElementaryStream@@E@Z
?newRawPESStream@MPEG1or2Demux@@QEAAPEAVMPEG1or2DemuxedElementaryStream@@XZ
?newVideoStream@MPEG1or2Demux@@QEAAPEAVMPEG1or2DemuxedElementaryStream@@XZ
?noteElementaryStreamDeletion@MPEG1or2Demux@@AEAAXPEAVMPEG1or2DemuxedElementaryStream@@@Z
?parse@MPEGProgramStreamParser@@QEAAEXZ
?parsePESPacket@MPEGProgramStreamParser@@AEAAEXZ
?parsePackHeader@MPEGProgramStreamParser@@AEAAXXZ
?parseSystemHeader@MPEGProgramStreamParser@@AEAAXXZ
?registerReadInterest@MPEG1or2Demux@@AEAAXEPEAEIP6AXPEAXIIUtimeval@@I@Z1P6AX1@Z1@Z
?setParseState@MPEGProgramStreamParser@@AEAAXW4MPEGParseState@@@Z
?stopGettingFrames@MPEG1or2Demux@@QEAAXE@Z
?useSavedData@MPEG1or2Demux@@AEAA_NEPEAEIP6AXPEAXIIUtimeval@@I@Z1@Z
??0MPEG1or2AudioStreamFramer@@AEAA@AEAVUsageEnvironment@@PEAVFramedSource@@_N@Z
??0MPEG1or2AudioStreamParser@@QEAA@PEAVMPEG1or2AudioStreamFramer@@PEAVFramedSource@@@Z
??1MPEG1or2AudioStreamFramer@@EEAA@XZ
??1MPEG1or2AudioStreamParser@@UEAA@XZ
??_7MPEG1or2AudioStreamFramer@@6B@
??_7MPEG1or2AudioStreamParser@@6B@
??_GMPEG1or2AudioStreamFramer@@EEAAPEAXI@Z
??_GMPEG1or2AudioStreamParser@@UEAAPEAXI@Z
??_R0?AVMPEG1or2AudioStreamFramer@@@8
??_R0?AVMPEG1or2AudioStreamParser@@@8
??_R1A@?0A@EA@MPEG1or2AudioStreamFramer@@8
??_R1A@?0A@EA@MPEG1or2AudioStreamParser@@8
??_R2MPEG1or2AudioStreamFramer@@8
??_R2MPEG1or2AudioStreamParser@@8
??_R3MPEG1or2AudioStreamFramer@@8
??_R3MPEG1or2AudioStreamParser@@8
??_R4MPEG1or2AudioStreamFramer@@6B@
??_R4MPEG1or2AudioStreamParser@@6B@
?continueReadProcessing@MPEG1or2AudioStreamFramer@@AEAAXXZ
?continueReadProcessing@MPEG1or2AudioStreamFramer@@CAXPEAXPEAEIUtimeval@@@Z
?createNew@MPEG1or2AudioStreamFramer@@SAPEAV1@AEAVUsageEnvironment@@PEAVFramedSource@@_N@Z
?currentFrame@MPEG1or2AudioStreamParser@@QEBAAEBVMP3FrameParams@@XZ
?currentFramePlayTime@MPEG1or2AudioStreamFramer@@AEBA?AUtimeval@@XZ
?doGetNextFrame@MPEG1or2AudioStreamFramer@@EEAAXXZ
?flushInput@MPEG1or2AudioStreamFramer@@QEAAXXZ
?parse@MPEG1or2AudioStreamParser@@QEAAIAEAI@Z
?registerReadInterest@MPEG1or2AudioStreamParser@@QEAAXPEAEI@Z
?reset@MPEG1or2AudioStreamFramer@@AEAAXXZ
?resetPresentationTime@MPEG1or2AudioStreamFramer@@AEAAXUtimeval@@@Z
??0MPEG1or2AudioRTPSource@@AEAA@AEAVUsageEnvironment@@PEAVGroupsock@@EI@Z
??1MPEG1or2AudioRTPSource@@MEAA@XZ
??_7MPEG1or2AudioRTPSource@@6B@
??_GMPEG1or2AudioRTPSource@@MEAAPEAXI@Z
??_R0?AVMPEG1or2AudioRTPSource@@@8
??_R1A@?0A@EA@MPEG1or2AudioRTPSource@@8
??_R2MPEG1or2AudioRTPSource@@8
??_R3MPEG1or2AudioRTPSource@@8
??_R4MPEG1or2AudioRTPSource@@6B@
?MIMEtype@MPEG1or2AudioRTPSource@@EEBAPEBDXZ
?createNew@MPEG1or2AudioRTPSource@@SAPEAV1@AEAVUsageEnvironment@@PEAVGroupsock@@EI@Z
?processSpecialHeader@MPEG1or2AudioRTPSource@@EEAA_NPEAVBufferedPacket@@AEAI@Z
??0MPEG1or2AudioRTPSink@@IEAA@AEAVUsageEnvironment@@PEAVGroupsock@@@Z
??1MPEG1or2AudioRTPSink@@MEAA@XZ
??_7MPEG1or2AudioRTPSink@@6B@
??_GMPEG1or2AudioRTPSink@@MEAAPEAXI@Z
??_R0?AVMPEG1or2AudioRTPSink@@@8
??_R1A@?0A@EA@MPEG1or2AudioRTPSink@@8
??_R2MPEG1or2AudioRTPSink@@8
??_R3MPEG1or2AudioRTPSink@@8
??_R4MPEG1or2AudioRTPSink@@6B@
?createNew@MPEG1or2AudioRTPSink@@SAPEAV1@AEAVUsageEnvironment@@PEAVGroupsock@@@Z
?doSpecialFrameHandling@MPEG1or2AudioRTPSink@@EEAAXIPEAEIUtimeval@@I@Z
?isFirstPacket@MultiFramedRTPSink@@IEBA_NXZ
?specialHeaderSize@MPEG1or2AudioRTPSink@@EEBAIXZ
??0MP3Transcoder@@IEAA@AEAVUsageEnvironment@@PEAVMP3ADUTranscoder@@@Z
??1MP3Transcoder@@MEAA@XZ
??_7MP3Transcoder@@6B@
??_GMP3Transcoder@@MEAAPEAXI@Z
??_R0?AVMP3FromADUSource@@@8
??_R0?AVMP3Transcoder@@@8
??_R1A@?0A@EA@MP3FromADUSource@@8
??_R1A@?0A@EA@MP3Transcoder@@8
??_R2MP3FromADUSource@@8
??_R2MP3Transcoder@@8
??_R3MP3FromADUSource@@8
??_R3MP3Transcoder@@8
??_R4MP3Transcoder@@6B@
?createNew@MP3Transcoder@@SAPEAV1@AEAVUsageEnvironment@@IPEAVFramedSource@@@Z
??0MP3StreamState@@QEAA@AEAVUsageEnvironment@@@Z
??1MP3StreamState@@UEAA@XZ
??_7MP3StreamState@@6B@
??_C@_0FO@MGAKNEBA@bandwidth?5?$CFd?5MPEGnumber?5?$CFd?5MPEG@
??_GMP3StreamState@@UEAAPEAXI@Z
??_R0?AVMP3StreamState@@@8
??_R1A@?0A@EA@MP3StreamState@@8
??_R2MP3StreamState@@8
??_R3MP3StreamState@@8
??_R4MP3StreamState@@6B@
?assignStream@MP3StreamState@@QEAAXPEAU_iobuf@@I@Z
?checkForXingHeader@MP3StreamState@@QEAAXXZ
?currentFramePlayTime@MP3StreamState@@AEBA?AUtimeval@@XZ
?filePlayTime@MP3StreamState@@QEBAMXZ
?findNextFrame@MP3StreamState@@AEAA_NXZ
?findNextHeader@MP3StreamState@@QEAAIAEAUtimeval@@@Z
?fr@MP3StreamState@@AEAAAEAVMP3FrameParams@@XZ
?fr@MP3StreamState@@AEBAAEBVMP3FrameParams@@XZ
?getAttributes@MP3StreamState@@QEBAXPEADI@Z
?getByteNumberFromPositionFraction@MP3StreamState@@QEAAIM@Z
?readFrame@MP3StreamState@@QEAA_NPEAEIAEAI1@Z
?readFromStream@MP3StreamState@@IEAAIPEAEI@Z
?seekWithinFile@MP3StreamState@@QEAAXI@Z
?setBytePointer@MP3FrameParams@@QEAAXPEBEI@Z
?huffdec@@3PAEA
??0MP3HuffmanEncodingInfo@@QEAA@_N@Z
??1MP3HuffmanEncodingInfo@@QEAA@XZ
??_C@_02NJNOFBBI@?$CFx@
??_C@_04IAMNGDP@?4end@
??_C@_05GLNCPGEA@?$CFs?5?$CFu@
??_C@_06BJIOBEE@?4table@
??_C@_09EPFKIGPE@?4treedata@
??_C@_0BC@JGAFDHCA@?$CFs?5?$CFs?5?$CFu?5?$CFu?5?$CFu?5?$CFu@
??_C@_0BP@LHPHLJIK@Illegal?5Huffman?5code?5in?5data?4?6@
??_C@_0L@PFAKIPKO@?4reference@
?MP3HuffmanDecode@@YAXPEAUgr_info_s@MP3SideInfo@@_NPEBEIIAEAIAEAVMP3HuffmanEncodingInfo@@@Z
?curBitIndex@BitVector@@QEBAIXZ
?dmask@@3KA
?hs@@3IA
?totNumBits@BitVector@@QEBAIXZ
?updateSideInfoForHuffman@@YAXAEAUMP3SideInfo@@_NPEBEIIAEAI3333333@Z
??0MP3FrameParams@@QEAA@XZ
??1MP3FrameParams@@QEAA@XZ
?ComputeFrameSize@@YAIII_N0E@Z
?GetADUInfoFromMP3Frame@@YA_NPEBEIAEAI1AEAUMP3SideInfo@@111@Z
?TranscodeMP3ADU@@YAIPEBEIIPEAEIAEAI@Z
?ZeroOutMP3SideInfo@@YA_NPEAEII@Z
?computeSideInfoSize@MP3FrameParams@@AEAAIXZ
?get1Bit@MP3FrameParams@@QEAAIXZ
?getBits@MP3FrameParams@@QEAAII@Z
?getSideInfo@MP3FrameParams@@QEAAXAEAUMP3SideInfo@@@Z
?i_slen2@@3PAIA
?n_slen2@@3PAIA
?setParamsFromHeader@MP3FrameParams@@QEAAXXZ
??0MP3FileSource@@IEAA@AEAVUsageEnvironment@@PEAU_iobuf@@@Z
??1MP3FileSource@@MEAA@XZ
??_7MP3FileSource@@6B@
??_C@_0BH@DNILMNNL@not?5an?5MPEG?5audio?5file@
??_C@_0EG@OMJHHGHL@Insufficient?5buffer?5size?5?$CFd?5for@
??_GMP3FileSource@@MEAAPEAXI@Z
??_R0?AVFramedFileSource@@@8
??_R0?AVMP3FileSource@@@8
??_R1A@?0A@EA@FramedFileSource@@8
??_R1A@?0A@EA@MP3FileSource@@8
??_R2FramedFileSource@@8
??_R2MP3FileSource@@8
??_R3FramedFileSource@@8
??_R3MP3FileSource@@8
??_R4MP3FileSource@@6B@
?MIMEtype@MP3FileSource@@EEBAPEBDXZ
?assignStream@MP3FileSource@@IEAAXPEAU_iobuf@@I@Z
?createNew@MP3FileSource@@SAPEAV1@AEAVUsageEnvironment@@PEBD@Z
?doGetNextFrame1@MP3FileSource@@EEAA_NXZ
?doGetNextFrame@MP3FileSource@@EEAAXXZ
?filePlayTime@MP3FileSource@@QEBAMXZ
?fileSize@MP3FileSource@@QEBAIXZ
?fileSize@MP3StreamState@@QEBAIXZ
?getAttributes@MP3FileSource@@EEBAXXZ
?initializeStream@MP3FileSource@@IEAA_NXZ
?name@Medium@@QEBAPEBDXZ
?seekWithinFile@MP3FileSource@@QEAAXNN@Z
?setPresentationTimeScale@MP3FileSource@@QEAAXI@Z
?setPresentationTimeScale@MP3StreamState@@QEAAXI@Z
??0MP3AudioMatroskaFileServerMediaSubsession@@AEAA@AEAVMatroskaFileServerDemux@@PEAVMatroskaTrack@@_NPEAVInterleaving@@@Z
??1MP3AudioMatroskaFileServerMediaSubsession@@EEAA@XZ
??_7MP3AudioMatroskaFileServerMediaSubsession@@6B@
??_GMP3AudioMatroskaFileServerMediaSubsession@@EEAAPEAXI@Z
??_R0?AVMP3AudioFileServerMediaSubsession@@@8
??_R0?AVMP3AudioMatroskaFileServerMediaSubsession@@@8
??_R1A@?0A@EA@MP3AudioFileServerMediaSubsession@@8
??_R1A@?0A@EA@MP3AudioMatroskaFileServerMediaSubsession@@8
??_R2MP3AudioFileServerMediaSubsession@@8
??_R2MP3AudioMatroskaFileServerMediaSubsession@@8
??_R3MP3AudioFileServerMediaSubsession@@8
??_R3MP3AudioMatroskaFileServerMediaSubsession@@8
??_R4MP3AudioMatroskaFileServerMediaSubsession@@6B@
?createNew@MP3AudioMatroskaFileServerMediaSubsession@@SAPEAV1@AEAVMatroskaFileServerDemux@@PEAVMatroskaTrack@@_NPEAVInterleaving@@@Z
?createNewStreamSource@MP3AudioMatroskaFileServerMediaSubsession@@EEAAPEAVFramedSource@@IAEAI@Z
?fileDuration@MatroskaFileServerDemux@@QEBAMXZ
?fileName@MatroskaFileServerDemux@@QEBAPEBDXZ
?seekStreamSource@MP3AudioMatroskaFileServerMediaSubsession@@EEAAXPEAVFramedSource@@AEANNAEA_K@Z
??0MP3AudioFileServerMediaSubsession@@IEAA@AEAVUsageEnvironment@@PEBD_N2PEAVInterleaving@@@Z
??1MP3AudioFileServerMediaSubsession@@MEAA@XZ
??_7MP3AudioFileServerMediaSubsession@@6B@
??_GMP3AudioFileServerMediaSubsession@@MEAAPEAXI@Z
??_R4MP3AudioFileServerMediaSubsession@@6B@
?createNew@MP3AudioFileServerMediaSubsession@@SAPEAV1@AEAVUsageEnvironment@@PEBD_N2PEAVInterleaving@@@Z
?createNewRTPSink@MP3AudioFileServerMediaSubsession@@MEAAPEAVRTPSink@@PEAVGroupsock@@EPEAVFramedSource@@@Z
?createNewStreamSource@MP3AudioFileServerMediaSubsession@@MEAAPEAVFramedSource@@IAEAI@Z
?createNewStreamSourceCommon@MP3AudioFileServerMediaSubsession@@IEAAPEAVFramedSource@@PEAV2@IAEAI@Z
?duration@MP3AudioFileServerMediaSubsession@@MEBAMXZ
?getBaseStreams@MP3AudioFileServerMediaSubsession@@IEAAXPEAVFramedSource@@AEAPEAV2@AEAPEAVADUFromMP3Source@@@Z
?seekStreamSource@MP3AudioFileServerMediaSubsession@@MEAAXPEAVFramedSource@@AEANNAEA_K@Z
?setStreamSourceScale@MP3AudioFileServerMediaSubsession@@MEAAXPEAVFramedSource@@M@Z
?testScaleFactor@MP3AudioFileServerMediaSubsession@@MEAAXAEAM@Z
??0MP3ADUTranscoder@@IEAA@AEAVUsageEnvironment@@IPEAVFramedSource@@@Z
??1MP3ADUTranscoder@@MEAA@XZ
??_7MP3ADUTranscoder@@6B@
??_C@_0BB@OFFIOJEP@audio?1MPA?9ROBUST@
??_C@_0BK@PICJLKGF@?5is?5not?5an?5MP3?5ADU?5source@
??_C@_0O@GGJNCDBB@?5bandwidth?5?$CFd@
??_GMP3ADUTranscoder@@MEAAPEAXI@Z
??_R0?AVMP3ADUTranscoder@@@8
??_R1A@?0A@EA@MP3ADUTranscoder@@8
??_R2MP3ADUTranscoder@@8
??_R3MP3ADUTranscoder@@8
??_R4MP3ADUTranscoder@@6B@
?afterGettingFrame1@MP3ADUTranscoder@@AEAAXIIUtimeval@@I@Z
?afterGettingFrame@MP3ADUTranscoder@@CAXPEAXIIUtimeval@@I@Z
?createNew@MP3ADUTranscoder@@SAPEAV1@AEAVUsageEnvironment@@IPEAVFramedSource@@@Z
?doGetNextFrame@MP3ADUTranscoder@@EEAAXXZ
?getAttributes@MP3ADUTranscoder@@EEBAXXZ
?outBitrate@MP3ADUTranscoder@@QEBAIXZ
??0ADUBufferedPacket@@QEAA@XZ
??0ADUBufferedPacketFactory@@QEAA@XZ
??0MP3ADURTPSource@@AEAA@AEAVUsageEnvironment@@PEAVGroupsock@@EI@Z
??1ADUBufferedPacket@@UEAA@XZ
??1ADUBufferedPacketFactory@@UEAA@XZ
??1MP3ADURTPSource@@MEAA@XZ
??_7ADUBufferedPacket@@6B@
??_7ADUBufferedPacketFactory@@6B@
??_7MP3ADURTPSource@@6B@
??_GADUBufferedPacket@@UEAAPEAXI@Z
??_GADUBufferedPacketFactory@@UEAAPEAXI@Z
??_GMP3ADURTPSource@@MEAAPEAXI@Z
??_R0?AVADUBufferedPacket@@@8
??_R0?AVADUBufferedPacketFactory@@@8
??_R0?AVMP3ADURTPSource@@@8
??_R1A@?0A@EA@ADUBufferedPacket@@8
??_R1A@?0A@EA@ADUBufferedPacketFactory@@8
??_R1A@?0A@EA@MP3ADURTPSource@@8
??_R2ADUBufferedPacket@@8
??_R2ADUBufferedPacketFactory@@8
??_R2MP3ADURTPSource@@8
??_R3ADUBufferedPacket@@8
??_R3ADUBufferedPacketFactory@@8
??_R3MP3ADURTPSource@@8
??_R4ADUBufferedPacket@@6B@
??_R4ADUBufferedPacketFactory@@6B@
??_R4MP3ADURTPSource@@6B@
?MIMEtype@MP3ADURTPSource@@EEBAPEBDXZ
?createNew@MP3ADURTPSource@@SAPEAV1@AEAVUsageEnvironment@@PEAVGroupsock@@EI@Z
?createNewPacket@ADUBufferedPacketFactory@@EEAAPEAVBufferedPacket@@PEAVMultiFramedRTPSource@@@Z
?nextEnclosedFrameSize@ADUBufferedPacket@@EEAAIAEAPEAEI@Z
??0MP3ADURTPSink@@AEAA@AEAVUsageEnvironment@@PEAVGroupsock@@E@Z
??1MP3ADURTPSink@@MEAA@XZ
??_7MP3ADURTPSink@@6B@
??_C@_01JOAMLHOP@?9@
??_C@_01MIFGBAGJ@?$CL@
??_C@_03CCDPNADL@?5?$CI?$DN@
??_C@_0BK@LDPGLNJO@?$CJ?5in?5the?5ADU?5descriptor?$CB?6@
??_C@_0BM@EHNAEBN@?$CJ?5did?5not?5match?5the?5value?5?$CI@
??_C@_0CA@PCEJCPFB@?$CJ?5of?5non?9fragmented?5input?5ADU?$CB?6@
??_C@_0DE@LCOIOOEL@Unexpected?5?$CCC?$CC?5bit?5seen?5on?5non?9@
??_C@_0DI@NDBPGAEJ@MP3ADURTPSink?3?3doSpecialFrameHa@
??_C@_0EC@NFHBIKM@MP3ADURTPSink?3?3doSpecialFrameHa@
??_GMP3ADURTPSink@@MEAAPEAXI@Z
??_R0?AVMP3ADURTPSink@@@8
??_R1A@?0A@EA@MP3ADURTPSink@@8
??_R2MP3ADURTPSink@@8
??_R3MP3ADURTPSink@@8
??_R4MP3ADURTPSink@@6B@
?createNew@MP3ADURTPSink@@SAPEAV1@AEAVUsageEnvironment@@PEAVGroupsock@@E@Z
?curFragmentationOffset@MultiFramedRTPSink@@IEBAIXZ
?doSpecialFrameHandling@MP3ADURTPSink@@EEAAXIPEAEIUtimeval@@I@Z
?specialHeaderSize@MP3ADURTPSink@@EEBAIXZ
??0DeinterleavingFrameDescriptor@@QEAA@XZ
??0DeinterleavingFrames@@QEAA@XZ
??0Interleaving@@QEAA@AEBV0@@Z
??0Interleaving@@QEAA@IPEBE@Z
??0InterleavingFrameDescriptor@@QEAA@XZ
??0InterleavingFrames@@QEAA@I@Z
??0MP3ADUdeinterleaver@@IEAA@AEAVUsageEnvironment@@PEAVFramedSource@@@Z
??0MP3ADUinterleaver@@IEAA@AEAVUsageEnvironment@@AEBVInterleaving@@PEAVFramedSource@@@Z
??0MP3ADUinterleaverBase@@IEAA@AEAVUsageEnvironment@@PEAVFramedSource@@@Z
??1DeinterleavingFrameDescriptor@@UEAA@XZ
??1DeinterleavingFrames@@UEAA@XZ
??1Interleaving@@UEAA@XZ
??1InterleavingFrames@@UEAA@XZ
??1MP3ADUdeinterleaver@@MEAA@XZ
??1MP3ADUinterleaver@@MEAA@XZ
??1MP3ADUinterleaverBase@@MEAA@XZ
??_7DeinterleavingFrameDescriptor@@6B@
??_7DeinterleavingFrames@@6B@
??_7Interleaving@@6B@
??_7InterleavingFrames@@6B@
??_7MP3ADUdeinterleaver@@6B@
??_7MP3ADUinterleaver@@6B@
??_7MP3ADUinterleaverBase@@6B@
??_EDeinterleavingFrameDescriptor@@UEAAPEAXI@Z
??_GDeinterleavingFrames@@UEAAPEAXI@Z
??_GInterleaving@@UEAAPEAXI@Z
??_GInterleavingFrames@@UEAAPEAXI@Z
??_GMP3ADUdeinterleaver@@MEAAPEAXI@Z
??_GMP3ADUinterleaver@@MEAAPEAXI@Z
??_GMP3ADUinterleaverBase@@MEAAPEAXI@Z
??_H@YAXPEAX_K1P6APEAX0@Z@Z
??_R0?AVDeinterleavingFrameDescriptor@@@8
??_R0?AVDeinterleavingFrames@@@8
??_R0?AVInterleaving@@@8
??_R0?AVInterleavingFrames@@@8
??_R0?AVMP3ADUdeinterleaver@@@8
??_R0?AVMP3ADUinterleaver@@@8
??_R0?AVMP3ADUinterleaverBase@@@8
??_R1A@?0A@EA@DeinterleavingFrameDescriptor@@8
??_R1A@?0A@EA@DeinterleavingFrames@@8
??_R1A@?0A@EA@Interleaving@@8
??_R1A@?0A@EA@InterleavingFrames@@8
??_R1A@?0A@EA@MP3ADUdeinterleaver@@8
??_R1A@?0A@EA@MP3ADUinterleaver@@8
??_R1A@?0A@EA@MP3ADUinterleaverBase@@8
??_R2DeinterleavingFrameDescriptor@@8
??_R2DeinterleavingFrames@@8
??_R2Interleaving@@8
??_R2InterleavingFrames@@8
??_R2MP3ADUdeinterleaver@@8
??_R2MP3ADUinterleaver@@8
??_R2MP3ADUinterleaverBase@@8
??_R3DeinterleavingFrameDescriptor@@8
??_R3DeinterleavingFrames@@8
??_R3Interleaving@@8
??_R3InterleavingFrames@@8
??_R3MP3ADUdeinterleaver@@8
??_R3MP3ADUinterleaver@@8
??_R3MP3ADUinterleaverBase@@8
??_R4DeinterleavingFrameDescriptor@@6B@
??_R4DeinterleavingFrames@@6B@
??_R4Interleaving@@6B@
??_R4InterleavingFrames@@6B@
??_R4MP3ADUdeinterleaver@@6B@
??_R4MP3ADUinterleaver@@6B@
??_R4MP3ADUinterleaverBase@@6B@
?afterGettingFrame@MP3ADUdeinterleaver@@EEAAXIUtimeval@@I@Z
?afterGettingFrame@MP3ADUinterleaver@@EEAAXIUtimeval@@I@Z
?afterGettingFrame@MP3ADUinterleaverBase@@KAXPEAXIIUtimeval@@I@Z
?createNew@MP3ADUdeinterleaver@@SAPEAV1@AEAVUsageEnvironment@@PEAVFramedSource@@@Z
?createNew@MP3ADUinterleaver@@SAPEAV1@AEAVUsageEnvironment@@AEBVInterleaving@@PEAVFramedSource@@@Z
?cycleSize@Interleaving@@QEBAIXZ
?doGetNextFrame@MP3ADUdeinterleaver@@EEAAXXZ
?doGetNextFrame@MP3ADUinterleaver@@EEAAXXZ
?getIncomingFrameParams@DeinterleavingFrames@@QEAAXAEAPEAEAEAI@Z
?getIncomingFrameParams@InterleavingFrames@@QEAAXEAEAPEAEAEAI@Z
?getIncomingFrameParamsAfter@DeinterleavingFrames@@QEAAXIUtimeval@@IAEAE1@Z
?getInputSource@MP3ADUinterleaverBase@@KAPEAVFramedSource@@AEAVUsageEnvironment@@PEBD@Z
?getReleasingFrameParams@DeinterleavingFrames@@QEAAXAEAPEAEAEAIAEAUtimeval@@1@Z
?getReleasingFrameParams@InterleavingFrames@@QEAAXEAEAPEAEAEAIAEAUtimeval@@1@Z
?haveReleaseableFrame@DeinterleavingFrames@@QEAA_NXZ
?haveReleaseableFrame@InterleavingFrames@@QEAA_NXZ
?lookupInverseCycle@Interleaving@@QEBAEE@Z
?moveIncomingFrameIntoPlace@DeinterleavingFrames@@QEAAXXZ
?nextIndexToRelease@InterleavingFrames@@QEAAIXZ
?releaseNext@DeinterleavingFrames@@QEAAXXZ
?releaseNext@InterleavingFrames@@QEAAXXZ
?releaseOutgoingFrame@MP3ADUdeinterleaver@@AEAAXXZ
?releaseOutgoingFrame@MP3ADUinterleaver@@AEAAXXZ
?setFrameParams@InterleavingFrames@@QEAAXEEEIUtimeval@@I@Z
?startNewCycle@DeinterleavingFrames@@QEAAXXZ
?computeSize@ADUdescriptor@@SAII@Z
?generateDescriptor@ADUdescriptor@@SAIAEAPEAEI@Z
?generateTwoByteDescriptor@ADUdescriptor@@SAXAEAPEAEI@Z
?getRemainingFrameSize@ADUdescriptor@@SAIAEAPEAE@Z
??0ADUFromMP3Source@@IEAA@AEAVUsageEnvironment@@PEAVFramedSource@@_N@Z
??0MP3FromADUSource@@IEAA@AEAVUsageEnvironment@@PEAVFramedSource@@_N@Z
??0SegmentQueue@@QEAA@_N0@Z
??1ADUFromMP3Source@@MEAA@XZ
??1MP3FromADUSource@@MEAA@XZ
??_7ADUFromMP3Source@@6B@
??_7MP3FromADUSource@@6B@
??_C@_01PPODPGHN@?$DO@
??_C@_0BN@IJFNFCAH@?5is?5not?5an?5MPEG?5audio?5source@
??_C@_0CF@GPDADEBF@SegmentQueue?3?3dequeue?$CI?$CJ?3?5underf@
??_C@_0CM@GGPPOHFG@SegmentQueue?3?3enqueueNewSegment@
??_C@_0DH@DNNDMHOP@ADUFromMP3Source?3?3doGetNextFram@
??_GADUFromMP3Source@@MEAAPEAXI@Z
??_GMP3FromADUSource@@MEAAPEAXI@Z
??_R0?AVADUFromMP3Source@@@8
??_R1A@?0A@EA@ADUFromMP3Source@@8
??_R2ADUFromMP3Source@@8
??_R3ADUFromMP3Source@@8
??_R4ADUFromMP3Source@@6B@
??_R4MP3FromADUSource@@6B@
?MIMEtype@ADUFromMP3Source@@EEBAPEBDXZ
?MIMEtype@MP3FromADUSource@@EEBAPEBDXZ
?createNew@ADUFromMP3Source@@SAPEAV1@AEAVUsageEnvironment@@PEAVFramedSource@@_N@Z
?createNew@MP3FromADUSource@@SAPEAV1@AEAVUsageEnvironment@@PEAVFramedSource@@_N@Z
?dataHere@Segment@@QEAAIXZ
?dataStart@Segment@@QEAAPEAEXZ
?dequeue@SegmentQueue@@QEAA_NXZ
?doGetNextFrame1@ADUFromMP3Source@@AEAA_NXZ
?doGetNextFrame@ADUFromMP3Source@@EEAAXXZ
?doGetNextFrame@MP3FromADUSource@@EEAAXXZ
?enqueueNewSegment@SegmentQueue@@QEAAXPEAVFramedSource@@0@Z
?generateFrameFromHeadADU@MP3FromADUSource@@AEAA_NXZ
?headIndex@SegmentQueue@@QEAAIXZ
?headSegment@SegmentQueue@@QEAAAEAVSegment@@XZ
?headerSize@Segment@@2IB
?insertDummyADUsIfNecessary@MP3FromADUSource@@AEAAXXZ
?insertDummyBeforeTail@SegmentQueue@@QEAA_NI@Z
?isEmpty@SegmentQueue@@QEAA_NXZ
?isEmptyOrFull@SegmentQueue@@AEAA_NXZ
?isFull@SegmentQueue@@QEAA_NXZ
?needToGetAnADU@MP3FromADUSource@@AEAA_NXZ
?nextFreeIndex@SegmentQueue@@QEAAIXZ
?nextFreeSegment@SegmentQueue@@QEAAAEAVSegment@@XZ
?nextIndex@SegmentQueue@@SAII@Z
?prevIndex@SegmentQueue@@SAII@Z
?reset@SegmentQueue@@QEAAXXZ
?resetInput@ADUFromMP3Source@@QEAAXXZ
?setScaleFactor@ADUFromMP3Source@@QEAA_NH@Z
?sqAfterGettingCommon@SegmentQueue@@AEAA_NAEAVSegment@@I@Z
?sqAfterGettingSegment@SegmentQueue@@CAXPEAXIIUtimeval@@I@Z
?totalDataSize@SegmentQueue@@QEAAIXZ
??0MediaSource@@IEAA@AEAVUsageEnvironment@@@Z
??1MediaSource@@MEAA@XZ
??_7MediaSource@@6B@
??_C@_0BH@PCMKBOMJ@?5is?5not?5a?5media?5source@
??_C@_0BJ@HHHNIJFC@application?1OCTET?9STREAM@
??_GMediaSource@@MEAAPEAXI@Z
??_R4MediaSource@@6B@
?MIMEtype@MediaSource@@UEBAPEBDXZ
?getAttributes@MediaSource@@UEBAXXZ
?isAMRAudioSource@MediaSource@@UEBA_NXZ
?isDVVideoStreamFramer@MediaSource@@UEBA_NXZ
?isFramedSource@MediaSource@@UEBA_NXZ
?isH264VideoStreamFramer@MediaSource@@UEBA_NXZ
?isH265VideoStreamFramer@MediaSource@@UEBA_NXZ
?isJPEGVideoSource@MediaSource@@UEBA_NXZ
?isMPEG1or2VideoStreamFramer@MediaSource@@UEBA_NXZ
?isMPEG4VideoStreamFramer@MediaSource@@UEBA_NXZ
?isRTPSource@MediaSource@@UEBA_NXZ
?isSource@MediaSource@@EEBA_NXZ
?lookupByName@MediaSource@@SA_NAEAVUsageEnvironment@@PEBDAEAPEAV1@@Z
??0MediaSink@@IEAA@AEAVUsageEnvironment@@@Z
??0OutPacketBuffer@@QEAA@III@Z
??1MediaSink@@MEAA@XZ
??1OutPacketBuffer@@QEAA@XZ
??_7MediaSink@@6B@
??_C@_0BF@DPLIMHP@?5is?5not?5a?5media?5sink@
??_C@_0CC@KGHOEFCK@This?5sink?5is?5already?5being?5play@
??_C@_0DF@JMCOJFPF@MediaSink?3?3startPlaying?$CI?$CJ?3?5sour@
??_GMediaSink@@MEAAPEAXI@Z
??_R4MediaSink@@6B@
?adjustPacketStart@OutPacketBuffer@@QEAAXI@Z
?enqueue@OutPacketBuffer@@QEAAXPEBEI@Z
?enqueueWord@OutPacketBuffer@@QEAAXI@Z
?extract@OutPacketBuffer@@QEAAXPEAEII@Z
?extractWord@OutPacketBuffer@@QEAAII@Z
?insert@OutPacketBuffer@@QEAAXPEBEII@Z
?insertWord@OutPacketBuffer@@QEAAXII@Z
?isRTPSink@MediaSink@@UEBA_NXZ
?isSink@MediaSink@@EEBA_NXZ
?lookupByName@MediaSink@@SA_NAEAVUsageEnvironment@@PEBDAEAPEAV1@@Z
?maxSize@OutPacketBuffer@@2IA
?onSourceClosure@MediaSink@@IEAAXXZ
?onSourceClosure@MediaSink@@KAXPEAX@Z
?resetPacketStart@OutPacketBuffer@@QEAAXXZ
?setOverflowData@OutPacketBuffer@@QEAAXIIAEBUtimeval@@I@Z
?skipBytes@OutPacketBuffer@@QEAAXI@Z
?sourceIsCompatibleWithUs@MediaSink@@MEAA_NAEAVMediaSource@@@Z
?startPlaying@MediaSink@@QEAA_NAEAVMediaSource@@P6AXPEAX@Z1@Z
?stopPlaying@MediaSink@@UEAAXXZ
?useOverflowData@OutPacketBuffer@@QEAAXXZ
??0MediaSession@@IEAA@AEAVUsageEnvironment@@@Z
??0MediaSubsession@@IEAA@AEAVMediaSession@@@Z
??0MediaSubsessionIterator@@QEAA@AEBVMediaSession@@@Z
??0SDPAttribute@@QEAA@PEBD_N@Z
??1MediaSession@@MEAA@XZ
??1MediaSubsession@@MEAA@XZ
??1MediaSubsessionIterator@@UEAA@XZ
??1SDPAttribute@@UEAA@XZ
??_7MediaSession@@6B@
??_7MediaSubsession@@6B@
??_7MediaSubsessionIterator@@6B@
??_7SDPAttribute@@6B@
??_C@_01GBGANLPD@0@
??_C@_01HIHLOKLC@1@
??_C@_02JGFLHMPF@NV@
??_C@_02NPGPJNMC@93@
??_C@_03GOLBDMPC@RTP@
??_C@_03LIJBPFBA@LPC@
??_C@_03OOINPMFE@crc@
??_C@_04BFLGJADH@ILBC@
??_C@_04DBILNLFH@CELB@
??_C@_04GNHGBIGN@G723@
??_C@_04HEGNCJCM@G722@
??_C@_04IOICMBKG@G728@
??_C@_04JHJJPAOH@G729@
??_C@_04MPOHPHBC@MP2P@
??_C@_04NPPBNHFC@H263@
??_C@_04OGIMBKII@MP1S@
??_C@_05DDNBCEPM@DAT12@
??_C@_05FEMNNLLG@SPEEX@
??_C@_06HEJKKHEK@config@
??_C@_07BNOOJHGC@G726?940@
??_C@_07CKJHODGF@G726?932@
??_C@_07ENHPPCAP@G726?916@
??_C@_07GFCCJKHI@a?$DNfmtp?3@
??_C@_07HNAPCONE@G726?924@
??_C@_07IJEIDOGN@b?$DNAS?3?$CFu@
??_C@_08ECBHLDFK@s?$DN?$CF?$FL?$FO?$AN?6?$FN@
??_C@_08HLPJHLLF@i?$DN?$CF?$FL?$FO?$AN?6?$FN@
??_C@_08KECGPPGF@level?9id@
??_C@_0BA@CCFMBBFE@m?$DN?$CFs?5?$CFhu?5UDP?5?$CFu@
??_C@_0BA@CLIMACPK@m?$DN?$CFs?5?$CFhu?5udp?5?$CFu@
??_C@_0BA@JDEBGANI@a?$DNrtpmap?3?5?$CFu?5?$CFs@
??_C@_0BA@MBICCEMJ@a?$DNframerate?3?5?$CFf@
??_C@_0BB@EIMMAOHP@c?$DNIN?5IP4?5?$CF?$FL?$FO?1?$AN?6?$FN@
??_C@_0BB@HEJOMFC@indexdeltalength@
??_C@_0BC@CEPPBLHI@a?$DNx?9framerate?3?5?$CFd@
??_C@_0BD@HCJNNNHL@VND?4ONVIF?4METADATA@
??_C@_0BD@OHIOMCKK@Invalid?5SDP?5line?3?5@
??_C@_0BE@BGIIMKJJ@Bad?5SDP?5?$CCm?$DN?$CC?5line?3?5@
??_C@_0BE@EHHOPCOK@m?$DN?$CFs?5?$CFhu?5RTP?1AVP?5?$CFu@
??_C@_0BE@NPDBGPMA@interop?9constraints@
??_C@_0BF@HLIBPJMO@a?$DNx?9dimensions?3?$CFd?0?$CFd@
??_C@_0BF@IENPDOIO@Codec?5is?5unspecified@
??_C@_0BG@EADNDBLO@a?$DNrtpmap?3?5?$CFu?5?$CF?$FL?$FO?1?$FN?1?$CFu@
??_C@_0BH@MKEGNEPO@sprop?9depack?9buf?9nalus@
??_C@_0BI@FBGCPIKA@m?$DN?$CFs?5?$CFhu?5RAW?1RAW?1UDP?5?$CFu@
??_C@_0BI@FDPPEDDK@?5?$CF?$FL?$FO?$DN?$DL?5?7?$AN?6?$FN?5?$DN?5?$CF?$FL?$FO?$DL?5?7?$AN?6?$FN@
??_C@_0BI@FIOPKDAP@m?$DN?$CFs?5?$CFhu?1?$CF?$CKu?5RTP?1AVP?5?$CFu@
??_C@_0BJ@KJMLMBH@a?$DNrange?3?5npt?5?$DN?5?$CFlg?5?9?5?$CFlg@
??_C@_0BJ@MFGKCOCJ@a?$DNrtpmap?3?5?$CFu?5?$CF?$FL?$FO?1?$FN?1?$CFu?1?$CFu@
??_C@_0BM@EHANPDLA@Failed?5to?5create?5RTP?5socket@
??_C@_0BN@CBFEOEGA@Failed?5to?5create?5read?5source@
??_C@_0BP@GLPHNLF@Failed?5to?5create?5RTCP?5instance@
??_C@_0CA@FGLGALLP@?5is?5not?5a?5?8MediaSession?8?5object@
??_C@_0CA@LMBNGCGH@a?$DNrange?3?5clock?5?$DN?5?$CF?$FL?$FO?9?$AN?6?$FN?9?$CF?$FL?$FO?$AN?6?$FN@
??_C@_0CE@NAANDHLN@a?$DNsource?9filter?3?5incl?5IN?5IP4?5?$CF?$CK@
??_C@_0CF@CHPPOJFB@Unable?5to?5create?5new?5MediaSubse@
??_C@_0CH@DGBLEBAP@A?5read?5source?5has?5already?5been?5@
??_C@_0CH@EGLPBCHM@Session?5has?5no?5usable?5media?5sub@
??_C@_0CJ@ILNKIFD@Unknown?5codec?5name?5for?5RTP?5payl@
??_C@_0CM@EBKEFDNP@RTP?5payload?5format?5unknown?5or?5n@
??_C@_0EA@BFPJCJCD@MediaSession?3?3initiate?$CI?$CJ?3?5unabl@
??_C@_0L@CJLNLJMJ@profile?9id@
??_C@_0L@JKNNLMMN@a?$DNrtcp?9mux@
??_C@_0L@KNLKNFCC@video?1JPEG@
??_C@_0M@BHFOHJFJ@octet?9align@
??_C@_0N@NECIMAKJ@B00000000000@
??_C@_0N@NKMFGPCO@interleaving@
??_C@_0O@BMMINLMN@a?$DNcontrol?3?5?$CFs@
??_C@_0O@DFOPLFKA@configuration@
??_C@_0O@OCMFPDKG@a?$DNtype?3?5?$CF?$FL?$FO?5?$FN@
??_C@_0P@BFLFCOAN@X?9MP3?9DRAFT?900@
??_C@_0P@FOGHKCJG@robust?9sorting@
??_C@_0P@JKHHHIHO@a?$DNframerate?3?$CFf@
??_GMediaSession@@MEAAPEAXI@Z
??_GMediaSubsession@@MEAAPEAXI@Z
??_GMediaSubsessionIterator@@UEAAPEAXI@Z
??_GSDPAttribute@@UEAAPEAXI@Z
??_R0?AVMediaSession@@@8
??_R0?AVMediaSubsession@@@8
??_R0?AVMediaSubsessionIterator@@@8
??_R0?AVSDPAttribute@@@8
??_R1A@?0A@EA@MediaSession@@8
??_R1A@?0A@EA@MediaSubsession@@8
??_R1A@?0A@EA@MediaSubsessionIterator@@8
??_R1A@?0A@EA@SDPAttribute@@8
??_R2MediaSession@@8
??_R2MediaSubsession@@8
??_R2MediaSubsessionIterator@@8
??_R2SDPAttribute@@8
??_R3MediaSession@@8
??_R3MediaSubsession@@8
??_R3MediaSubsessionIterator@@8
??_R3SDPAttribute@@8
??_R4MediaSession@@6B@
??_R4MediaSubsession@@6B@
??_R4MediaSubsessionIterator@@6B@
??_R4SDPAttribute@@6B@
?CNAME@MediaSession@@QEBAPEBDXZ
?absEndTime@MediaSession@@QEBAPEADXZ
?absEndTime@MediaSubsession@@QEBAPEADXZ
?absStartTime@MediaSession@@QEBAPEADXZ
?absStartTime@MediaSubsession@@QEBAPEADXZ
?addFilter@MediaSubsession@@QEAAXPEAVFramedFilter@@@Z
?attrVal_bool@MediaSubsession@@QEBA_NPEBD@Z
?attrVal_int@MediaSubsession@@QEBAIPEBD@Z
?attrVal_str@MediaSubsession@@QEBAPEBDPEBD@Z
?attrVal_strToLower@MediaSubsession@@QEBAPEBDPEBD@Z
?connectionEndpointAddress@MediaSubsession@@QEBAIXZ
?connectionEndpointName@MediaSession@@QEBAPEADXZ
?connectionEndpointName@MediaSubsession@@QEBAPEBDXZ
?createNew@MediaSession@@SAPEAV1@AEAVUsageEnvironment@@PEBD@Z
?createNewMediaSubsession@MediaSession@@MEAAPEAVMediaSubsession@@XZ
?createSourceObjects@MediaSubsession@@MEAA_NH@Z
?curPacketRTPTimestamp@RTPSource@@AEBAIXZ
?deInitiate@MediaSubsession@@QEAAXXZ
?env@MediaSubsession@@IEAAAEAVUsageEnvironment@@XZ
?fmtp_config@MediaSubsession@@QEBAPEBDXZ
?getNormalPlayTime@MediaSubsession@@QEAANAEBUtimeval@@@Z
?guessRTPTimestampFrequency@MediaSession@@KAIPEBD0@Z
?initializeWithSDP@MediaSession@@IEAA_NPEBD@Z
?initiate@MediaSubsession@@QEAA_NH@Z
?initiateByMediaType@MediaSession@@QEAA_NPEBDAEAPEAVMediaSubsession@@H@Z
?intValue@SDPAttribute@@QEBAHXZ
?isMediaSession@MediaSession@@MEBA_NXZ
?isSSM@MediaSubsession@@QEBA_NXZ
?lookupByName@MediaSession@@SA_NAEAVUsageEnvironment@@PEBDAEAPEAV1@@Z
?lookupPayloadFormat@MediaSession@@KAPEADEAEAI0@Z
?next@MediaSubsessionIterator@@QEAAPEAVMediaSubsession@@XZ
?parseSDPAttribute_control@MediaSession@@IEAA_NPEBD@Z
?parseSDPAttribute_control@MediaSubsession@@IEAA_NPEBD@Z
?parseSDPAttribute_fmtp@MediaSubsession@@IEAA_NPEBD@Z
?parseSDPAttribute_framerate@MediaSubsession@@IEAA_NPEBD@Z
?parseSDPAttribute_range@MediaSession@@IEAA_NPEBD@Z
?parseSDPAttribute_range@MediaSubsession@@IEAA_NPEBD@Z
?parseSDPAttribute_rtcpmux@MediaSubsession@@IEAA_NPEBD@Z
?parseSDPAttribute_rtpmap@MediaSubsession@@IEAA_NPEBD@Z
?parseSDPAttribute_source_filter@MediaSession@@IEAA_NPEBD@Z
?parseSDPAttribute_source_filter@MediaSubsession@@IEAA_NPEBD@Z
?parseSDPAttribute_type@MediaSession@@IEAA_NPEBD@Z
?parseSDPAttribute_x_dimensions@MediaSubsession@@IEAA_NPEBD@Z
?parseSDPLine@MediaSession@@IEAA_NPEBDAEAPEBD@Z
?parseSDPLine_b@MediaSubsession@@IEAA_NPEBD@Z
?parseSDPLine_c@MediaSession@@IEAA_NPEBD@Z
?parseSDPLine_c@MediaSubsession@@IEAA_NPEBD@Z
?parseSDPLine_i@MediaSession@@IEAA_NPEBD@Z
?parseSDPLine_s@MediaSession@@IEAA_NPEBD@Z
?playEndTime@MediaSubsession@@QEBANXZ
?playStartTime@MediaSubsession@@QEBANXZ
?reset@MediaSubsessionIterator@@QEAAXXZ
?setAttribute@MediaSubsession@@IEAAXPEBD0_N@Z
?setClientPortNum@MediaSubsession@@QEAA_NG@Z
?setDestinations@MediaSubsession@@QEAAXI@Z
?setNext@MediaSubsession@@IEAAXPEAV1@@Z
?setSessionId@MediaSubsession@@QEAAXPEBD@Z
?sourceFilterAddr@MediaSession@@QEBAAEBUin_addr@@XZ
?strValue@SDPAttribute@@QEBAPEBDXZ
?strValueToLower@SDPAttribute@@QEBAPEBDXZ
?valueIsHexadecimal@SDPAttribute@@QEBA_NXZ
??0MediaLookupTable@@IEAA@AEAVUsageEnvironment@@@Z
??0Medium@@IEAA@AEAVUsageEnvironment@@@Z
??0_Tables@@IEAA@AEAVUsageEnvironment@@@Z
??1MediaLookupTable@@MEAA@XZ
??1Medium@@MEAA@XZ
??1_Tables@@MEAA@XZ
??_7MediaLookupTable@@6B@
??_7Medium@@6B@
??_7_Tables@@6B@
??_C@_07HPOGOAOH@Medium?5@
??_C@_0BA@LBOGFKMD@?5does?5not?5exist@
??_C@_0M@LPJENHFA@liveMedia?$CFd@
??_GMediaLookupTable@@MEAAPEAXI@Z
??_GMedium@@MEAAPEAXI@Z
??_G_Tables@@MEAAPEAXI@Z
??_R0?AVMediaLookupTable@@@8
??_R0?AV_Tables@@@8
??_R1A@?0A@EA@MediaLookupTable@@8
??_R1A@?0A@EA@_Tables@@8
??_R2MediaLookupTable@@8
??_R2_Tables@@8
??_R3MediaLookupTable@@8
??_R3_Tables@@8
??_R4MediaLookupTable@@6B@
??_R4Medium@@6B@
??_R4_Tables@@6B@
?addNew@MediaLookupTable@@AEAAXPEAVMedium@@PEAD@Z
?close@Medium@@SAXAEAVUsageEnvironment@@PEBD@Z
?close@Medium@@SAXPEAV1@@Z
?generateNewName@MediaLookupTable@@AEAAXPEADI@Z
?getOurTables@_Tables@@SAPEAV1@AEAVUsageEnvironment@@_N@Z
?isMediaSession@Medium@@UEBA_NXZ
?isRTCPInstance@Medium@@UEBA_NXZ
?isRTSPClient@Medium@@UEBA_NXZ
?isRTSPServer@Medium@@UEBA_NXZ
?isServerMediaSession@Medium@@UEBA_NXZ
?isSink@Medium@@UEBA_NXZ
?isSource@Medium@@UEBA_NXZ
?lookup@MediaLookupTable@@AEBAPEAVMedium@@PEBD@Z
?lookupByName@Medium@@SA_NAEAVUsageEnvironment@@PEBDAEAPEAV1@@Z
?ourMedia@MediaLookupTable@@SAPEAV1@AEAVUsageEnvironment@@@Z
?reclaimIfPossible@_Tables@@QEAAXXZ
?remove@MediaLookupTable@@AEAAXPEBD@Z
??0MatroskaFileServerMediaSubsession@@IEAA@AEAVMatroskaFileServerDemux@@PEAVMatroskaTrack@@@Z
??1MatroskaFileServerMediaSubsession@@MEAA@XZ
??_7MatroskaFileServerMediaSubsession@@6B@
??_GMatroskaFileServerMediaSubsession@@MEAAPEAXI@Z
??_R0?AVMatroskaFileServerMediaSubsession@@@8
??_R1A@?0A@EA@MatroskaFileServerMediaSubsession@@8
??_R2MatroskaFileServerMediaSubsession@@8
??_R3MatroskaFileServerMediaSubsession@@8
??_R4MatroskaFileServerMediaSubsession@@6B@
?createNew@MatroskaFileServerMediaSubsession@@SAPEAV1@AEAVMatroskaFileServerDemux@@PEAVMatroskaTrack@@@Z
?createNewRTPSink@MatroskaFileServerMediaSubsession@@MEAAPEAVRTPSink@@PEAVGroupsock@@EPEAVFramedSource@@@Z
?createNewStreamSource@MatroskaFileServerMediaSubsession@@MEAAPEAVFramedSource@@IAEAI@Z
?duration@MatroskaFileServerMediaSubsession@@MEBAMXZ
?ourMatroskaFile@MatroskaFileServerDemux@@QEAAPEAVMatroskaFile@@XZ
?seekStreamSource@MatroskaFileServerMediaSubsession@@MEAAXPEAVFramedSource@@AEANNAEA_K@Z
??0MatroskaFileServerDemux@@AEAA@AEAVUsageEnvironment@@PEBDP6AXPEAV0@PEAX@Z31@Z
??1MatroskaFileServerDemux@@EEAA@XZ
??_7MatroskaFileServerDemux@@6B@
??_GMatroskaFileServerDemux@@EEAAPEAXI@Z
??_R0?AVMatroskaFileServerDemux@@@8
??_R1A@?0A@EA@MatroskaFileServerDemux@@8
??_R2MatroskaFileServerDemux@@8
??_R3MatroskaFileServerDemux@@8
??_R4MatroskaFileServerDemux@@6B@
?chosenAudioTrackNumber@MatroskaFile@@QEAAIXZ
?chosenSubtitleTrackNumber@MatroskaFile@@QEAAIXZ
?chosenVideoTrackNumber@MatroskaFile@@QEAAIXZ
?createNew@MatroskaFileServerDemux@@SAXAEAVUsageEnvironment@@PEBDP6AXPEAV1@PEAX@Z31@Z
?newDemuxedTrack@MatroskaFileServerDemux@@QEAAPEAVFramedSource@@II@Z
?newServerMediaSubsession@MatroskaFileServerDemux@@QEAAPEAVServerMediaSubsession@@AEAI@Z
?newServerMediaSubsession@MatroskaFileServerDemux@@QEAAPEAVServerMediaSubsession@@XZ
?newServerMediaSubsessionByTrackNumber@MatroskaFileServerDemux@@QEAAPEAVServerMediaSubsession@@I@Z
?onMatroskaFileCreation@MatroskaFileServerDemux@@AEAAXPEAVMatroskaFile@@@Z
?onMatroskaFileCreation@MatroskaFileServerDemux@@CAXPEAVMatroskaFile@@PEAX@Z
??0MatroskaFileParser@@QEAA@AEAVMatroskaFile@@PEAVFramedSource@@P6AXPEAX@Z2PEAVMatroskaDemux@@@Z
??1MatroskaFileParser@@UEAA@XZ
??8EBMLNumber@@QEBA_N_K@Z
??9EBMLNumber@@QEBA_N_K@Z
??_7MatroskaFileParser@@6B@
??_C@_05JFGFLGHO@A_AC3@
??_C@_05KCPHBONI@V_VP9@
??_C@_05LJNOBLOG@A_AAC@
??_C@_05LLOMCPJJ@V_VP8@
??_C@_06FAFHEPNF@S_TEXT@
??_C@_06JHHIMGJI@A_OPUS@
??_C@_06NPDAOBNN@A_MPEG@
??_C@_08HFBHGMKK@V_THEORA@
??_C@_08HPABMNIO@A_VORBIS@
??_C@_09BNGLDCAO@text?1T140@
??_C@_09MNMHLFIB@audio?1AC3@
??_C@_09OBHMBIBJ@audio?1AAC@
??_C@_0BA@MPAKHKPO@V_MPEG4?1ISO?1AVC@
??_C@_0BB@CAPHPCAI@V_MPEGH?1ISO?1HEVC@
??_C@_0DA@EEDEBOGK@ERROR?3?5File?5does?5not?5begin?5with@
??_C@_0L@BEPAEFPG@video?1H264@
??_C@_0L@NOLHELH@video?1H265@
??_GMatroskaFileParser@@UEAAPEAXI@Z
??_R0?AVMatroskaFileParser@@@8
??_R1A@?0A@EA@MatroskaFileParser@@8
??_R2MatroskaFileParser@@8
??_R3MatroskaFileParser@@8
??_R4MatroskaFileParser@@6B@
?continueParsing@MatroskaFileParser@@QEAAXXZ
?continueParsing@MatroskaFileParser@@SAXPEAXPEAEIUtimeval@@@Z
?deliverFrameBytes@MatroskaFileParser@@AEAAXXZ
?deliverFrameWithinBlock@MatroskaFileParser@@AEAA_NXZ
?durationImbalance@MatroskaDemuxedTrack@@AEAAAEAHXZ
?durationInMicroseconds@MatroskaDemuxedTrack@@AEAAAEAIXZ
?frameSize@MatroskaDemuxedTrack@@AEAAAEAIXZ
?getCommonFrameBytes@MatroskaFileParser@@AEAAXPEAVMatroskaTrack@@PEAEII@Z
?haveSubframes@MatroskaTrack@@QEBA_NXZ
?lookForNextBlock@MatroskaFileParser@@AEAAXXZ
?lookForNextTrack@MatroskaFileParser@@AEAAXXZ
?maxSize@MatroskaDemuxedTrack@@AEAAIXZ
?numTruncatedBytes@MatroskaDemuxedTrack@@AEAAAEAIXZ
?parse@MatroskaFileParser@@AEAA_NXZ
?parseBlock@MatroskaFileParser@@AEAAXXZ
?parseCues@MatroskaFileParser@@AEAA_NXZ
?parseEBMLIdAndSize@MatroskaFileParser@@AEAA_NAEAVEBMLId@@AEAVEBMLDataSize@@@Z
?parseEBMLNumber@MatroskaFileParser@@AEAA_NAEAVEBMLNumber@@@Z
?parseEBMLVal_binary@MatroskaFileParser@@AEAA_NAEAVEBMLDataSize@@AEAPEAE@Z
?parseEBMLVal_float@MatroskaFileParser@@AEAA_NAEAVEBMLDataSize@@AEAM@Z
?parseEBMLVal_string@MatroskaFileParser@@AEAA_NAEAVEBMLDataSize@@AEAPEAD@Z
?parseEBMLVal_unsigned64@MatroskaFileParser@@AEAA_NAEAVEBMLDataSize@@AEA_K@Z
?parseEBMLVal_unsigned@MatroskaFileParser@@AEAA_NAEAVEBMLDataSize@@AEAI@Z
?parseStartOfFile@MatroskaFileParser@@AEAA_NXZ
?parseTrack@MatroskaFileParser@@AEAA_NXZ
?presentationTime@MatroskaDemuxedTrack@@AEAAAEAUtimeval@@XZ
?prevPresentationTime@MatroskaDemuxedTrack@@AEAAAEAUtimeval@@XZ
?resetStateAfterSeeking@MatroskaFileParser@@AEAAXXZ
?restoreSavedParserState@MatroskaFileParser@@EEAAXXZ
?seekToEndOfFile@MatroskaFileParser@@AEAAXXZ
?seekToFilePosition@MatroskaFileParser@@AEAAX_K@Z
?seekToTime@MatroskaFileParser@@QEAAXAEAN@Z
?setParseState@MatroskaFileParser@@AEAAXXZ
?skipHeader@MatroskaFileParser@@AEAAXAEBVEBMLDataSize@@@Z
?skipRemainingHeaderBytes@MatroskaFileParser@@AEAAX_N@Z
?to@MatroskaDemuxedTrack@@AEAAPEAEXZ
??0CuePoint@@QEAA@N_KI@Z
??0Iterator@MatroskaTrackTable@@QEAA@AEAV1@@Z
??0MatroskaDemux@@IEAA@AEAVMatroskaFile@@@Z
??0MatroskaFile@@AEAA@AEAVUsageEnvironment@@PEBDP6AXPEAV0@PEAX@Z31@Z
??0MatroskaTrack@@QEAA@XZ
??0MatroskaTrackTable@@QEAA@XZ
??1CuePoint@@UEAA@XZ
??1Iterator@MatroskaTrackTable@@UEAA@XZ
??1MatroskaDemux@@MEAA@XZ
??1MatroskaFile@@EEAA@XZ
??1MatroskaTrack@@UEAA@XZ
??1MatroskaTrackTable@@UEAA@XZ
??_7CuePoint@@6B@
??_7Iterator@MatroskaTrackTable@@6B@
??_7MatroskaDemux@@6B@
??_7MatroskaFile@@6B@
??_7MatroskaTrack@@6B@
??_7MatroskaTrackTable@@6B@
??_C@_01LBDDMOBJ@?$FN@
??_C@_01OHGJGJJP@?$FL@
??_C@_07IFMDNEIJ@AAC?9hbr@
??_C@_0L@ODCAEFBF@?0?$CF?41f?$HL?$CFd?$HN?0@
??_GCuePoint@@UEAAPEAXI@Z
??_GIterator@MatroskaTrackTable@@UEAAPEAXI@Z
??_GMatroskaDemux@@MEAAPEAXI@Z
??_GMatroskaFile@@EEAAPEAXI@Z
??_GMatroskaTrack@@UEAAPEAXI@Z
??_GMatroskaTrackTable@@UEAAPEAXI@Z
??_R0?AVCuePoint@@@8
??_R0?AVIterator@MatroskaTrackTable@@@8
??_R0?AVMatroskaDemux@@@8
??_R0?AVMatroskaFile@@@8
??_R0?AVMatroskaTrack@@@8
??_R0?AVMatroskaTrackTable@@@8
??_R1A@?0A@EA@CuePoint@@8
??_R1A@?0A@EA@Iterator@MatroskaTrackTable@@8
??_R1A@?0A@EA@MatroskaDemux@@8
??_R1A@?0A@EA@MatroskaFile@@8
??_R1A@?0A@EA@MatroskaTrack@@8
??_R1A@?0A@EA@MatroskaTrackTable@@8
??_R2CuePoint@@8
??_R2Iterator@MatroskaTrackTable@@8
??_R2MatroskaDemux@@8
??_R2MatroskaFile@@8
??_R2MatroskaTrack@@8
??_R2MatroskaTrackTable@@8
??_R3CuePoint@@8
??_R3Iterator@MatroskaTrackTable@@8
??_R3MatroskaDemux@@8
??_R3MatroskaFile@@8
??_R3MatroskaTrack@@8
??_R3MatroskaTrackTable@@8
??_R4CuePoint@@6B@
??_R4Iterator@MatroskaTrackTable@@6B@
??_R4MatroskaDemux@@6B@
??_R4MatroskaFile@@6B@
??_R4MatroskaTrack@@6B@
??_R4MatroskaTrackTable@@6B@
?add@MatroskaTrackTable@@QEAAXPEAVMatroskaTrack@@I@Z
?addCuePoint@CuePoint@@SAXAEAPEAV1@N_KIAEA_N@Z
?addCuePoint@MatroskaFile@@AEAAXN_KI@Z
?addTrack@MatroskaFile@@AEAAXPEAVMatroskaTrack@@I@Z
?continueReading@MatroskaDemux@@AEAAXXZ
?createNew@MatroskaFile@@SAXAEAVUsageEnvironment@@PEBDP6AXPEAV1@PEAX@Z31@Z
?createRTPSinkForTrackNumber@MatroskaFile@@QEAAPEAVRTPSink@@IPEAVGroupsock@@E@Z
?createSourceForStreaming@MatroskaFile@@QEAAPEAVFramedSource@@PEAV2@IAEAI1@Z
?fileDuration@MatroskaFile@@QEAAMXZ
?fileName@MatroskaFile@@QEBAPEBDXZ
?fprintf@CuePoint@@SAXPEAU_iobuf@@PEAV1@@Z
?handleEndOfFile@MatroskaDemux@@AEAAXXZ
?handleEndOfFile@MatroskaDemux@@CAXPEAX@Z
?handleEndOfTrackHeaderParsing@MatroskaFile@@AEAAXXZ
?handleEndOfTrackHeaderParsing@MatroskaFile@@CAXPEAX@Z
?increaseMaxSizeTo@OutPacketBuffer@@SAXI@Z
?left@CuePoint@@AEBAPEAV1@XZ
?lookup@CuePoint@@QEAA_NAEANAEA_KAEAI@Z
?lookup@MatroskaFile@@QEBAPEAVMatroskaTrack@@I@Z
?lookup@MatroskaTrackTable@@QEAAPEAVMatroskaTrack@@I@Z
?lookupCuePoint@MatroskaFile@@AEAA_NAEANAEA_KAEAI@Z
?lookupDemuxedTrack@MatroskaDemux@@IEAAPEAVMatroskaDemuxedTrack@@I@Z
?newDemux@MatroskaFile@@QEAAPEAVMatroskaDemux@@XZ
?newDemuxedTrack@MatroskaDemux@@QEAAPEAVFramedSource@@AEAI@Z
?newDemuxedTrack@MatroskaDemux@@QEAAPEAVFramedSource@@XZ
?newDemuxedTrackByTrackNumber@MatroskaDemux@@QEAAPEAVFramedSource@@I@Z
?next@Iterator@MatroskaTrackTable@@QEAAPEAVMatroskaTrack@@XZ
?numTracks@MatroskaTrackTable@@QEBAIXZ
?printCuePoints@MatroskaFile@@AEAAXPEAU_iobuf@@@Z
?removeDemux@MatroskaFile@@AEAAXPEAVMatroskaDemux@@@Z
?removeTrack@MatroskaDemux@@AEAAXI@Z
?right@CuePoint@@AEBAPEAV1@XZ
?rotate@CuePoint@@CAXIAEAPEAV1@@Z
?seekToTime@MatroskaDemux@@AEAAXAEAN@Z
?segmentDuration@MatroskaFile@@QEAAMXZ
?timecodeScale@MatroskaFile@@QEAAIXZ
??0MatroskaDemuxedTrack@@AEAA@AEAVUsageEnvironment@@IAEAVMatroskaDemux@@@Z
??1MatroskaDemuxedTrack@@EEAA@XZ
??_7MatroskaDemuxedTrack@@6B@
??_GMatroskaDemuxedTrack@@EEAAPEAXI@Z
??_R0?AVMatroskaDemuxedTrack@@@8
??_R1A@?0A@EA@MatroskaDemuxedTrack@@8
??_R2MatroskaDemuxedTrack@@8
??_R3MatroskaDemuxedTrack@@8
??_R4MatroskaDemuxedTrack@@6B@
?MIMEtype@MatroskaDemuxedTrack@@EEBAPEBDXZ
?doGetNextFrame@MatroskaDemuxedTrack@@EEAAXXZ
?seekToTime@MatroskaDemuxedTrack@@QEAAXAEAN@Z
??0Locale@@QEAA@PEBDW4LocaleCategory@@@Z
??1Locale@@UEAA@XZ
??_7Locale@@6B@
??_GLocale@@UEAAPEAXI@Z
??_R0?AVLocale@@@8
??_R1A@?0A@EA@Locale@@8
??_R2Locale@@8
??_R3Locale@@8
??_R4Locale@@6B@
??0JPEGVideoSource@@IEAA@AEAVUsageEnvironment@@@Z
??1JPEGVideoSource@@MEAA@XZ
??_7JPEGVideoSource@@6B@
??_GJPEGVideoSource@@MEAAPEAXI@Z
??_R0?AVJPEGVideoSource@@@8
??_R1A@?0A@EA@JPEGVideoSource@@8
??_R2JPEGVideoSource@@8
??_R3JPEGVideoSource@@8
??_R4JPEGVideoSource@@6B@
?isJPEGVideoSource@JPEGVideoSource@@EEBA_NXZ
?quantizationTables@JPEGVideoSource@@UEAAPEBEAEAEAEAG@Z
?restartInterval@JPEGVideoSource@@UEAAGXZ
??0JPEGBufferedPacket@@QEAA@XZ
??0JPEGBufferedPacketFactory@@QEAA@XZ
??0JPEGVideoRTPSource@@AEAA@AEAVUsageEnvironment@@PEAVGroupsock@@EIII@Z
??1JPEGBufferedPacket@@UEAA@XZ
??1JPEGBufferedPacketFactory@@UEAA@XZ
??1JPEGVideoRTPSource@@MEAA@XZ
??_7JPEGBufferedPacket@@6B@
??_7JPEGBufferedPacketFactory@@6B@
??_7JPEGVideoRTPSource@@6B@
??_GJPEGBufferedPacket@@UEAAPEAXI@Z
??_GJPEGBufferedPacketFactory@@UEAAPEAXI@Z
??_GJPEGVideoRTPSource@@MEAAPEAXI@Z
??_R0?AVJPEGBufferedPacket@@@8
??_R0?AVJPEGBufferedPacketFactory@@@8
??_R0?AVJPEGVideoRTPSource@@@8
??_R1A@?0A@EA@JPEGBufferedPacket@@8
??_R1A@?0A@EA@JPEGBufferedPacketFactory@@8
??_R1A@?0A@EA@JPEGVideoRTPSource@@8
??_R2JPEGBufferedPacket@@8
??_R2JPEGBufferedPacketFactory@@8
??_R2JPEGVideoRTPSource@@8
??_R3JPEGBufferedPacket@@8
??_R3JPEGBufferedPacketFactory@@8
??_R3JPEGVideoRTPSource@@8
??_R4JPEGBufferedPacket@@6B@
??_R4JPEGBufferedPacketFactory@@6B@
??_R4JPEGVideoRTPSource@@6B@
?MIMEtype@JPEGVideoRTPSource@@EEBAPEBDXZ
?createNew@JPEGVideoRTPSource@@SAPEAV1@AEAVUsageEnvironment@@PEAVGroupsock@@EIII@Z
?createNewPacket@JPEGBufferedPacketFactory@@EEAAPEAVBufferedPacket@@PEAVMultiFramedRTPSource@@@Z
?nextEnclosedFrameSize@JPEGBufferedPacket@@EEAAIAEAPEAEI@Z
?processSpecialHeader@JPEGVideoRTPSource@@EEAA_NPEAVBufferedPacket@@AEAI@Z
?reset@JPEGBufferedPacket@@EEAAXXZ
??0JPEGVideoRTPSink@@IEAA@AEAVUsageEnvironment@@PEAVGroupsock@@@Z
??1JPEGVideoRTPSink@@MEAA@XZ
??_7JPEGVideoRTPSink@@6B@
??_GJPEGVideoRTPSink@@MEAAPEAXI@Z
??_R0?AVJPEGVideoRTPSink@@@8
??_R1A@?0A@EA@JPEGVideoRTPSink@@8
??_R2JPEGVideoRTPSink@@8
??_R3JPEGVideoRTPSink@@8
??_R4JPEGVideoRTPSink@@6B@
?createNew@JPEGVideoRTPSink@@SAPEAV1@AEAVUsageEnvironment@@PEAVGroupsock@@@Z
?doSpecialFrameHandling@JPEGVideoRTPSink@@EEAAXIPEAEIUtimeval@@I@Z
?frameCanAppearAfterPacketStart@JPEGVideoRTPSink@@EEBA_NPEBEI@Z
?sourceIsCompatibleWithUs@JPEGVideoRTPSink@@EEAA_NAEAVMediaSource@@@Z
?specialHeaderSize@JPEGVideoRTPSink@@EEBAIXZ
??_C@_02JDPG@rb@
??_C@_05MHOFLBOO@stdin@
?CloseInputFile@@YAXPEAU_iobuf@@@Z
?FileIsSeekable@@YA_NPEAU_iobuf@@@Z
?GetFileSize@@YA_KPEBDPEAU_iobuf@@@Z
?OpenInputFile@@YAPEAU_iobuf@@AEAVUsageEnvironment@@PEBD@Z
?SeekFile64@@YA_JPEAU_iobuf@@_JH@Z
?TellFile64@@YA_JPEAU_iobuf@@@Z
??0H265VideoStreamFramer@@IEAA@AEAVUsageEnvironment@@PEAVFramedSource@@_N2@Z
??1H265VideoStreamFramer@@MEAA@XZ
??_7H265VideoStreamFramer@@6B@
??_GH265VideoStreamFramer@@MEAAPEAXI@Z
??_R0?AVH264or5VideoStreamFramer@@@8
??_R0?AVH265VideoStreamFramer@@@8
??_R1A@?0A@EA@H264or5VideoStreamFramer@@8
??_R1A@?0A@EA@H265VideoStreamFramer@@8
??_R2H264or5VideoStreamFramer@@8
??_R2H265VideoStreamFramer@@8
??_R3H264or5VideoStreamFramer@@8
??_R3H265VideoStreamFramer@@8
??_R4H265VideoStreamFramer@@6B@
?createNew@H265VideoStreamFramer@@SAPEAV1@AEAVUsageEnvironment@@PEAVFramedSource@@_N@Z
?isH265VideoStreamFramer@H265VideoStreamFramer@@MEBA_NXZ
??0H265VideoStreamDiscreteFramer@@IEAA@AEAVUsageEnvironment@@PEAVFramedSource@@@Z
??1H265VideoStreamDiscreteFramer@@MEAA@XZ
??_7H265VideoStreamDiscreteFramer@@6B@
??_GH265VideoStreamDiscreteFramer@@MEAAPEAXI@Z
??_R0?AVH264or5VideoStreamDiscreteFramer@@@8
??_R0?AVH265VideoStreamDiscreteFramer@@@8
??_R1A@?0A@EA@H264or5VideoStreamDiscreteFramer@@8
??_R1A@?0A@EA@H265VideoStreamDiscreteFramer@@8
??_R2H264or5VideoStreamDiscreteFramer@@8
??_R2H265VideoStreamDiscreteFramer@@8
??_R3H264or5VideoStreamDiscreteFramer@@8
??_R3H265VideoStreamDiscreteFramer@@8
??_R4H265VideoStreamDiscreteFramer@@6B@
?createNew@H265VideoStreamDiscreteFramer@@SAPEAV1@AEAVUsageEnvironment@@PEAVFramedSource@@@Z
?isH265VideoStreamFramer@H265VideoStreamDiscreteFramer@@EEBA_NXZ
??0H265BufferedPacket@@QEAA@AEAVH265VideoRTPSource@@@Z
??0H265BufferedPacketFactory@@QEAA@XZ
??0H265VideoRTPSource@@IEAA@AEAVUsageEnvironment@@PEAVGroupsock@@E_NI@Z
??1H265BufferedPacket@@UEAA@XZ
??1H265BufferedPacketFactory@@UEAA@XZ
??1H265VideoRTPSource@@MEAA@XZ
??_7H265BufferedPacket@@6B@
??_7H265BufferedPacketFactory@@6B@
??_7H265VideoRTPSource@@6B@
??_GH265BufferedPacket@@UEAAPEAXI@Z
??_GH265BufferedPacketFactory@@UEAAPEAXI@Z
??_GH265VideoRTPSource@@MEAAPEAXI@Z
??_R0?AVH265BufferedPacket@@@8
??_R0?AVH265BufferedPacketFactory@@@8
??_R0?AVH265VideoRTPSource@@@8
??_R1A@?0A@EA@H265BufferedPacket@@8
??_R1A@?0A@EA@H265BufferedPacketFactory@@8
??_R1A@?0A@EA@H265VideoRTPSource@@8
??_R2H265BufferedPacket@@8
??_R2H265BufferedPacketFactory@@8
??_R2H265VideoRTPSource@@8
??_R3H265BufferedPacket@@8
??_R3H265BufferedPacketFactory@@8
??_R3H265VideoRTPSource@@8
??_R4H265BufferedPacket@@6B@
??_R4H265BufferedPacketFactory@@6B@
??_R4H265VideoRTPSource@@6B@
?MIMEtype@H265VideoRTPSource@@MEBAPEBDXZ
?computeAbsDonFromDON@H265VideoRTPSource@@AEAAXG@Z
?createNew@H265VideoRTPSource@@SAPEAV1@AEAVUsageEnvironment@@PEAVGroupsock@@E_NI@Z
?createNewPacket@H265BufferedPacketFactory@@EEAAPEAVBufferedPacket@@PEAVMultiFramedRTPSource@@@Z
?nextEnclosedFrameSize@H265BufferedPacket@@EEAAIAEAPEAEI@Z
?processSpecialHeader@H265VideoRTPSource@@MEAA_NPEAVBufferedPacket@@AEAI@Z
??0H265VideoRTPSink@@IEAA@AEAVUsageEnvironment@@PEAVGroupsock@@EPEBEI2I2I@Z
??1H265VideoRTPSink@@MEAA@XZ
??1SPropRecord@@QEAA@XZ
??_7H265VideoRTPSink@@6B@
??_C@_0BJ@GKGENCBH@?$CF02X?$CF02X?$CF02X?$CF02X?$CF02X?$CF02X@
??_C@_0IC@FPHIBIKO@a?$DNfmtp?3?$CFd?5profile?9space?$DN?$CFu?$DLprof@
??_ESPropRecord@@QEAAPEAXI@Z
??_GH265VideoRTPSink@@MEAAPEAXI@Z
??_R0?AVH264or5VideoRTPSink@@@8
??_R0?AVH265VideoRTPSink@@@8
??_R1A@?0A@EA@H264or5VideoRTPSink@@8
??_R1A@?0A@EA@H265VideoRTPSink@@8
??_R2H264or5VideoRTPSink@@8
??_R2H265VideoRTPSink@@8
??_R3H264or5VideoRTPSink@@8
??_R3H265VideoRTPSink@@8
??_R4H265VideoRTPSink@@6B@
?auxSDPLine@H265VideoRTPSink@@MEAAPEBDXZ
?createNew@H265VideoRTPSink@@SAPEAV1@AEAVUsageEnvironment@@PEAVGroupsock@@E@Z
?createNew@H265VideoRTPSink@@SAPEAV1@AEAVUsageEnvironment@@PEAVGroupsock@@EPEBD22@Z
?createNew@H265VideoRTPSink@@SAPEAV1@AEAVUsageEnvironment@@PEAVGroupsock@@EPEBEI2I2I@Z
?getVPSandSPSandPPS@H264or5VideoStreamFramer@@QEBAXAEAPEAEAEAI0101@Z
?sourceIsCompatibleWithUs@H265VideoRTPSink@@EEAA_NAEAVMediaSource@@@Z
??0H265VideoFileSink@@IEAA@AEAVUsageEnvironment@@PEAU_iobuf@@PEBD22I2@Z
??1H265VideoFileSink@@MEAA@XZ
??_7H265VideoFileSink@@6B@
??_GH265VideoFileSink@@MEAAPEAXI@Z
??_R0?AVH264or5VideoFileSink@@@8
??_R0?AVH265VideoFileSink@@@8
??_R1A@?0A@EA@H264or5VideoFileSink@@8
??_R1A@?0A@EA@H265VideoFileSink@@8
??_R2H264or5VideoFileSink@@8
??_R2H265VideoFileSink@@8
??_R3H264or5VideoFileSink@@8
??_R3H265VideoFileSink@@8
??_R4H265VideoFileSink@@6B@
?createNew@H265VideoFileSink@@SAPEAV1@AEAVUsageEnvironment@@PEBD111I_N@Z
??0H265VideoFileServerMediaSubsession@@IEAA@AEAVUsageEnvironment@@PEBD_N@Z
??1H265VideoFileServerMediaSubsession@@MEAA@XZ
??_7H265VideoFileServerMediaSubsession@@6B@
??_GH265VideoFileServerMediaSubsession@@MEAAPEAXI@Z
??_R0?AVH265VideoFileServerMediaSubsession@@@8
??_R1A@?0A@EA@H265VideoFileServerMediaSubsession@@8
??_R2H265VideoFileServerMediaSubsession@@8
??_R3H265VideoFileServerMediaSubsession@@8
??_R4H265VideoFileServerMediaSubsession@@6B@
?afterPlayingDummy1@H265VideoFileServerMediaSubsession@@QEAAXXZ
?checkForAuxSDPLine1@H265VideoFileServerMediaSubsession@@QEAAXXZ
?createNew@H265VideoFileServerMediaSubsession@@SAPEAV1@AEAVUsageEnvironment@@PEBD_N@Z
?createNewRTPSink@H265VideoFileServerMediaSubsession@@MEAAPEAVRTPSink@@PEAVGroupsock@@EPEAVFramedSource@@@Z
?createNewStreamSource@H265VideoFileServerMediaSubsession@@MEAAPEAVFramedSource@@IAEAI@Z
?getAuxSDPLine@H265VideoFileServerMediaSubsession@@MEAAPEBDPEAVRTPSink@@PEAVFramedSource@@@Z
?setDoneFlag@H265VideoFileServerMediaSubsession@@IEAAXXZ
??0H264VideoStreamFramer@@IEAA@AEAVUsageEnvironment@@PEAVFramedSource@@_N2@Z
??1H264VideoStreamFramer@@MEAA@XZ
??_7H264VideoStreamFramer@@6B@
??_GH264VideoStreamFramer@@MEAAPEAXI@Z
??_R0?AVH264VideoStreamFramer@@@8
??_R1A@?0A@EA@H264VideoStreamFramer@@8
??_R2H264VideoStreamFramer@@8
??_R3H264VideoStreamFramer@@8
??_R4H264VideoStreamFramer@@6B@
?createNew@H264VideoStreamFramer@@SAPEAV1@AEAVUsageEnvironment@@PEAVFramedSource@@_N@Z
?isH264VideoStreamFramer@H264VideoStreamFramer@@MEBA_NXZ
??0H264VideoStreamDiscreteFramer@@IEAA@AEAVUsageEnvironment@@PEAVFramedSource@@@Z
??1H264VideoStreamDiscreteFramer@@MEAA@XZ
??_7H264VideoStreamDiscreteFramer@@6B@
??_GH264VideoStreamDiscreteFramer@@MEAAPEAXI@Z
??_R0?AVH264VideoStreamDiscreteFramer@@@8
??_R1A@?0A@EA@H264VideoStreamDiscreteFramer@@8
??_R2H264VideoStreamDiscreteFramer@@8
??_R3H264VideoStreamDiscreteFramer@@8
??_R4H264VideoStreamDiscreteFramer@@6B@
?createNew@H264VideoStreamDiscreteFramer@@SAPEAV1@AEAVUsageEnvironment@@PEAVFramedSource@@@Z
?isH264VideoStreamFramer@H264VideoStreamDiscreteFramer@@EEBA_NXZ
??0H264BufferedPacket@@QEAA@AEAVH264VideoRTPSource@@@Z
??0H264BufferedPacketFactory@@QEAA@XZ
??0H264VideoRTPSource@@IEAA@AEAVUsageEnvironment@@PEAVGroupsock@@EI@Z
??1H264BufferedPacket@@UEAA@XZ
??1H264BufferedPacketFactory@@UEAA@XZ
??1H264VideoRTPSource@@MEAA@XZ
??_7H264BufferedPacket@@6B@
??_7H264BufferedPacketFactory@@6B@
??_7H264VideoRTPSource@@6B@
??_GH264BufferedPacket@@UEAAPEAXI@Z
??_GH264BufferedPacketFactory@@UEAAPEAXI@Z
??_GH264VideoRTPSource@@MEAAPEAXI@Z
??_R0?AVH264BufferedPacket@@@8
??_R0?AVH264BufferedPacketFactory@@@8
??_R0?AVH264VideoRTPSource@@@8
??_R1A@?0A@EA@H264BufferedPacket@@8
??_R1A@?0A@EA@H264BufferedPacketFactory@@8
??_R1A@?0A@EA@H264VideoRTPSource@@8
??_R2H264BufferedPacket@@8
??_R2H264BufferedPacketFactory@@8
??_R2H264VideoRTPSource@@8
??_R3H264BufferedPacket@@8
??_R3H264BufferedPacketFactory@@8
??_R3H264VideoRTPSource@@8
??_R4H264BufferedPacket@@6B@
??_R4H264BufferedPacketFactory@@6B@
??_R4H264VideoRTPSource@@6B@
?MIMEtype@H264VideoRTPSource@@MEBAPEBDXZ
?createNew@H264VideoRTPSource@@SAPEAV1@AEAVUsageEnvironment@@PEAVGroupsock@@EI@Z
?createNewPacket@H264BufferedPacketFactory@@EEAAPEAVBufferedPacket@@PEAVMultiFramedRTPSource@@@Z
?nextEnclosedFrameSize@H264BufferedPacket@@EEAAIAEAPEAEI@Z
?parseSPropParameterSets@@YAPEAVSPropRecord@@PEBDAEAI@Z
?processSpecialHeader@H264VideoRTPSource@@MEAA_NPEAVBufferedPacket@@AEAI@Z
??0H264VideoRTPSink@@IEAA@AEAVUsageEnvironment@@PEAVGroupsock@@EPEBEI2I@Z
??1H264VideoRTPSink@@MEAA@XZ
??_7H264VideoRTPSink@@6B@
??_C@_0FC@MIAAMIP@a?$DNfmtp?3?$CFd?5packetization?9mode?$DN1?$DL@
??_GH264VideoRTPSink@@MEAAPEAXI@Z
??_R0?AVH264VideoRTPSink@@@8
??_R1A@?0A@EA@H264VideoRTPSink@@8
??_R2H264VideoRTPSink@@8
??_R3H264VideoRTPSink@@8
??_R4H264VideoRTPSink@@6B@
?auxSDPLine@H264VideoRTPSink@@MEAAPEBDXZ
?createNew@H264VideoRTPSink@@SAPEAV1@AEAVUsageEnvironment@@PEAVGroupsock@@E@Z
?createNew@H264VideoRTPSink@@SAPEAV1@AEAVUsageEnvironment@@PEAVGroupsock@@EPEBD@Z
?createNew@H264VideoRTPSink@@SAPEAV1@AEAVUsageEnvironment@@PEAVGroupsock@@EPEBEI2I@Z
?sourceIsCompatibleWithUs@H264VideoRTPSink@@EEAA_NAEAVMediaSource@@@Z
??0H264VideoFileSink@@IEAA@AEAVUsageEnvironment@@PEAU_iobuf@@PEBDI2@Z
??1H264VideoFileSink@@MEAA@XZ
??_7H264VideoFileSink@@6B@
??_GH264VideoFileSink@@MEAAPEAXI@Z
??_R0?AVH264VideoFileSink@@@8
??_R1A@?0A@EA@H264VideoFileSink@@8
??_R2H264VideoFileSink@@8
??_R3H264VideoFileSink@@8
??_R4H264VideoFileSink@@6B@
?createNew@H264VideoFileSink@@SAPEAV1@AEAVUsageEnvironment@@PEBD1I_N@Z
??0H264VideoFileServerMediaSubsession@@IEAA@AEAVUsageEnvironment@@PEBD_N@Z
??1H264VideoFileServerMediaSubsession@@MEAA@XZ
??_7H264VideoFileServerMediaSubsession@@6B@
??_GH264VideoFileServerMediaSubsession@@MEAAPEAXI@Z
??_R0?AVH264VideoFileServerMediaSubsession@@@8
??_R1A@?0A@EA@H264VideoFileServerMediaSubsession@@8
??_R2H264VideoFileServerMediaSubsession@@8
??_R3H264VideoFileServerMediaSubsession@@8
??_R4H264VideoFileServerMediaSubsession@@6B@
?afterPlayingDummy1@H264VideoFileServerMediaSubsession@@QEAAXXZ
?checkForAuxSDPLine1@H264VideoFileServerMediaSubsession@@QEAAXXZ
?createNew@H264VideoFileServerMediaSubsession@@SAPEAV1@AEAVUsageEnvironment@@PEBD_N@Z
?createNewRTPSink@H264VideoFileServerMediaSubsession@@MEAAPEAVRTPSink@@PEAVGroupsock@@EPEAVFramedSource@@@Z
?createNewStreamSource@H264VideoFileServerMediaSubsession@@MEAAPEAVFramedSource@@IAEAI@Z
?getAuxSDPLine@H264VideoFileServerMediaSubsession@@MEAAPEBDPEAVRTPSink@@PEAVFramedSource@@@Z
?setDoneFlag@H264VideoFileServerMediaSubsession@@IEAAXXZ
??0H264or5VideoStreamFramer@@IEAA@HAEAVUsageEnvironment@@PEAVFramedSource@@_N2@Z
??0H264or5VideoStreamParser@@QEAA@HPEAVH264or5VideoStreamFramer@@PEAVFramedSource@@_N@Z
??1H264or5VideoStreamFramer@@MEAA@XZ
??1H264or5VideoStreamParser@@UEAA@XZ
??_7H264or5VideoStreamFramer@@6B@
??_7H264or5VideoStreamParser@@6B@
??_GH264or5VideoStreamFramer@@MEAAPEAXI@Z
??_GH264or5VideoStreamParser@@UEAAPEAXI@Z
??_R0?AVH264or5VideoStreamParser@@@8
??_R1A@?0A@EA@H264or5VideoStreamParser@@8
??_R2H264or5VideoStreamParser@@8
??_R3H264or5VideoStreamParser@@8
??_R4H264or5VideoStreamFramer@@6B@
??_R4H264or5VideoStreamParser@@6B@
?analyze_hrd_parameters@H264or5VideoStreamParser@@AEAAXAEAVBitVector@@@Z
?analyze_sei_data@H264or5VideoStreamParser@@AEAAXE@Z
?analyze_sei_payload@H264or5VideoStreamParser@@AEAAXIIPEAE@Z
?analyze_seq_parameter_set_data@H264or5VideoStreamParser@@AEAAXAEAI0@Z
?analyze_video_parameter_set_data@H264or5VideoStreamParser@@AEAAXAEAI0@Z
?analyze_vui_parameters@H264or5VideoStreamParser@@AEAAXAEAVBitVector@@AEAI1@Z
?flushInput@H264or5VideoStreamParser@@EEAAXXZ
?get1BitBoolean@BitVector@@QEAA_NXZ
?haveSeenEOF@StreamParser@@IEBA_NXZ
?isEOF@H264or5VideoStreamParser@@AEAA_NE@Z
?isPPS@H264or5VideoStreamFramer@@IEAA_NE@Z
?isPPS@H264or5VideoStreamParser@@AEAA_NE@Z
?isSEI@H264or5VideoStreamParser@@AEAA_NE@Z
?isSPS@H264or5VideoStreamFramer@@IEAA_NE@Z
?isSPS@H264or5VideoStreamParser@@AEAA_NE@Z
?isVCL@H264or5VideoStreamFramer@@IEAA_NE@Z
?isVCL@H264or5VideoStreamParser@@AEAA_NE@Z
?isVPS@H264or5VideoStreamFramer@@IEAA_NE@Z
?isVPS@H264or5VideoStreamParser@@AEAA_NE@Z
?parse@H264or5VideoStreamParser@@EEAAIXZ
?profile_tier_level@H264or5VideoStreamParser@@AEAAXAEAVBitVector@@I@Z
?removeEmulationBytes@H264or5VideoStreamParser@@AEAAXPEAEIAEAI@Z
?removeH264or5EmulationBytes@@YAIPEAEI0I@Z
?saveCopyOfPPS@H264or5VideoStreamFramer@@IEAAXPEAEI@Z
?saveCopyOfSPS@H264or5VideoStreamFramer@@IEAAXPEAEI@Z
?saveCopyOfVPS@H264or5VideoStreamFramer@@IEAAXPEAEI@Z
?setPresentationTime@H264or5VideoStreamFramer@@IEAAXXZ
?totNumValidBytes@StreamParser@@IEAAAEAIXZ
?usingSource@H264or5VideoStreamParser@@AEAAPEAVH264or5VideoStreamFramer@@XZ
?usuallyBeginsAccessUnit@H264or5VideoStreamParser@@AEAA_NE@Z
??0H264or5VideoStreamDiscreteFramer@@IEAA@HAEAVUsageEnvironment@@PEAVFramedSource@@@Z
??1H264or5VideoStreamDiscreteFramer@@MEAA@XZ
??_7H264or5VideoStreamDiscreteFramer@@6B@
??_C@_0EN@DPBMIPCI@H264or5VideoStreamDiscreteFrame@
??_GH264or5VideoStreamDiscreteFramer@@MEAAPEAXI@Z
??_R4H264or5VideoStreamDiscreteFramer@@6B@
?afterGettingFrame1@H264or5VideoStreamDiscreteFramer@@IEAAXIIUtimeval@@I@Z
?afterGettingFrame@H264or5VideoStreamDiscreteFramer@@KAXPEAXIIUtimeval@@I@Z
?doGetNextFrame@H264or5VideoStreamDiscreteFramer@@MEAAXXZ
?nalUnitEndsAccessUnit@H264or5VideoStreamDiscreteFramer@@MEAA_NE@Z
??0H264or5Fragmenter@@QEAA@HAEAVUsageEnvironment@@PEAVFramedSource@@II@Z
??0H264or5VideoRTPSink@@IEAA@HAEAVUsageEnvironment@@PEAVGroupsock@@EPEBEI2I2I@Z
??1H264or5Fragmenter@@UEAA@XZ
??1H264or5VideoRTPSink@@MEAA@XZ
??_7H264or5Fragmenter@@6B@
??_7H264or5VideoRTPSink@@6B@
??_C@_0BM@OCNIJCBG@?$CJ?5is?5smaller?5than?5expected?6@
??_C@_0DA@IJPANKBH@H264or5Fragmenter?3?3doGetNextFra@
??_GH264or5Fragmenter@@UEAAPEAXI@Z
??_GH264or5VideoRTPSink@@MEAAPEAXI@Z
??_R0?AVH264or5Fragmenter@@@8
??_R1A@?0A@EA@H264or5Fragmenter@@8
??_R2H264or5Fragmenter@@8
??_R3H264or5Fragmenter@@8
??_R4H264or5Fragmenter@@6B@
??_R4H264or5VideoRTPSink@@6B@
?afterGettingFrame1@H264or5Fragmenter@@AEAAXIIUtimeval@@I@Z
?afterGettingFrame@H264or5Fragmenter@@CAXPEAXIIUtimeval@@I@Z
?continuePlaying@H264or5VideoRTPSink@@EEAA_NXZ
?doGetNextFrame@H264or5Fragmenter@@EEAAXXZ
?doSpecialFrameHandling@H264or5VideoRTPSink@@EEAAXIPEAEIUtimeval@@I@Z
?doStopGettingFrames@H264or5Fragmenter@@EEAAXXZ
?frameCanAppearAfterPacketStart@H264or5VideoRTPSink@@EEBA_NPEBEI@Z
?lastFragmentCompletedNALUnit@H264or5Fragmenter@@QEBA_NXZ
?ourMaxPacketSize@MultiFramedRTPSink@@IEBAIXZ
?reset@H264or5Fragmenter@@AEAAXXZ
??0H264or5VideoFileSink@@IEAA@AEAVUsageEnvironment@@PEAU_iobuf@@IPEBD222@Z
??1H264or5VideoFileSink@@MEAA@XZ
??_7H264or5VideoFileSink@@6B@
??_GH264or5VideoFileSink@@MEAAPEAXI@Z
??_R4H264or5VideoFileSink@@6B@
?afterGettingFrame@H264or5VideoFileSink@@MEAAXIIUtimeval@@@Z
??0H263plusVideoStreamParser@@QEAA@PEAVH263plusVideoStreamFramer@@PEAVFramedSource@@@Z
??1H263plusVideoStreamParser@@UEAA@XZ
??_7H263plusVideoStreamParser@@6B@
??_C@_0BL@CNHFCGBN@?$CFs?3?5Buffer?5too?5small?5?$CI?$CFu?$CJ?6@
??_C@_0M@EOOGECHI@h263reader?3@
??_GH263plusVideoStreamParser@@UEAAPEAXI@Z
??_R0?AVH263plusVideoStreamParser@@@8
??_R1A@?0A@EA@H263plusVideoStreamParser@@8
??_R2H263plusVideoStreamParser@@8
??_R3H263plusVideoStreamParser@@8
??_R4H263plusVideoStreamParser@@6B@
?CalculateDuration@H263plusVideoStreamParser@@AEAA_KE@Z
?GetMaxBitrate@H263plusVideoStreamParser@@AEAAXPEAU_MaxBitrate_CTX@@IE@Z
?GetTRDifference@H263plusVideoStreamParser@@AEAAEEE@Z
?GetWidthAndHeight@H263plusVideoStreamParser@@AEAA_NEPEAG0@Z
?ParseShortHeader@H263plusVideoStreamParser@@AEAA_NPEAEPEAU_H263INFO@@@Z
?parse@H263plusVideoStreamParser@@QEAAIAEA_K@Z
?parseH263Frame@H263plusVideoStreamParser@@AEAAHXZ
?registerReadInterest@H263plusVideoStreamParser@@QEAAXPEAEI@Z
?restoreSavedParserState@H263plusVideoStreamParser@@EEAAXXZ
?setParseState@H263plusVideoStreamParser@@IEAAXXZ
??0H263plusVideoStreamFramer@@IEAA@AEAVUsageEnvironment@@PEAVFramedSource@@_N@Z
??1H263plusVideoStreamFramer@@MEAA@XZ
??_7H263plusVideoStreamFramer@@6B@
??_GH263plusVideoStreamFramer@@MEAAPEAXI@Z
??_R0?AVH263plusVideoStreamFramer@@@8
??_R1A@?0A@EA@H263plusVideoStreamFramer@@8
??_R2H263plusVideoStreamFramer@@8
??_R3H263plusVideoStreamFramer@@8
??_R4H263plusVideoStreamFramer@@6B@
?continueReadProcessing@H263plusVideoStreamFramer@@QEAAXXZ
?continueReadProcessing@H263plusVideoStreamFramer@@SAXPEAXPEAEIUtimeval@@@Z
?createNew@H263plusVideoStreamFramer@@SAPEAV1@AEAVUsageEnvironment@@PEAVFramedSource@@@Z
?doGetNextFrame@H263plusVideoStreamFramer@@EEAAXXZ
?isH263plusVideoStreamFramer@H263plusVideoStreamFramer@@EEBA_NXZ
??0H263plusVideoRTPSource@@AEAA@AEAVUsageEnvironment@@PEAVGroupsock@@EI@Z
??1H263plusVideoRTPSource@@MEAA@XZ
??_7H263plusVideoRTPSource@@6B@
??_C@_0BA@KDAGMFOI@video?1H263?91998@
??_GH263plusVideoRTPSource@@MEAAPEAXI@Z
??_R0?AVH263plusVideoRTPSource@@@8
??_R1A@?0A@EA@H263plusVideoRTPSource@@8
??_R2H263plusVideoRTPSource@@8
??_R3H263plusVideoRTPSource@@8
??_R4H263plusVideoRTPSource@@6B@
?MIMEtype@H263plusVideoRTPSource@@EEBAPEBDXZ
?createNew@H263plusVideoRTPSource@@SAPEAV1@AEAVUsageEnvironment@@PEAVGroupsock@@EI@Z
?processSpecialHeader@H263plusVideoRTPSource@@EEAA_NPEAVBufferedPacket@@AEAI@Z
??0H263plusVideoRTPSink@@IEAA@AEAVUsageEnvironment@@PEAVGroupsock@@EI@Z
??1H263plusVideoRTPSink@@MEAA@XZ
??_7H263plusVideoRTPSink@@6B@
??_C@_0EA@FNDHFENH@H263plusVideoRTPSink?3?3doSpecial@
??_C@_0FG@IPBBMJHO@H263plusVideoRTPSink?3?3doSpecial@
??_GH263plusVideoRTPSink@@MEAAPEAXI@Z
??_R0?AVH263plusVideoRTPSink@@@8
??_R1A@?0A@EA@H263plusVideoRTPSink@@8
??_R2H263plusVideoRTPSink@@8
??_R3H263plusVideoRTPSink@@8
??_R4H263plusVideoRTPSink@@6B@
?createNew@H263plusVideoRTPSink@@SAPEAV1@AEAVUsageEnvironment@@PEAVGroupsock@@EI@Z
?doSpecialFrameHandling@H263plusVideoRTPSink@@EEAAXIPEAEIUtimeval@@I@Z
?frameCanAppearAfterPacketStart@H263plusVideoRTPSink@@EEBA_NPEBEI@Z
?specialHeaderSize@H263plusVideoRTPSink@@EEBAIXZ
??0H263plusVideoFileServerMediaSubsession@@AEAA@AEAVUsageEnvironment@@PEBD_N@Z
??1H263plusVideoFileServerMediaSubsession@@EEAA@XZ
??_7H263plusVideoFileServerMediaSubsession@@6B@
??_GH263plusVideoFileServerMediaSubsession@@EEAAPEAXI@Z
??_R0?AVH263plusVideoFileServerMediaSubsession@@@8
??_R1A@?0A@EA@H263plusVideoFileServerMediaSubsession@@8
??_R2H263plusVideoFileServerMediaSubsession@@8
??_R3H263plusVideoFileServerMediaSubsession@@8
??_R4H263plusVideoFileServerMediaSubsession@@6B@
?createNew@H263plusVideoFileServerMediaSubsession@@SAPEAV1@AEAVUsageEnvironment@@PEBD_N@Z
?createNewRTPSink@H263plusVideoFileServerMediaSubsession@@EEAAPEAVRTPSink@@PEAVGroupsock@@EPEAVFramedSource@@@Z
?createNewStreamSource@H263plusVideoFileServerMediaSubsession@@EEAAPEAVFramedSource@@IAEAI@Z
??0H261VideoRTPSource@@AEAA@AEAVUsageEnvironment@@PEAVGroupsock@@EI@Z
??1H261VideoRTPSource@@MEAA@XZ
??_7H261VideoRTPSource@@6B@
??_C@_0L@GJIHLBLD@video?1H261@
??_GH261VideoRTPSource@@MEAAPEAXI@Z
??_R0?AVH261VideoRTPSource@@@8
??_R1A@?0A@EA@H261VideoRTPSource@@8
??_R2H261VideoRTPSource@@8
??_R3H261VideoRTPSource@@8
??_R4H261VideoRTPSource@@6B@
?MIMEtype@H261VideoRTPSource@@EEBAPEBDXZ
?createNew@H261VideoRTPSource@@SAPEAV1@AEAVUsageEnvironment@@PEAVGroupsock@@EI@Z
?processSpecialHeader@H261VideoRTPSource@@EEAA_NPEAVBufferedPacket@@AEAI@Z
??0GSMAudioRTPSink@@IEAA@AEAVUsageEnvironment@@PEAVGroupsock@@@Z
??1GSMAudioRTPSink@@MEAA@XZ
??_7GSMAudioRTPSink@@6B@
??_GGSMAudioRTPSink@@MEAAPEAXI@Z
??_R0?AVGSMAudioRTPSink@@@8
??_R1A@?0A@EA@GSMAudioRTPSink@@8
??_R2GSMAudioRTPSink@@8
??_R3GSMAudioRTPSink@@8
??_R4GSMAudioRTPSink@@6B@
?createNew@GSMAudioRTPSink@@SAPEAV1@AEAVUsageEnvironment@@PEAVGroupsock@@@Z
?frameCanAppearAfterPacketStart@GSMAudioRTPSink@@EEBA_NPEBEI@Z
??0ClientConnection@GenericMediaServer@@IEAA@AEAV1@HUsockaddr_in@@@Z
??0ClientSession@GenericMediaServer@@IEAA@AEAV1@I@Z
??0GenericMediaServer@@IEAA@AEAVUsageEnvironment@@HVPort@@I@Z
??0ServerMediaSessionIterator@GenericMediaServer@@QEAA@AEAV1@@Z
??0UserAuthenticationDatabase@@QEAA@PEBD_N@Z
??1ClientConnection@GenericMediaServer@@MEAA@XZ
??1ClientSession@GenericMediaServer@@MEAA@XZ
??1GenericMediaServer@@MEAA@XZ
??1ServerMediaSessionIterator@GenericMediaServer@@UEAA@XZ
??1UserAuthenticationDatabase@@UEAA@XZ
??_7ClientConnection@GenericMediaServer@@6B@
??_7ClientSession@GenericMediaServer@@6B@
??_7GenericMediaServer@@6B@
??_7ServerMediaSessionIterator@GenericMediaServer@@6B@
??_7UserAuthenticationDatabase@@6B@
??_C@_04JIMNDDED@?$CF08X@
??_C@_0BC@FABPIAKA@listen?$CI?$CJ?5failed?3?5@
??_C@_0BC@OGGPHING@accept?$CI?$CJ?5failed?3?5@
??_C@_0BI@MIIIJALP@LIVE555?5Streaming?5Media@
??_GClientConnection@GenericMediaServer@@MEAAPEAXI@Z
??_GClientSession@GenericMediaServer@@MEAAPEAXI@Z
??_GGenericMediaServer@@MEAAPEAXI@Z
??_GServerMediaSessionIterator@GenericMediaServer@@UEAAPEAXI@Z
??_GUserAuthenticationDatabase@@UEAAPEAXI@Z
??_R0?AVServerMediaSessionIterator@GenericMediaServer@@@8
??_R0?AVUserAuthenticationDatabase@@@8
??_R1A@?0A@EA@ServerMediaSessionIterator@GenericMediaServer@@8
??_R1A@?0A@EA@UserAuthenticationDatabase@@8
??_R2ServerMediaSessionIterator@GenericMediaServer@@8
??_R2UserAuthenticationDatabase@@8
??_R3ServerMediaSessionIterator@GenericMediaServer@@8
??_R3UserAuthenticationDatabase@@8
??_R4ClientConnection@GenericMediaServer@@6B@
??_R4ClientSession@GenericMediaServer@@6B@
??_R4GenericMediaServer@@6B@
??_R4ServerMediaSessionIterator@GenericMediaServer@@6B@
??_R4UserAuthenticationDatabase@@6B@
?addServerMediaSession@GenericMediaServer@@QEAAXPEAVServerMediaSession@@@Z
?addUserRecord@UserAuthenticationDatabase@@UEAAXPEBD0@Z
?cleanup@GenericMediaServer@@IEAAXXZ
?closeAllClientSessionsForServerMediaSession@GenericMediaServer@@QEAAXPEAVServerMediaSession@@@Z
?closeAllClientSessionsForServerMediaSession@GenericMediaServer@@QEAAXPEBD@Z
?closeSockets@ClientConnection@GenericMediaServer@@IEAAXXZ
?createNewClientSessionWithId@GenericMediaServer@@IEAAPEAVClientSession@1@XZ
?deleteServerMediaSession@GenericMediaServer@@QEAAXPEAVServerMediaSession@@@Z
?deleteServerMediaSession@GenericMediaServer@@QEAAXPEBD@Z
?envir@ClientSession@GenericMediaServer@@IEAAAEAVUsageEnvironment@@XZ
?incomingConnectionHandler@GenericMediaServer@@IEAAXXZ
?incomingConnectionHandler@GenericMediaServer@@KAXPEAXH@Z
?incomingConnectionHandlerOnSocket@GenericMediaServer@@IEAAXH@Z
?incomingRequestHandler@ClientConnection@GenericMediaServer@@IEAAXXZ
?incomingRequestHandler@ClientConnection@GenericMediaServer@@KAXPEAXH@Z
?livenessTimeoutTask@ClientSession@GenericMediaServer@@KAXPEAV12@@Z
?lookupClientSession@GenericMediaServer@@IEAAPEAVClientSession@1@I@Z
?lookupClientSession@GenericMediaServer@@IEAAPEAVClientSession@1@PEBD@Z
?lookupPassword@UserAuthenticationDatabase@@UEAAPEBDPEBD@Z
?lookupServerMediaSession@GenericMediaServer@@UEAAPEAVServerMediaSession@@PEBD_N@Z
?next@ServerMediaSessionIterator@GenericMediaServer@@QEAAPEAVServerMediaSession@@XZ
?noteClientLiveness@ClientSession@GenericMediaServer@@KAXPEAV12@@Z
?noteLiveness@ClientSession@GenericMediaServer@@IEAAXXZ
?removeServerMediaSession@GenericMediaServer@@QEAAXPEAVServerMediaSession@@@Z
?removeServerMediaSession@GenericMediaServer@@QEAAXPEBD@Z
?removeUserRecord@UserAuthenticationDatabase@@UEAAXPEBD@Z
?resetRequestBuffer@ClientConnection@GenericMediaServer@@IEAAXXZ
?setUpOurSocket@GenericMediaServer@@KAHAEAVUsageEnvironment@@AEAVPort@@@Z
??0FramedSource@@IEAA@AEAVUsageEnvironment@@@Z
??1FramedSource@@MEAA@XZ
??_7FramedSource@@6B@
??_C@_0BI@FJPBPBFO@?5is?5not?5a?5framed?5source@
??_C@_0EI@GPHCBOMB@?$FN?3?3getNextFrame?$CI?$CJ?3?5attempting?5t@
??_C@_0O@BDALCFDJ@FramedSource?$FL@
??_GFramedSource@@MEAAPEAXI@Z
??_R4FramedSource@@6B@
?afterGetting@FramedSource@@SAXPEAV1@@Z
?doStopGettingFrames@FramedSource@@MEAAXXZ
?getNextFrame@FramedSource@@QEAAXPEAEIP6AXPEAXIIUtimeval@@I@Z1P6AX1@Z1@Z
?handleClosure@FramedSource@@QEAAXXZ
?handleClosure@FramedSource@@SAXPEAX@Z
?isFramedSource@FramedSource@@EEBA_NXZ
?lookupByName@FramedSource@@SA_NAEAVUsageEnvironment@@PEBDAEAPEAV1@@Z
?maxFrameSize@FramedSource@@UEBAIXZ
?stopGettingFrames@FramedSource@@QEAAXXZ
??0FramedFilter@@IEAA@AEAVUsageEnvironment@@PEAVFramedSource@@@Z
??1FramedFilter@@MEAA@XZ
??_7FramedFilter@@6B@
??_GFramedFilter@@MEAAPEAXI@Z
??_R4FramedFilter@@6B@
?MIMEtype@FramedFilter@@MEBAPEBDXZ
?detachInputSource@FramedFilter@@QEAAXXZ
?doStopGettingFrames@FramedFilter@@MEAAXXZ
?getAttributes@FramedFilter@@MEBAXXZ
??0FramedFileSource@@IEAA@AEAVUsageEnvironment@@PEAU_iobuf@@@Z
??1FramedFileSource@@MEAA@XZ
??_7FramedFileSource@@6B@
??_GFramedFileSource@@MEAAPEAXI@Z
??_R4FramedFileSource@@6B@
??0FileSink@@IEAA@AEAVUsageEnvironment@@PEAU_iobuf@@IPEBD@Z
??1FileSink@@MEAA@XZ
??_7FileSink@@6B@
??_C@_0BA@LIPPGEBG@?$CFs?9?$CFlu?4?$CF06lu?9?$CFu@
??_C@_0FI@CFKKCNMH@FileSink?3?3afterGettingFrame?$CI?$CJ?3?5@
??_C@_0ID@IGNNOIDB@?5bytes?5of?5trailing?5data?5was?5dro@
??_C@_0N@BIJCIDNH@?$CFs?9?$CFlu?4?$CF06lu@
??_GFileSink@@MEAAPEAXI@Z
??_R4FileSink@@6B@
?addData@FileSink@@UEAAXPEBEIUtimeval@@@Z
?afterGettingFrame@FileSink@@KAXPEAXIIUtimeval@@I@Z
?afterGettingFrame@FileSink@@MEAAXIIUtimeval@@@Z
?continuePlaying@FileSink@@MEAA_NXZ
?createNew@FileSink@@SAPEAV1@AEAVUsageEnvironment@@PEBDI_N@Z
??0FileServerMediaSubsession@@IEAA@AEAVUsageEnvironment@@PEBD_N@Z
??1FileServerMediaSubsession@@MEAA@XZ
??_7FileServerMediaSubsession@@6B@
??_GFileServerMediaSubsession@@MEAAPEAXI@Z
??_R4FileServerMediaSubsession@@6B@
??0EBMLDataSize@@QEAA@XZ
??0EBMLId@@QEAA@XZ
??0EBMLNumber@@QEAA@_N@Z
??1EBMLDataSize@@UEAA@XZ
??1EBMLId@@UEAA@XZ
??1EBMLNumber@@UEAA@XZ
??_7EBMLDataSize@@6B@
??_7EBMLId@@6B@
??_7EBMLNumber@@6B@
??_C@_04DAGBFJCL@Cues@
??_C@_04DOFOAGBP@Tags@
??_C@_04FABLJDN@Name@
??_C@_04ICIDABGP@Seek@
??_C@_04KLFMILNA@Void@
??_C@_04LMFNFBPH@EBML@
??_C@_05PABKJLOM@Title@
??_C@_05PPLCEPDH@Block@
??_C@_06DOLCEJAL@Tracks@
??_C@_06NAGALMFL@CRC?932@
??_C@_07CDAMOABA@Cluster@
??_C@_07GFENPMDE@Seek?5ID@
??_C@_07OJELGGAG@Segment@
??_C@_08BENDAOKD@Language@
??_C@_08BHEDDLAA@Cue?5Time@
??_C@_08EFBMAOHG@Codec?5ID@
??_C@_08GAPGMKKF@TimeCode@
??_C@_08GCJNLIKG@Position@
??_C@_08INPNJAIK@Channels@
??_C@_08LJLJHOOO@File?5UID@
??_C@_09BKKLLFMO@File?5Name@
??_C@_09CHIAPAJE@File?5Data@
??_C@_09GALPLPPG@Track?5UID@
??_C@_09GCELMGNC@Seek?5Head@
??_C@_09MBKFOAOF@Bit?5Depth@
??_C@_09NHGONMNL@Min?5Cache@
??_C@_09NMKCDAMJ@Cue?5Point@
??_C@_09NPHFJEMO@Cue?5Track@
??_C@_0BA@ICOBCOOG@Flag?5Interlaced@
??_C@_0BA@OPMMCFIM@Reference?5Block@
??_C@_0BB@FAABCCMF@Content?5Encoding@
??_C@_0BB@HAJMFMBP@Segment?5Duration@
??_C@_0BB@IMGNMLKJ@Default?5Duration@
??_C@_0BB@JEAFCMKA@Codec?5Decode?5All@
??_C@_0BB@ODFIHENL@Cue?5Block?5Number@
??_C@_0BB@PHBFIKPG@File?5Description@
??_C@_0BC@EEGAGFPP@?$CK?$CK?$CK?$CK?$CKunknown?$CK?$CK?$CK?$CK?$CK@
??_C@_0BC@OPEMBNCI@Content?5Encodings@
??_C@_0BD@JPABKEDC@Sampling?5Frequency@
??_C@_0BD@NEPJIKGN@Content?5Encryption@
??_C@_0BE@KNFFOFBM@Content?5Compression@
??_C@_0BE@OJBIGIHG@Cue?5Track?5Positions@
??_C@_0BF@JIIOIJHC@Track?5Timecode?5Scale@
??_C@_0BF@LGKCPFGO@Cue?5Cluster?5Position@
??_C@_0BG@OLBEEOME@Max?5Block?5Addition?5ID@
??_C@_0BK@OGKKJONB@Output?5Sampling?5Frequency@
??_C@_0BN@EHOHFHIP@Content?5Compression?5Settings@
??_C@_0BO@DMOIOPNG@Content?5Compression?5Algorithm@
??_C@_0L@EKMEIHNK@Muxing?5App@
??_C@_0L@FPMMLNMN@Date?5?$CIUTC?$CJ@
??_C@_0L@ICOOKCGP@Prev?4?5Size@
??_C@_0L@KCBNOLCJ@Track?5Type@
??_C@_0L@NLOHNNFL@CodecDelay@
??_C@_0L@ODJEPCOG@Codec?5Name@
??_C@_0M@DAKMPPDG@Track?5Entry@
??_C@_0M@EOKBKDKG@Flag?5Lacing@
??_C@_0M@FKDLHIJB@Attachments@
??_C@_0M@HCEBGOHC@Writing?5App@
??_C@_0M@HFCGMIIG@Segment?5UID@
??_C@_0M@IKINMOIO@Block?5Group@
??_C@_0M@MFJOHPOM@Flag?5Forced@
??_C@_0M@NIEPJKGH@SeekPreRoll@
??_C@_0M@NPKJJCBJ@SimpleBlock@
??_C@_0M@OHGKCKMK@Pixel?5Width@
??_C@_0N@EEPIOOOA@Flag?5Enabled@
??_C@_0N@EFPHAIDP@Segment?5Info@
??_C@_0N@FGNIGLDO@Display?5Unit@
??_C@_0N@GMGNONOK@Pixel?5Height@
??_C@_0N@JBEAHMMI@Track?5Number@
??_C@_0N@LIPCMBCH@Flag?5Default@
??_C@_0O@DHLJLNJF@Codec?5Private@
??_C@_0O@GBJBIBKJ@Display?5Width@
??_C@_0O@JBMAFLHA@Seek?5Position@
??_C@_0O@MLEGJCMI@Attached?5File@
??_C@_0P@GNCPBEKD@File?5MIME?5Type@
??_C@_0P@ILIGGPHP@Block?5Duration@
??_C@_0P@JBPHMFA@Video?5Settings@
??_C@_0P@JPDBAMMF@Audio?5Settings@
??_C@_0P@LIFACGKD@Display?5Height@
??_C@_0P@MGNKAODD@Timecode?5Scale@
??_C@_0P@NJFAHLLN@DiscardPadding@
??_GEBMLDataSize@@UEAAPEAXI@Z
??_GEBMLId@@UEAAPEAXI@Z
??_GEBMLNumber@@UEAAPEAXI@Z
??_R0?AVEBMLDataSize@@@8
??_R0?AVEBMLId@@@8
??_R0?AVEBMLNumber@@@8
??_R1A@?0A@EA@EBMLDataSize@@8
??_R1A@?0A@EA@EBMLId@@8
??_R1A@?0A@EA@EBMLNumber@@8
??_R2EBMLDataSize@@8
??_R2EBMLId@@8
??_R2EBMLNumber@@8
??_R3EBMLDataSize@@8
??_R3EBMLId@@8
??_R3EBMLNumber@@8
??_R4EBMLDataSize@@6B@
??_R4EBMLId@@6B@
??_R4EBMLNumber@@6B@
?hexString@EBMLNumber@@QEBAPEADXZ
?stringName@EBMLId@@QEBAPEBDXZ
?val@EBMLNumber@@QEBA_KXZ
??0DVVideoStreamFramer@@IEAA@AEAVUsageEnvironment@@PEAVFramedSource@@_N2@Z
??1DVVideoStreamFramer@@MEAA@XZ
??_7DVVideoStreamFramer@@6B@
??_C@_0N@GHCEFEHF@370M?1720?960p@
??_C@_0N@HFJBPLJL@370M?1720?950p@
??_C@_0O@FDIOJMMI@SD?9VCR?1625?950@
??_C@_0O@GACADIAM@SD?9VCR?1525?960@
??_C@_0O@GLGOCEFD@370M?11080?960i@
??_C@_0O@HJNLILLN@370M?11080?950i@
??_C@_0P@BAEGFLMG@314M?950?1525?960@
??_C@_0P@CDOIPPAC@314M?950?1625?950@
??_C@_0P@ILKDKBDE@314M?925?1625?950@
??_C@_0P@LIANAFPA@314M?925?1525?960@
??_GDVVideoStreamFramer@@MEAAPEAXI@Z
??_R0?AVDVVideoStreamFramer@@@8
??_R1A@?0A@EA@DVVideoStreamFramer@@8
??_R2DVVideoStreamFramer@@8
??_R3DVVideoStreamFramer@@8
??_R4DVVideoStreamFramer@@6B@
?afterGettingFrame@DVVideoStreamFramer@@IEAAXIIUtimeval@@@Z
?afterGettingFrame@DVVideoStreamFramer@@KAXPEAXIIUtimeval@@I@Z
?createNew@DVVideoStreamFramer@@SAPEAV1@AEAVUsageEnvironment@@PEAVFramedSource@@_N2@Z
?doGetNextFrame@DVVideoStreamFramer@@MEAAXXZ
?getAndDeliverData@DVVideoStreamFramer@@IEAAXXZ
?getFrameParameters@DVVideoStreamFramer@@QEAA_NAEAIAEAN@Z
?getProfile@DVVideoStreamFramer@@IEAAXXZ
?isDVVideoStreamFramer@DVVideoStreamFramer@@MEBA_NXZ
?profileName@DVVideoStreamFramer@@QEAAPEBDXZ
??0DVVideoRTPSource@@AEAA@AEAVUsageEnvironment@@PEAVGroupsock@@EI@Z
??1DVVideoRTPSource@@MEAA@XZ
??_7DVVideoRTPSource@@6B@
??_C@_08KGKJMLL@video?1DV@
??_GDVVideoRTPSource@@MEAAPEAXI@Z
??_R0?AVDVVideoRTPSource@@@8
??_R1A@?0A@EA@DVVideoRTPSource@@8
??_R2DVVideoRTPSource@@8
??_R3DVVideoRTPSource@@8
??_R4DVVideoRTPSource@@6B@
?MIMEtype@DVVideoRTPSource@@EEBAPEBDXZ
?createNew@DVVideoRTPSource@@SAPEAV1@AEAVUsageEnvironment@@PEAVGroupsock@@EI@Z
?processSpecialHeader@DVVideoRTPSource@@EEAA_NPEAVBufferedPacket@@AEAI@Z
??0DVVideoRTPSink@@IEAA@AEAVUsageEnvironment@@PEAVGroupsock@@E@Z
??1DVVideoRTPSink@@MEAA@XZ
??_7DVVideoRTPSink@@6B@
??_C@_0CE@NECGLJDE@a?$DNfmtp?3?$CFd?5encode?$DN?$CFs?$DLaudio?$DNbundl@
??_GDVVideoRTPSink@@MEAAPEAXI@Z
??_R0?AVDVVideoRTPSink@@@8
??_R1A@?0A@EA@DVVideoRTPSink@@8
??_R2DVVideoRTPSink@@8
??_R3DVVideoRTPSink@@8
??_R4DVVideoRTPSink@@6B@
?auxSDPLine@DVVideoRTPSink@@EEAAPEBDXZ
?auxSDPLineFromFramer@DVVideoRTPSink@@QEAAPEBDPEAVDVVideoStreamFramer@@@Z
?computeOverflowForNewFrame@DVVideoRTPSink@@EEBAII@Z
?createNew@DVVideoRTPSink@@SAPEAV1@AEAVUsageEnvironment@@PEAVGroupsock@@E@Z
?doSpecialFrameHandling@DVVideoRTPSink@@EEAAXIPEAEIUtimeval@@I@Z
?sourceIsCompatibleWithUs@DVVideoRTPSink@@EEAA_NAEAVMediaSource@@@Z
??0DVVideoFileServerMediaSubsession@@AEAA@AEAVUsageEnvironment@@PEBD_N@Z
??1DVVideoFileServerMediaSubsession@@EEAA@XZ
??_7DVVideoFileServerMediaSubsession@@6B@
??_GDVVideoFileServerMediaSubsession@@EEAAPEAXI@Z
??_R0?AVDVVideoFileServerMediaSubsession@@@8
??_R1A@?0A@EA@DVVideoFileServerMediaSubsession@@8
??_R2DVVideoFileServerMediaSubsession@@8
??_R3DVVideoFileServerMediaSubsession@@8
??_R4DVVideoFileServerMediaSubsession@@6B@
?createNew@DVVideoFileServerMediaSubsession@@SAPEAV1@AEAVUsageEnvironment@@PEBD_N@Z
?createNewRTPSink@DVVideoFileServerMediaSubsession@@EEAAPEAVRTPSink@@PEAVGroupsock@@EPEAVFramedSource@@@Z
?createNewStreamSource@DVVideoFileServerMediaSubsession@@EEAAPEAVFramedSource@@IAEAI@Z
?duration@DVVideoFileServerMediaSubsession@@EEBAMXZ
?getAuxSDPLine@DVVideoFileServerMediaSubsession@@EEAAPEBDPEAVRTPSink@@PEAVFramedSource@@@Z
?seekStreamSource@DVVideoFileServerMediaSubsession@@EEAAXPEAVFramedSource@@AEANNAEA_K@Z
?setStreamSourceDuration@DVVideoFileServerMediaSubsession@@EEAAXPEAVFramedSource@@NAEA_K@Z
??0Authenticator@@QEAA@AEBV0@@Z
??0Authenticator@@QEAA@PEBD0_N@Z
??0Authenticator@@QEAA@XZ
??1Authenticator@@UEAA@XZ
??4Authenticator@@QEAAAEAV0@AEBV0@@Z
??MAuthenticator@@QEAA_NPEBV0@@Z
??_7Authenticator@@6B@
??_C@_08LDENPILD@?$CFs?3?$CFs?3?$CFs@
??_GAuthenticator@@UEAAPEAXI@Z
??_R0?AVAuthenticator@@@8
??_R1A@?0A@EA@Authenticator@@8
??_R2Authenticator@@8
??_R3Authenticator@@8
??_R4Authenticator@@6B@
?assign@Authenticator@@AEAAXPEBD000_N@Z
?assignRealmAndNonce@Authenticator@@AEAAXPEBD0@Z
?assignUsernameAndPassword@Authenticator@@AEAAXPEBD0_N@Z
?computeDigestResponse@Authenticator@@QEBAPEBDPEBD0@Z
?reclaimDigestResponse@Authenticator@@QEBAXPEBD@Z
?reset@Authenticator@@QEAAXXZ
?resetRealmAndNonce@Authenticator@@AEAAXXZ
?resetUsernameAndPassword@Authenticator@@AEAAXXZ
?setRealmAndNonce@Authenticator@@QEAAXPEBD0@Z
?setRealmAndRandomNonce@Authenticator@@QEAAXPEBD@Z
?setUsernameAndPassword@Authenticator@@QEAAXPEBD0_N@Z
??0DeviceSource@@IEAA@AEAVUsageEnvironment@@VDeviceParameters@@@Z
??1DeviceSource@@MEAA@XZ
??_7DeviceSource@@6B@
??_GDeviceSource@@MEAAPEAXI@Z
??_R0?AVDeviceSource@@@8
??_R1A@?0A@EA@DeviceSource@@8
??_R2DeviceSource@@8
??_R3DeviceSource@@8
??_R4DeviceSource@@6B@
?createNew@DeviceSource@@SAPEAV1@AEAVUsageEnvironment@@VDeviceParameters@@@Z
?deliverFrame0@DeviceSource@@CAXPEAX@Z
?deliverFrame@DeviceSource@@AEAAXXZ
?doGetNextFrame@DeviceSource@@EEAAXXZ
?eventTriggerId@DeviceSource@@2IA
?referenceCount@DeviceSource@@0IA
?signalNewFrameData@@YAXXZ
??0ByteStreamMultiFileSource@@IEAA@AEAVUsageEnvironment@@PEAPEBDII@Z
??1ByteStreamMultiFileSource@@MEAA@XZ
??_7ByteStreamMultiFileSource@@6B@
??_GByteStreamMultiFileSource@@MEAAPEAXI@Z
??_R0?AVByteStreamMultiFileSource@@@8
??_R1A@?0A@EA@ByteStreamMultiFileSource@@8
??_R2ByteStreamMultiFileSource@@8
??_R3ByteStreamMultiFileSource@@8
??_R4ByteStreamMultiFileSource@@6B@
?afterGettingFrame@ByteStreamMultiFileSource@@CAXPEAXIIUtimeval@@I@Z
?createNew@ByteStreamMultiFileSource@@SAPEAV1@AEAVUsageEnvironment@@PEAPEBDII@Z
?doGetNextFrame@ByteStreamMultiFileSource@@EEAAXXZ
?onSourceClosure1@ByteStreamMultiFileSource@@AEAAXXZ
?onSourceClosure@ByteStreamMultiFileSource@@CAXPEAX@Z
??0ByteStreamMemoryBufferSource@@IEAA@AEAVUsageEnvironment@@PEAE_K_NII@Z
??1ByteStreamMemoryBufferSource@@MEAA@XZ
??_7ByteStreamMemoryBufferSource@@6B@
??_GByteStreamMemoryBufferSource@@MEAAPEAXI@Z
??_R0?AVByteStreamMemoryBufferSource@@@8
??_R1A@?0A@EA@ByteStreamMemoryBufferSource@@8
??_R2ByteStreamMemoryBufferSource@@8
??_R3ByteStreamMemoryBufferSource@@8
??_R4ByteStreamMemoryBufferSource@@6B@
?createNew@ByteStreamMemoryBufferSource@@SAPEAV1@AEAVUsageEnvironment@@PEAE_K_NII@Z
?doGetNextFrame@ByteStreamMemoryBufferSource@@EEAAXXZ
?seekToByteAbsolute@ByteStreamMemoryBufferSource@@QEAAX_K0@Z
?seekToByteRelative@ByteStreamMemoryBufferSource@@QEAAX_J_K@Z
??0ByteStreamFileSource@@IEAA@AEAVUsageEnvironment@@PEAU_iobuf@@II@Z
??1ByteStreamFileSource@@MEAA@XZ
??_7ByteStreamFileSource@@6B@
??_GByteStreamFileSource@@MEAAPEAXI@Z
??_R0?AVByteStreamFileSource@@@8
??_R1A@?0A@EA@ByteStreamFileSource@@8
??_R2ByteStreamFileSource@@8
??_R3ByteStreamFileSource@@8
??_R4ByteStreamFileSource@@6B@
?createNew@ByteStreamFileSource@@SAPEAV1@AEAVUsageEnvironment@@PEAU_iobuf@@II@Z
?createNew@ByteStreamFileSource@@SAPEAV1@AEAVUsageEnvironment@@PEBDII@Z
?doGetNextFrame@ByteStreamFileSource@@EEAAXXZ
?doReadFromFile@ByteStreamFileSource@@IEAAXXZ
?doStopGettingFrames@ByteStreamFileSource@@EEAAXXZ
?fileReadableHandler@ByteStreamFileSource@@KAXPEAV1@H@Z
?seekToByteAbsolute@ByteStreamFileSource@@QEAAX_K0@Z
?seekToByteRelative@ByteStreamFileSource@@QEAAX_J_K@Z
?seekToEnd@ByteStreamFileSource@@QEAAXXZ
??0BitVector@@QEAA@PEAEII@Z
?get1Bit@BitVector@@QEAAIXZ
?getBits@BitVector@@QEAAII@Z
?get_expGolomb@BitVector@@QEAAIXZ
?put1Bit@BitVector@@QEAAXI@Z
?putBits@BitVector@@QEAAXII@Z
?setup@BitVector@@QEAAXPEAEII@Z
?shiftBits@@YAXPEAEIPEBEII@Z
?skipBits@BitVector@@QEAAXI@Z
??0BasicUDPSource@@AEAA@AEAVUsageEnvironment@@PEAVGroupsock@@@Z
??1BasicUDPSource@@UEAA@XZ
??_7BasicUDPSource@@6B@
??_GBasicUDPSource@@UEAAPEAXI@Z
??_R0?AVBasicUDPSource@@@8
??_R1A@?0A@EA@BasicUDPSource@@8
??_R2BasicUDPSource@@8
??_R3BasicUDPSource@@8
??_R4BasicUDPSource@@6B@
?createNew@BasicUDPSource@@SAPEAV1@AEAVUsageEnvironment@@PEAVGroupsock@@@Z
?doGetNextFrame@BasicUDPSource@@EEAAXXZ
?doStopGettingFrames@BasicUDPSource@@EEAAXXZ
?incomingPacketHandler1@BasicUDPSource@@AEAAXXZ
?incomingPacketHandler@BasicUDPSource@@CAXPEAV1@H@Z
??0BasicUDPSink@@IEAA@AEAVUsageEnvironment@@PEAVGroupsock@@I@Z
??1BasicUDPSink@@MEAA@XZ
??_7BasicUDPSink@@6B@
??_C@_0CG@MFOLFCPE@?5bytes?5of?5trailing?5data?5was?5dro@
??_C@_0GP@LBMLGMNJ@BasicUDPSink?3?3afterGettingFrame@
??_GBasicUDPSink@@MEAAPEAXI@Z
??_R0?AVBasicUDPSink@@@8
??_R1A@?0A@EA@BasicUDPSink@@8
??_R2BasicUDPSink@@8
??_R3BasicUDPSink@@8
??_R4BasicUDPSink@@6B@
?afterGettingFrame1@BasicUDPSink@@AEAAXIII@Z
?afterGettingFrame@BasicUDPSink@@CAXPEAXIIUtimeval@@I@Z
?continuePlaying1@BasicUDPSink@@AEAAXXZ
?continuePlaying@BasicUDPSink@@EEAA_NXZ
?createNew@BasicUDPSink@@SAPEAV1@AEAVUsageEnvironment@@PEAVGroupsock@@I@Z
?sendNext@BasicUDPSink@@CAXPEAX@Z
?base64Decode@@YAPEAEPEBDAEAI_N@Z
?base64Decode@@YAPEAEPEBDIAEAI_N@Z
?base64Encode@@YAPEADPEBDI@Z
??0AVIFileSink@@AEAA@AEAVUsageEnvironment@@AEAVMediaSession@@PEBDIGGI_N@Z
??0AVIIndexRecord@@QEAA@IIII@Z
??0AVISubsessionIOState@@QEAA@AEAVAVIFileSink@@AEAVMediaSubsession@@@Z
??1AVIFileSink@@EEAA@XZ
??1AVISubsessionIOState@@UEAA@XZ
??_7AVIFileSink@@6B@
??_7AVISubsessionIOState@@6B@
??_C@_03LEJJLJPF@AVI@
??_C@_04BPLMPEPC@odml@
??_C@_04DJPJLIFP@avih@
??_C@_04ECKNOMMN@vids@
??_C@_04EPCGJKAP@RIFF@
??_C@_04HAMKCFFK@dmlh@
??_C@_04HCANFCJ@strf@
??_C@_04IFAEEDNA@idx1@
??_C@_04IKKCEPHI@auds@
??_C@_04JJKDPIKH@strh@
??_C@_04LKOGMMKP@hdrl@
??_C@_04LOMEIBJO@JUNK@
??_C@_04NPHJJIEH@movi@
??_C@_04PCOPKCKE@LIST@
??_C@_04PNMPDNKD@strl@
??_C@_0DA@JNLKIAM@AVIFileSink?3?3setWord?$CI?$CJ?3?5SeekFil@
??_C@_0FH@ENHGMIOP@AVIFileSink?3?3afterGettingFrame?$CI@
??_GAVIFileSink@@EEAAPEAXI@Z
??_GAVISubsessionIOState@@UEAAPEAXI@Z
??_R0?AVAVIFileSink@@@8
??_R0?AVAVISubsessionIOState@@@8
??_R1A@?0A@EA@AVIFileSink@@8
??_R1A@?0A@EA@AVISubsessionIOState@@8
??_R2AVIFileSink@@8
??_R2AVISubsessionIOState@@8
??_R3AVIFileSink@@8
??_R3AVISubsessionIOState@@8
??_R4AVIFileSink@@6B@
??_R4AVISubsessionIOState@@6B@
?add4ByteString@AVIFileSink@@AEAAIPEBD@Z
?addByte@AVIFileSink@@AEAAIE@Z
?addFileHeader_AVI@AVIFileSink@@AEAAIXZ
?addFileHeader_JUNK@AVIFileSink@@AEAAIXZ
?addFileHeader_avih@AVIFileSink@@AEAAIXZ
?addFileHeader_hdrl@AVIFileSink@@AEAAIXZ
?addFileHeader_movi@AVIFileSink@@AEAAIXZ
?addFileHeader_strf@AVIFileSink@@AEAAIXZ
?addFileHeader_strh@AVIFileSink@@AEAAIXZ
?addFileHeader_strl@AVIFileSink@@AEAAIXZ
?addHalfWord@AVIFileSink@@AEAAIG@Z
?addIndexRecord@AVIFileSink@@AEAAXPEAVAVIIndexRecord@@@Z
?addWord@AVIFileSink@@AEAAII@Z
?addZeroWords@AVIFileSink@@AEAAII@Z
?afterGettingFrame@AVIFileSink@@CAXPEAXIIUtimeval@@I@Z
?afterGettingFrame@AVISubsessionIOState@@QEAAXIUtimeval@@@Z
?chunkId@AVIIndexRecord@@QEBAIXZ
?completeOutputFile@AVIFileSink@@AEAAXXZ
?continuePlaying@AVIFileSink@@AEAA_NXZ
?createNew@AVIFileSink@@SAPEAV1@AEAVUsageEnvironment@@AEAVMediaSession@@PEBDIGGI_N@Z
?envir@AVISubsessionIOState@@QEBAAEAVUsageEnvironment@@XZ
?flags@AVIIndexRecord@@QEBAIXZ
?next@AVIIndexRecord@@QEAAAEAPEAV1@XZ
?offset@AVIIndexRecord@@QEBAIXZ
?onRTCPBye@AVIFileSink@@CAXPEAX@Z
?onSourceClosure1@AVIFileSink@@AEAAXXZ
?onSourceClosure@AVIFileSink@@CAXPEAX@Z
?onSourceClosure@AVISubsessionIOState@@QEAAXXZ
?setAVIstate@AVISubsessionIOState@@QEAAXI@Z
?setWord@AVIFileSink@@AEAAXII@Z
?size@AVIIndexRecord@@QEBAIXZ
?startPlaying@AVIFileSink@@QEAA_NP6AXPEAX@Z0@Z
?useFrame@AVISubsessionIOState@@AEAAXAEAVSubsessionBuffer@@@Z
??0AudioRTPSink@@IEAA@AEAVUsageEnvironment@@PEAVGroupsock@@EIPEBDI@Z
??1AudioRTPSink@@MEAA@XZ
??_7AudioRTPSink@@6B@
??_GAudioRTPSink@@MEAAPEAXI@Z
??_R4AudioRTPSink@@6B@
?sdpMediaType@AudioRTPSink@@EEBAPEBDXZ
??0AudioInputDevice@@IEAA@AEAVUsageEnvironment@@EEII@Z
??0AudioPortNames@@QEAA@XZ
??1AudioInputDevice@@MEAA@XZ
??1AudioPortNames@@UEAA@XZ
??_7AudioInputDevice@@6B@
??_7AudioPortNames@@6B@
??_GAudioInputDevice@@MEAAPEAXI@Z
??_GAudioPortNames@@UEAAPEAXI@Z
??_R0?AVAudioPortNames@@@8
??_R1A@?0A@EA@AudioPortNames@@8
??_R2AudioPortNames@@8
??_R3AudioPortNames@@8
??_R4AudioInputDevice@@6B@
??_R4AudioPortNames@@6B@
?allowedDeviceNames@AudioInputDevice@@2PEAPEADEA
??0AMRAudioSource@@IEAA@AEAVUsageEnvironment@@_NI@Z
??1AMRAudioSource@@MEAA@XZ
??_7AMRAudioSource@@6B@
??_C@_09LLLPMCGN@audio?1AMR@
??_GAMRAudioSource@@MEAAPEAXI@Z
??_R0?AVAMRAudioSource@@@8
??_R1A@?0A@EA@AMRAudioSource@@8
??_R2AMRAudioSource@@8
??_R3AMRAudioSource@@8
??_R4AMRAudioSource@@6B@
?MIMEtype@AMRAudioSource@@EEBAPEBDXZ
?isAMRAudioSource@AMRAudioSource@@EEBA_NXZ
??0AMRBufferedPacket@@QEAA@AEAVRawAMRRTPSource@@@Z
??0AMRBufferedPacketFactory@@QEAA@XZ
??0AMRDeinterleaver@@AEAA@AEAVUsageEnvironment@@_NIIPEAVRawAMRRTPSource@@@Z
??0AMRDeinterleavingBuffer@@QEAA@II@Z
??0FrameDescriptor@AMRDeinterleavingBuffer@@QEAA@XZ
??0RawAMRRTPSource@@AEAA@AEAVUsageEnvironment@@PEAVGroupsock@@E_N222@Z
??1AMRBufferedPacket@@UEAA@XZ
??1AMRBufferedPacketFactory@@UEAA@XZ
??1AMRDeinterleaver@@EEAA@XZ
??1AMRDeinterleavingBuffer@@UEAA@XZ
??1FrameDescriptor@AMRDeinterleavingBuffer@@UEAA@XZ
??1RawAMRRTPSource@@EEAA@XZ
??_7AMRBufferedPacket@@6B@
??_7AMRBufferedPacketFactory@@6B@
??_7AMRDeinterleaver@@6B@
??_7AMRDeinterleavingBuffer@@6B@
??_7FrameDescriptor@AMRDeinterleavingBuffer@@6B@
??_7RawAMRRTPSource@@6B@
??_C@_0BG@GCMJGFJE@?$CJ?5is?5much?5too?5large?$CB?6@
??_C@_0DJ@PAHABGPC@AMRBufferedPacket?3?3nextEnclosed@
??_C@_0DP@OELNGAKP@AMRAudioRTPSource?3?3createNew?$CI?$CJ?3@
??_C@_0EF@JHMLBHNJ@AMRAudioRTPSource?3?3createNew?$CI?$CJ?3@
??_C@_0GG@HMHCGDIK@AMRAudioRTPSource?3?3createNew?$CI?$CJ?3@
??_C@_0LE@LPDJBKPL@AMRAudioRTPSource?3?3createNew?$CI?$CJ?3@
??_C@_0N@BLPJCBEI@audio?1AMR?9WB@
??_EFrameDescriptor@AMRDeinterleavingBuffer@@UEAAPEAXI@Z
??_GAMRBufferedPacket@@UEAAPEAXI@Z
??_GAMRBufferedPacketFactory@@UEAAPEAXI@Z
??_GAMRDeinterleaver@@EEAAPEAXI@Z
??_GAMRDeinterleavingBuffer@@UEAAPEAXI@Z
??_GRawAMRRTPSource@@EEAAPEAXI@Z
??_R0?AVAMRBufferedPacket@@@8
??_R0?AVAMRBufferedPacketFactory@@@8
??_R0?AVAMRDeinterleaver@@@8
??_R0?AVAMRDeinterleavingBuffer@@@8
??_R0?AVFrameDescriptor@AMRDeinterleavingBuffer@@@8
??_R0?AVRawAMRRTPSource@@@8
??_R1A@?0A@EA@AMRBufferedPacket@@8
??_R1A@?0A@EA@AMRBufferedPacketFactory@@8
??_R1A@?0A@EA@AMRDeinterleaver@@8
??_R1A@?0A@EA@AMRDeinterleavingBuffer@@8
??_R1A@?0A@EA@FrameDescriptor@AMRDeinterleavingBuffer@@8
??_R1A@?0A@EA@RawAMRRTPSource@@8
??_R2AMRBufferedPacket@@8
??_R2AMRBufferedPacketFactory@@8
??_R2AMRDeinterleaver@@8
??_R2AMRDeinterleavingBuffer@@8
??_R2FrameDescriptor@AMRDeinterleavingBuffer@@8
??_R2RawAMRRTPSource@@8
??_R3AMRBufferedPacket@@8
??_R3AMRBufferedPacketFactory@@8
??_R3AMRDeinterleaver@@8
??_R3AMRDeinterleavingBuffer@@8
??_R3FrameDescriptor@AMRDeinterleavingBuffer@@8
??_R3RawAMRRTPSource@@8
??_R4AMRBufferedPacket@@6B@
??_R4AMRBufferedPacketFactory@@6B@
??_R4AMRDeinterleaver@@6B@
??_R4AMRDeinterleavingBuffer@@6B@
??_R4FrameDescriptor@AMRDeinterleavingBuffer@@6B@
??_R4RawAMRRTPSource@@6B@
?ILL@RawAMRRTPSource@@QEBAEXZ
?ILP@RawAMRRTPSource@@QEBAEXZ
?MIMEtype@RawAMRRTPSource@@EEBAPEBDXZ
?TOC@RawAMRRTPSource@@QEBAPEAEXZ
?TOCSize@RawAMRRTPSource@@QEBAIXZ
?afterGettingFrame1@AMRDeinterleaver@@AEAAXIUtimeval@@@Z
?afterGettingFrame@AMRDeinterleaver@@CAXPEAXIIUtimeval@@I@Z
?createNew@AMRAudioRTPSource@@SAPEAVAMRAudioSource@@AEAVUsageEnvironment@@PEAVGroupsock@@AEAPEAVRTPSource@@E_NI3I33@Z
?createNew@AMRDeinterleaver@@SAPEAV1@AEAVUsageEnvironment@@_NIIPEAVRawAMRRTPSource@@@Z
?createNew@RawAMRRTPSource@@SAPEAV1@AEAVUsageEnvironment@@PEAVGroupsock@@E_N222@Z
?createNewBuffer@AMRDeinterleavingBuffer@@AEAAPEAEXZ
?createNewPacket@AMRBufferedPacketFactory@@EEAAPEAVBufferedPacket@@PEAVMultiFramedRTPSource@@@Z
?deliverIncomingFrame@AMRDeinterleavingBuffer@@QEAAXIPEAVRawAMRRTPSource@@Utimeval@@@Z
?doGetNextFrame@AMRDeinterleaver@@EEAAXXZ
?doStopGettingFrames@AMRDeinterleaver@@EEAAXXZ
?frameIndex@RawAMRRTPSource@@QEAAAEAIXZ
?hasBeenSynchronizedUsingRTCP@RawAMRRTPSource@@EEAA_NXZ
?inputBuffer@AMRDeinterleavingBuffer@@QEAAPEAEXZ
?inputBufferSize@AMRDeinterleavingBuffer@@QEBAIXZ
?isSynchronized@RawAMRRTPSource@@QEAAAEA_NXZ
?isWideband@RawAMRRTPSource@@QEBA_NXZ
?nextEnclosedFrameSize@AMRBufferedPacket@@EEAAIAEAPEAEI@Z
?processSpecialHeader@RawAMRRTPSource@@EEAA_NPEAVBufferedPacket@@AEAI@Z
?retrieveFrame@AMRDeinterleavingBuffer@@QEAA_NPEAEIAEAI1AEAEAEAUtimeval@@AEA_N@Z
??0AMRAudioRTPSink@@IEAA@AEAVUsageEnvironment@@PEAVGroupsock@@E_NI@Z
??1AMRAudioRTPSink@@MEAA@XZ
??_7AMRAudioRTPSink@@6B@
??_C@_0BK@MALLAOJG@a?$DNfmtp?3?$CFd?5octet?9align?$DN1?$AN?6@
??_C@_0CM@GFENALIF@AMRAudioRTPSink?3?5Warning?3?5Input@
??_C@_0HG@POCIHALH@?5audio?5channels?4?5?5In?5the?5curren@
??_GAMRAudioRTPSink@@MEAAPEAXI@Z
??_R0?AVAMRAudioRTPSink@@@8
??_R1A@?0A@EA@AMRAudioRTPSink@@8
??_R2AMRAudioRTPSink@@8
??_R3AMRAudioRTPSink@@8
??_R4AMRAudioRTPSink@@6B@
?auxSDPLine@AMRAudioRTPSink@@EEAAPEBDXZ
?createNew@AMRAudioRTPSink@@SAPEAV1@AEAVUsageEnvironment@@PEAVGroupsock@@E_NI@Z
?doSpecialFrameHandling@AMRAudioRTPSink@@EEAAXIPEAEIUtimeval@@I@Z
?frameCanAppearAfterPacketStart@AMRAudioRTPSink@@EEBA_NPEBEI@Z
?isWideband@AMRAudioSource@@QEBA_NXZ
?lastFrameHeader@AMRAudioSource@@QEBAEXZ
?numChannels@AMRAudioSource@@QEBAIXZ
?sourceIsCompatibleWithUs@AMRAudioRTPSink@@EEAA_NAEAVMediaSource@@@Z
?specialHeaderSize@AMRAudioRTPSink@@EEBAIXZ
??0AMRAudioFileSource@@AEAA@AEAVUsageEnvironment@@PEAU_iobuf@@_NI@Z
??1AMRAudioFileSource@@EEAA@XZ
??_7AMRAudioFileSource@@6B@
??_C@_02KLACDDFP@WB@
??_C@_05OAMDDBGN@?$CD?$CBAMR@
??_C@_06MMKLAINL@MC1?40?6@
??_C@_0CF@CNHFAEFM@Bad?5?$CIor?5nonexistent?$CJ?5AMR?5file?5h@
??_GAMRAudioFileSource@@EEAAPEAXI@Z
??_R0?AVAMRAudioFileSource@@@8
??_R1A@?0A@EA@AMRAudioFileSource@@8
??_R2AMRAudioFileSource@@8
??_R3AMRAudioFileSource@@8
??_R4AMRAudioFileSource@@6B@
?createNew@AMRAudioFileSource@@SAPEAV1@AEAVUsageEnvironment@@PEBD@Z
?doGetNextFrame@AMRAudioFileSource@@EEAAXXZ
??0AMRAudioFileSink@@IEAA@AEAVUsageEnvironment@@PEAU_iobuf@@IPEBD@Z
??1AMRAudioFileSink@@MEAA@XZ
??_7AMRAudioFileSink@@6B@
??_C@_03CHFPECLC@?9WB@
??_C@_06LOJJEACJ@_MC1?40@
??_C@_0L@DGAFJINI@?$CD?$CBAMR?$CFs?$CFs?6@
??_GAMRAudioFileSink@@MEAAPEAXI@Z
??_R0?AVAMRAudioFileSink@@@8
??_R1A@?0A@EA@AMRAudioFileSink@@8
??_R2AMRAudioFileSink@@8
??_R3AMRAudioFileSink@@8
??_R4AMRAudioFileSink@@6B@
?afterGettingFrame@AMRAudioFileSink@@MEAAXIIUtimeval@@@Z
?createNew@AMRAudioFileSink@@SAPEAV1@AEAVUsageEnvironment@@PEBDI_N@Z
?sourceIsCompatibleWithUs@AMRAudioFileSink@@MEAA_NAEAVMediaSource@@@Z
??0AMRAudioFileServerMediaSubsession@@AEAA@AEAVUsageEnvironment@@PEBD_N@Z
??1AMRAudioFileServerMediaSubsession@@EEAA@XZ
??_7AMRAudioFileServerMediaSubsession@@6B@
??_GAMRAudioFileServerMediaSubsession@@EEAAPEAXI@Z
??_R0?AVAMRAudioFileServerMediaSubsession@@@8
??_R1A@?0A@EA@AMRAudioFileServerMediaSubsession@@8
??_R2AMRAudioFileServerMediaSubsession@@8
??_R3AMRAudioFileServerMediaSubsession@@8
??_R4AMRAudioFileServerMediaSubsession@@6B@
?createNew@AMRAudioFileServerMediaSubsession@@SAPEAV1@AEAVUsageEnvironment@@PEBD_N@Z
?createNewRTPSink@AMRAudioFileServerMediaSubsession@@EEAAPEAVRTPSink@@PEAVGroupsock@@EPEAVFramedSource@@@Z
?createNewStreamSource@AMRAudioFileServerMediaSubsession@@EEAAPEAVFramedSource@@IAEAI@Z
??0ADTSAudioFileSource@@AEAA@AEAVUsageEnvironment@@PEAU_iobuf@@EEE@Z
??1ADTSAudioFileSource@@EEAA@XZ
??_7ADTSAudioFileSource@@6B@
??_C@_08LCHPNLPE@?$CF02X?$CF02x@
??_C@_0CF@KBBNFIBH@Bad?5?8syncword?8?5at?5start?5of?5ADTS@
??_C@_0DI@OOLNDEH@Bad?5?$CIreserved?$CJ?5?8profile?8?3?53?5in?5@
??_C@_0DL@HEDIMEDF@Bad?5?8sampling_frequency_index?8?5@
??_GADTSAudioFileSource@@EEAAPEAXI@Z
??_R0?AVADTSAudioFileSource@@@8
??_R1A@?0A@EA@ADTSAudioFileSource@@8
??_R2ADTSAudioFileSource@@8
??_R3ADTSAudioFileSource@@8
??_R4ADTSAudioFileSource@@6B@
?createNew@ADTSAudioFileSource@@SAPEAV1@AEAVUsageEnvironment@@PEBD@Z
?doGetNextFrame@ADTSAudioFileSource@@EEAAXXZ
??0ADTSAudioFileServerMediaSubsession@@IEAA@AEAVUsageEnvironment@@PEBD_N@Z
??1ADTSAudioFileServerMediaSubsession@@MEAA@XZ
??_7ADTSAudioFileServerMediaSubsession@@6B@
??_GADTSAudioFileServerMediaSubsession@@MEAAPEAXI@Z
??_R0?AVADTSAudioFileServerMediaSubsession@@@8
??_R1A@?0A@EA@ADTSAudioFileServerMediaSubsession@@8
??_R2ADTSAudioFileServerMediaSubsession@@8
??_R3ADTSAudioFileServerMediaSubsession@@8
??_R4ADTSAudioFileServerMediaSubsession@@6B@
?configStr@ADTSAudioFileSource@@QEBAPEBDXZ
?createNew@ADTSAudioFileServerMediaSubsession@@SAPEAV1@AEAVUsageEnvironment@@PEBD_N@Z
?createNewRTPSink@ADTSAudioFileServerMediaSubsession@@MEAAPEAVRTPSink@@PEAVGroupsock@@EPEAVFramedSource@@@Z
?createNewStreamSource@ADTSAudioFileServerMediaSubsession@@MEAAPEAVFramedSource@@IAEAI@Z
?numChannels@ADTSAudioFileSource@@QEBAIXZ
?samplingFrequency@ADTSAudioFileSource@@QEBAIXZ
??0AC3AudioStreamFramer@@AEAA@AEAVUsageEnvironment@@PEAVFramedSource@@E@Z
??0AC3AudioStreamParser@@QEAA@PEAVAC3AudioStreamFramer@@PEAVFramedSource@@@Z
??0AC3FrameParams@@QEAA@XZ
??1AC3AudioStreamFramer@@EEAA@XZ
??1AC3AudioStreamParser@@UEAA@XZ
??_7AC3AudioStreamFramer@@6B@
??_7AC3AudioStreamParser@@6B@
??_GAC3AudioStreamFramer@@EEAAPEAXI@Z
??_GAC3AudioStreamParser@@UEAAPEAXI@Z
??_R0?AVAC3AudioStreamFramer@@@8
??_R0?AVAC3AudioStreamParser@@@8
??_R1A@?0A@EA@AC3AudioStreamFramer@@8
??_R1A@?0A@EA@AC3AudioStreamParser@@8
??_R2AC3AudioStreamFramer@@8
??_R2AC3AudioStreamParser@@8
??_R3AC3AudioStreamFramer@@8
??_R3AC3AudioStreamParser@@8
??_R4AC3AudioStreamFramer@@6B@
??_R4AC3AudioStreamParser@@6B@
?afterGettingSavedFrame1@AC3AudioStreamParser@@AEAAXI@Z
?afterGettingSavedFrame@AC3AudioStreamParser@@CAXPEAXIIUtimeval@@I@Z
?createNew@AC3AudioStreamFramer@@SAPEAV1@AEAVUsageEnvironment@@PEAVFramedSource@@E@Z
?currentFrame@AC3AudioStreamParser@@QEBAAEBVAC3FrameParams@@XZ
?currentFramePlayTime@AC3AudioStreamFramer@@AEBA?AUtimeval@@XZ
?doGetNextFrame@AC3AudioStreamFramer@@EEAAXXZ
?flushInput@AC3AudioStreamFramer@@QEAAXXZ
?handleNewData@AC3AudioStreamFramer@@AEAAXPEAEI@Z
?handleNewData@AC3AudioStreamFramer@@CAXPEAXPEAEIUtimeval@@@Z
?haveParsedAFrame@AC3AudioStreamParser@@QEBA_NXZ
?onSavedFrameClosure1@AC3AudioStreamParser@@AEAAXXZ
?onSavedFrameClosure@AC3AudioStreamParser@@CAXPEAX@Z
?parseFrame@AC3AudioStreamParser@@QEAAIAEAI@Z
?parseNextFrame@AC3AudioStreamFramer@@AEAAXXZ
?readAndSaveAFrame@AC3AudioStreamParser@@QEAAXXZ
?registerReadInterest@AC3AudioStreamParser@@QEAAXPEAEI@Z
?samplingRate@AC3AudioStreamFramer@@QEAAIXZ
?setParamsFromHeader@AC3FrameParams@@QEAAXXZ
?testStreamCode@AC3AudioStreamParser@@QEAAXEPEAEI@Z
??0AC3AudioRTPSource@@AEAA@AEAVUsageEnvironment@@PEAVGroupsock@@EI@Z
??1AC3AudioRTPSource@@MEAA@XZ
??_7AC3AudioRTPSource@@6B@
??_GAC3AudioRTPSource@@MEAAPEAXI@Z
??_R0?AVAC3AudioRTPSource@@@8
??_R1A@?0A@EA@AC3AudioRTPSource@@8
??_R2AC3AudioRTPSource@@8
??_R3AC3AudioRTPSource@@8
??_R4AC3AudioRTPSource@@6B@
?MIMEtype@AC3AudioRTPSource@@EEBAPEBDXZ
?createNew@AC3AudioRTPSource@@SAPEAV1@AEAVUsageEnvironment@@PEAVGroupsock@@EI@Z
?processSpecialHeader@AC3AudioRTPSource@@EEAA_NPEAVBufferedPacket@@AEAI@Z
??0AC3AudioRTPSink@@IEAA@AEAVUsageEnvironment@@PEAVGroupsock@@EI@Z
??1AC3AudioRTPSink@@MEAA@XZ
??_7AC3AudioRTPSink@@6B@
??_GAC3AudioRTPSink@@MEAAPEAXI@Z
??_R0?AVAC3AudioRTPSink@@@8
??_R1A@?0A@EA@AC3AudioRTPSink@@8
??_R2AC3AudioRTPSink@@8
??_R3AC3AudioRTPSink@@8
??_R4AC3AudioRTPSink@@6B@
?createNew@AC3AudioRTPSink@@SAPEAV1@AEAVUsageEnvironment@@PEAVGroupsock@@EI@Z
?doSpecialFrameHandling@AC3AudioRTPSink@@EEAAXIPEAEIUtimeval@@I@Z
?frameCanAppearAfterPacketStart@AC3AudioRTPSink@@EEBA_NPEBEI@Z
?specialHeaderSize@AC3AudioRTPSink@@EEBAIXZ
??0AC3AudioFileServerMediaSubsession@@AEAA@AEAVUsageEnvironment@@PEBD_N@Z
??1AC3AudioFileServerMediaSubsession@@EEAA@XZ
??_7AC3AudioFileServerMediaSubsession@@6B@
??_GAC3AudioFileServerMediaSubsession@@EEAAPEAXI@Z
??_R0?AVAC3AudioFileServerMediaSubsession@@@8
??_R1A@?0A@EA@AC3AudioFileServerMediaSubsession@@8
??_R2AC3AudioFileServerMediaSubsession@@8
??_R3AC3AudioFileServerMediaSubsession@@8
??_R4AC3AudioFileServerMediaSubsession@@6B@
?createNew@AC3AudioFileServerMediaSubsession@@SAPEAV1@AEAVUsageEnvironment@@PEBD_N@Z
?createNewRTPSink@AC3AudioFileServerMediaSubsession@@EEAAPEAVRTPSink@@PEAVGroupsock@@EPEAVFramedSource@@@Z
?createNewStreamSource@AC3AudioFileServerMediaSubsession@@EEAAPEAVFramedSource@@IAEAI@Z
??0DirectedNetInterface@@IEAA@XZ
??0DirectedNetInterfaceSet@@QEAA@XZ
??0Iterator@DirectedNetInterfaceSet@@QEAA@AEAV1@@Z
??0NetInterface@@IEAA@XZ
??0NetInterfaceTrafficStats@@QEAA@XZ
??0Socket@@IEAA@AEAVUsageEnvironment@@VPort@@@Z
??0SocketLookupTable@@IEAA@XZ
??1DirectedNetInterface@@UEAA@XZ
??1DirectedNetInterfaceSet@@UEAA@XZ
??1Iterator@DirectedNetInterfaceSet@@UEAA@XZ
??1NetInterface@@UEAA@XZ
??1Socket@@UEAA@XZ
??1SocketLookupTable@@UEAA@XZ
??6@YAAEAVUsageEnvironment@@AEAV0@AEBVSocket@@@Z
??_7DirectedNetInterface@@6B@
??_7DirectedNetInterfaceSet@@6B@
??_7Iterator@DirectedNetInterfaceSet@@6B@
??_7NetInterface@@6B@
??_7Socket@@6B@
??_7SocketLookupTable@@6B@
??_C@_08FPIPPDGE@?5Socket?$CI@
??_GDirectedNetInterface@@UEAAPEAXI@Z
??_GDirectedNetInterfaceSet@@UEAAPEAXI@Z
??_GIterator@DirectedNetInterfaceSet@@UEAAPEAXI@Z
??_GNetInterface@@UEAAPEAXI@Z
??_GSocket@@UEAAPEAXI@Z
??_GSocketLookupTable@@UEAAPEAXI@Z
??_R0?AVDirectedNetInterface@@@8
??_R0?AVDirectedNetInterfaceSet@@@8
??_R0?AVIterator@DirectedNetInterfaceSet@@@8
??_R0?AVNetInterface@@@8
??_R0?AVSocket@@@8
??_R0?AVSocketLookupTable@@@8
??_R1A@?0A@EA@DirectedNetInterface@@8
??_R1A@?0A@EA@DirectedNetInterfaceSet@@8
??_R1A@?0A@EA@Iterator@DirectedNetInterfaceSet@@8
??_R1A@?0A@EA@NetInterface@@8
??_R1A@?0A@EA@Socket@@8
??_R1A@?0A@EA@SocketLookupTable@@8
??_R2DirectedNetInterface@@8
??_R2DirectedNetInterfaceSet@@8
??_R2Iterator@DirectedNetInterfaceSet@@8
??_R2NetInterface@@8
??_R2Socket@@8
??_R2SocketLookupTable@@8
??_R3DirectedNetInterface@@8
??_R3DirectedNetInterfaceSet@@8
??_R3Iterator@DirectedNetInterfaceSet@@8
??_R3NetInterface@@8
??_R3Socket@@8
??_R3SocketLookupTable@@8
??_R4DirectedNetInterface@@6B@
??_R4DirectedNetInterfaceSet@@6B@
??_R4Iterator@DirectedNetInterfaceSet@@6B@
??_R4NetInterface@@6B@
??_R4Socket@@6B@
??_R4SocketLookupTable@@6B@
?Add@DirectedNetInterfaceSet@@QEAAPEAVDirectedNetInterface@@PEBV2@@Z
?DebugLevel@Socket@@2HA
?DefaultUsageEnvironment@NetInterface@@2PEAVUsageEnvironment@@EA
?Fetch@SocketLookupTable@@QEAAPEAVSocket@@AEAVUsageEnvironment@@VPort@@AEA_N@Z
?Remove@DirectedNetInterfaceSet@@QEAA_NPEBVDirectedNetInterface@@@Z
?Remove@SocketLookupTable@@QEAA_NPEBVSocket@@@Z
?changePort@Socket@@IEAA_NVPort@@@Z
?countPacket@NetInterfaceTrafficStats@@QEAAXI@Z
?haveSeenTraffic@NetInterfaceTrafficStats@@QEBA_NXZ
?next@Iterator@DirectedNetInterfaceSet@@QEAAPEAVDirectedNetInterface@@XZ
?reset@Socket@@QEAAXXZ
??0AddressPortLookupTable@@QEAA@XZ
??0AddressString@@QEAA@AEBUin_addr@@@Z
??0AddressString@@QEAA@AEBUsockaddr_in@@@Z
??0AddressString@@QEAA@I@Z
??0Iterator@AddressPortLookupTable@@QEAA@AEAV1@@Z
??0Iterator@NetAddressList@@QEAA@AEBV1@@Z
??0NetAddress@@QEAA@AEBV0@@Z
??0NetAddress@@QEAA@I@Z
??0NetAddress@@QEAA@PEBEI@Z
??0NetAddressList@@QEAA@AEBV0@@Z
??0NetAddressList@@QEAA@PEBD@Z
??0Port@@QEAA@G@Z
??1AddressPortLookupTable@@UEAA@XZ
??1AddressString@@UEAA@XZ
??1Iterator@AddressPortLookupTable@@UEAA@XZ
??1NetAddress@@UEAA@XZ
??1NetAddressList@@UEAA@XZ
??4NetAddress@@QEAAAEAV0@AEBV0@@Z
??4NetAddressList@@QEAAAEAV0@AEBV0@@Z
??6@YAAEAVUsageEnvironment@@AEAV0@AEBVPort@@@Z
??_7AddressPortLookupTable@@6B@
??_7AddressString@@6B@
??_7Iterator@AddressPortLookupTable@@6B@
??_7NetAddress@@6B@
??_7NetAddressList@@6B@
??_C@_0M@CDHNGIPM@?$CFu?4?$CFu?4?$CFu?4?$CFu@
??_GAddressPortLookupTable@@UEAAPEAXI@Z
??_GAddressString@@UEAAPEAXI@Z
??_GIterator@AddressPortLookupTable@@UEAAPEAXI@Z
??_GNetAddress@@UEAAPEAXI@Z
??_GNetAddressList@@UEAAPEAXI@Z
??_R0?AVAddressPortLookupTable@@@8
??_R0?AVAddressString@@@8
??_R0?AVIterator@AddressPortLookupTable@@@8
??_R0?AVNetAddress@@@8
??_R0?AVNetAddressList@@@8
??_R1A@?0A@EA@AddressPortLookupTable@@8
??_R1A@?0A@EA@AddressString@@8
??_R1A@?0A@EA@Iterator@AddressPortLookupTable@@8
??_R1A@?0A@EA@NetAddress@@8
??_R1A@?0A@EA@NetAddressList@@8
??_R2AddressPortLookupTable@@8
??_R2AddressString@@8
??_R2Iterator@AddressPortLookupTable@@8
??_R2NetAddress@@8
??_R2NetAddressList@@8
??_R3AddressPortLookupTable@@8
??_R3AddressString@@8
??_R3Iterator@AddressPortLookupTable@@8
??_R3NetAddress@@8
??_R3NetAddressList@@8
??_R4AddressPortLookupTable@@6B@
??_R4AddressString@@6B@
??_R4Iterator@AddressPortLookupTable@@6B@
??_R4NetAddress@@6B@
??_R4NetAddressList@@6B@
?Add@AddressPortLookupTable@@QEAAPEAXIIVPort@@PEAX@Z
?IsMulticastAddress@@YA_NI@Z
?Lookup@AddressPortLookupTable@@QEAAPEAXIIVPort@@@Z
?Remove@AddressPortLookupTable@@QEAA_NIIVPort@@@Z
?assign@NetAddress@@AEAAXPEBEI@Z
?assign@NetAddressList@@AEAAXIPEAPEAVNetAddress@@@Z
?clean@NetAddress@@AEAAXXZ
?clean@NetAddressList@@AEAAXXZ
?firstAddress@NetAddressList@@QEBAPEBVNetAddress@@XZ
?init@AddressString@@AEAAXI@Z
?length@NetAddress@@QEBAIXZ
?next@Iterator@AddressPortLookupTable@@QEAAPEAXXZ
?nextAddress@Iterator@NetAddressList@@QEAAPEBVNetAddress@@XZ
?env@Socket@@QEBAAEAVUsageEnvironment@@XZ
?socketReadHandler@@YAXPEAVSocket@@H@Z
??0NoReuse@@QEAA@AEAVUsageEnvironment@@@Z
??1NoReuse@@QEAA@XZ
??_C@_08IGKCFFOE@?$DP?$DP?3?$DP?$DP?3?$DP?$DP@
??_C@_0BD@LMFDKBLA@recvfrom?$CI?$CJ?5error?3?5@
??_C@_0BG@BPFPCGID@getsockname?$CI?$CJ?5error?3?5@
??_C@_0BI@OJEFALKP@getBufferSize?$CI?$CJ?5error?3?5@
??_C@_0BN@EOHBOCMA@initial?5gethostname?$CI?$CJ?5failed@
??_C@_0BO@NAJKMAP@failed?5to?5make?5non?9blocking?3?5@
??_C@_0CB@CAPJHIGH@Failed?5to?5initialize?5?8winsock?8?3@
??_C@_0CB@CLEMPGCF@setsockopt?$CISO_REUSEADDR?$CJ?5error?3@
??_C@_0CB@FAFNPGPM@bind?$CI?$CJ?5error?5?$CIport?5number?3?5?$CFd?$CJ?3@
??_C@_0CB@LHLGILHJ@unable?5to?5create?5stream?5socket?3@
??_C@_0CD@NJMEDNHJ@unable?5to?5create?5datagram?5socke@
??_C@_0CF@JLGNFDNI@setsockopt?$CIIP_MULTICAST_TTL?$CJ?5er@
??_C@_0CG@BADHIJLD@setsockopt?$CIIP_ADD_MEMBERSHIP?$CJ?5e@
??_C@_0CM@HIBCNPMO@This?5computer?5has?5an?5invalid?5IP@
??_C@_0CN@GEDBIAJE@error?5setting?5outgoing?5multicas@
??_C@_0CN@JJOGCEEC@setsockopt?$CIIP_ADD_SOURCE_MEMBER@
??_C@_0EA@MAMNHNN@writeSocket?$CI?$CFd?$CJ?0?5sendTo?$CI?$CJ?5error@
??_C@_0L@CBMOHPMO@hostIdTest@
??_C@_0N@DFEAPHAI@228?467?443?491@
?ReceivingInterfaceAddr@@3IA
?SendingInterfaceAddr@@3IA
?chooseRandomIPv4SSMAddress@@YAIAEAVUsageEnvironment@@@Z
?getReceiveBufferSize@@YAIAEAVUsageEnvironment@@H@Z
?getSendBufferSize@@YAIAEAVUsageEnvironment@@H@Z
?getSourcePort@@YA_NAEAVUsageEnvironment@@HAEAVPort@@@Z
?gettimeofday@@YAHPEAUtimeval@@PEAH@Z
?groupsockPriv@@YAPEAU_groupsockPriv@@AEAVUsageEnvironment@@@Z
?ignoreSigPipeOnSocket@@YAXH@Z
?increaseReceiveBufferTo@@YAIAEAVUsageEnvironment@@HI@Z
?increaseSendBufferTo@@YAIAEAVUsageEnvironment@@HI@Z
?loopbackWorks@@3_NA
?makeSocketBlocking@@YA_NHI@Z
?makeSocketNonBlocking@@YA_NH@Z
?ourIPAddress@@YAIAEAVUsageEnvironment@@@Z
?readSocket@@YAHAEAVUsageEnvironment@@HPEAEIAEAUsockaddr_in@@@Z
?reclaimGroupsockPriv@@YAXAEAVUsageEnvironment@@@Z
?setReceiveBufferTo@@YAIAEAVUsageEnvironment@@HI@Z
?setSendBufferTo@@YAIAEAVUsageEnvironment@@HI@Z
?setupDatagramSocket@@YAHAEAVUsageEnvironment@@VPort@@@Z
?setupStreamSocket@@YAHAEAVUsageEnvironment@@VPort@@_N@Z
?socketJoinGroup@@YA_NAEAVUsageEnvironment@@HI@Z
?socketJoinGroupSSM@@YA_NAEAVUsageEnvironment@@HII@Z
?socketLeaveGroup@@YA_NAEAVUsageEnvironment@@HI@Z
?socketLeaveGroupSSM@@YA_NAEAVUsageEnvironment@@HII@Z
?timestampString@@YAPEBDXZ
?writeSocket@@YA_NAEAVUsageEnvironment@@HUin_addr@@GEPEAEI@Z
?writeSocket@@YA_NAEAVUsageEnvironment@@HUin_addr@@GPEAEI@Z
??0Groupsock@@QEAA@AEAVUsageEnvironment@@AEBUin_addr@@1VPort@@@Z
??0Groupsock@@QEAA@AEAVUsageEnvironment@@AEBUin_addr@@VPort@@E@Z
??0Iterator@GroupsockLookupTable@@QEAA@AEAV1@@Z
??0OutputSocket@@IEAA@AEAVUsageEnvironment@@VPort@@@Z
??0OutputSocket@@QEAA@AEAVUsageEnvironment@@@Z
??0destRecord@@QEAA@AEBUin_addr@@AEBVPort@@EIPEAV0@@Z
??1Groupsock@@UEAA@XZ
??1OutputSocket@@UEAA@XZ
??1destRecord@@UEAA@XZ
??6@YAAEAVUsageEnvironment@@AEAV0@AEBVGroupsock@@@Z
??_7Groupsock@@6B@
??_7OutputSocket@@6B@
??_7destRecord@@6B@
??_C@_02KEGNLNML@?0?5@
??_C@_07PJFNFHA@?3?5read?5@
??_C@_08BABNHLBK@?3?5wrote?5@
??_C@_08BGABGEJ@?5members@
??_C@_0BE@DHPGGFGD@?3?5SSM?5join?5failed?3?5@
??_C@_0BI@FKOOPCDM@Groupsock?5read?5failed?3?5@
??_C@_0BJ@CNFJBNLP@Groupsock?5write?5failed?3?5@
??_C@_0BJ@NHPMHKFF@?3?5failed?5to?5join?5group?3?5@
??_C@_0BO@GDBHPPOE@trying?5to?5use?5bad?5socket?5?$CI?$CFd?$CJ@
??_C@_0BO@LPPLMEPA@?3?5failed?5to?5get?5source?5port?3?5@
??_C@_0CA@BEPELNJK@?5?9?5trying?5regular?5join?5instead?6@
??_C@_0CJ@DDCMEANP@Unable?5to?5determine?5our?5source?5@
??_C@_0CO@CFLLBGLL@Attempting?5to?5replace?5an?5existi@
??_C@_0L@DFMGAACC@?3?5created?6@
??_C@_0M@EIFDBIB@?3?5deleting?6@
??_C@_0M@LMEOPHHO@?5Groupsock?$CI@
??_C@_0N@LOCGNAP@SSM?5source?3?5@
??_C@_0N@ONLGOGOD@?5bytes?5from?5@
??_C@_0N@PKINCKOP@?5bytes?0?5ttl?5@
??_C@_0O@BKICPCFJ@?$DL?5relayed?5to?5@
??_GGroupsock@@UEAAPEAXI@Z
??_GOutputSocket@@UEAAPEAXI@Z
??_GdestRecord@@UEAAPEAXI@Z
??_R0?AVGroupsock@@@8
??_R0?AVOutputSocket@@@8
??_R0?AVdestRecord@@@8
??_R1A@?0A@EA@Groupsock@@8
??_R1A@?0A@EA@OutputSocket@@8
??_R1A@?0A@EA@destRecord@@8
??_R2Groupsock@@8
??_R2OutputSocket@@8
??_R2destRecord@@8
??_R3Groupsock@@8
??_R3OutputSocket@@8
??_R3destRecord@@8
??_R4Groupsock@@6B@
??_R4OutputSocket@@6B@
??_R4destRecord@@6B@
?AddNew@GroupsockLookupTable@@AEAAPEAVGroupsock@@AEAVUsageEnvironment@@IIVPort@@E@Z
?Fetch@GroupsockLookupTable@@QEAAPEAVGroupsock@@AEAVUsageEnvironment@@IIVPort@@AEA_N@Z
?Fetch@GroupsockLookupTable@@QEAAPEAVGroupsock@@AEAVUsageEnvironment@@IVPort@@EAEA_N@Z
?IsEmpty@DirectedNetInterfaceSet@@QEAA_NXZ
?Lookup@GroupsockLookupTable@@QEAAPEAVGroupsock@@AEAVUsageEnvironment@@H@Z
?Lookup@GroupsockLookupTable@@QEAAPEAVGroupsock@@IIVPort@@@Z
?Lookup@GroupsockLookupTable@@QEAAPEAVGroupsock@@IVPort@@@Z
?Remove@GroupsockLookupTable@@QEAA_NPEBVGroupsock@@@Z
?addDestination@Groupsock@@UEAAXAEBUin_addr@@AEBVPort@@I@Z
?address@TunnelEncapsulationTrailer@@QEAAAEAIXZ
?auxAddress@TunnelEncapsulationTrailer@@QEAAAEAIXZ
?byteOffset@TunnelEncapsulationTrailer@@AEAAPEADH@Z
?changeDestinationParameters@Groupsock@@QEAAXAEBUin_addr@@VPort@@HI@Z
?command@TunnelEncapsulationTrailer@@QEAAAEAEXZ
?createNewDestRecord@Groupsock@@UEAAPEAVdestRecord@@AEBUin_addr@@AEBVPort@@EIPEAV2@@Z
?handleRead@Groupsock@@UEAA_NPEAEIAEAIAEAUsockaddr_in@@@Z
?handleRead@OutputSocket@@EEAA_NPEAEIAEAIAEAUsockaddr_in@@@Z
?isSSM@Groupsock@@QEBA_NXZ
?lookupDestRecordFromDestination@Groupsock@@IEBAPEAVdestRecord@@AEBUsockaddr_in@@@Z
?lookupSessionIdFromDestination@Groupsock@@QEBAIAEBUsockaddr_in@@@Z
?members@Groupsock@@QEAAAEAVDirectedNetInterfaceSet@@XZ
?multicastSendOnly@Groupsock@@QEAAXXZ
?next@Iterator@GroupsockLookupTable@@QEAAPEAVGroupsock@@XZ
?output@Groupsock@@UEAA_NAEAVUsageEnvironment@@PEAEIPEAVDirectedNetInterface@@@Z
?outputToAllMembersExcept@Groupsock@@AEAAHPEAVDirectedNetInterface@@EPEAEII@Z
?port@TunnelEncapsulationTrailer@@QEAAAEAVPort@@XZ
?portNum@GroupEId@@QEBAGXZ
?removeAllDestinations@Groupsock@@QEAAXXZ
?removeDestination@Groupsock@@UEAAXI@Z
?removeDestinationFrom@Groupsock@@AEAAXAEAPEAVdestRecord@@I@Z
?sourceFilterAddress@GroupEId@@QEBAAEBUin_addr@@XZ
?sourceFilterAddress@Groupsock@@QEBAAEBUin_addr@@XZ
?sourcePortNum@OutputSocket@@IEBAGXZ
?statsIncoming@Groupsock@@2VNetInterfaceTrafficStats@@A
?statsOutgoing@Groupsock@@2VNetInterfaceTrafficStats@@A
?statsRelayedIncoming@Groupsock@@2VNetInterfaceTrafficStats@@A
?statsRelayedOutgoing@Groupsock@@2VNetInterfaceTrafficStats@@A
?ttl@TunnelEncapsulationTrailer@@QEAAAEAEXZ
?wasLoopedBackFromUs@Groupsock@@QEAA_NAEAVUsageEnvironment@@AEAUsockaddr_in@@@Z
?write@OutputSocket@@UEAA_NIGEPEAEI@Z
??0GroupEId@@QEAA@AEBUin_addr@@0G@Z
??0GroupEId@@QEAA@AEBUin_addr@@GE@Z
?init@GroupEId@@AEAAXAEBUin_addr@@0GE@Z
?isSSM@GroupEId@@QEBA_NXZ
??0DelayInterval@@QEAA@JJ@Z
??0DelayQueue@@QEAA@XZ
??0DelayQueueEntry@@IEAA@VDelayInterval@@@Z
??0Timeval@@IEAA@JJ@Z
??0_EventTime@@QEAA@II@Z
??1DelayQueue@@UEAA@XZ
??1DelayQueueEntry@@UEAA@XZ
??8Timeval@@QEBAHAEBV0@@Z
??9Timeval@@QEBAHAEBV0@@Z
??D@YA?AVDelayInterval@@FAEBV0@@Z
??G@YA?AVDelayInterval@@AEBVTimeval@@0@Z
??MTimeval@@QEBAHAEBV0@@Z
??PTimeval@@QEBAHAEBV0@@Z
??YTimeval@@QEAAXAEBVDelayInterval@@@Z
??ZTimeval@@QEAAXAEBVDelayInterval@@@Z
??_7DelayQueue@@6B@
??_7DelayQueueEntry@@6B@
??_GDelayQueue@@UEAAPEAXI@Z
??_GDelayQueueEntry@@UEAAPEAXI@Z
??_R0?AVDelayQueue@@@8
??_R0?AVDelayQueueEntry@@@8
??_R1A@?0A@EA@DelayQueue@@8
??_R1A@?0A@EA@DelayQueueEntry@@8
??_R2DelayQueue@@8
??_R2DelayQueueEntry@@8
??_R3DelayQueue@@8
??_R3DelayQueueEntry@@8
??_R4DelayQueue@@6B@
??_R4DelayQueueEntry@@6B@
?DELAY_DAY@@3VDelayInterval@@B
?DELAY_HOUR@@3VDelayInterval@@B
?DELAY_MINUTE@@3VDelayInterval@@B
?DELAY_SECOND@@3VDelayInterval@@B
?DELAY_ZERO@@3VDelayInterval@@B
?THE_END_OF_TIME@@3V_EventTime@@B
?TimeNow@@YA?AV_EventTime@@XZ
?addEntry@DelayQueue@@QEAAXPEAVDelayQueueEntry@@@Z
?findEntryByToken@DelayQueue@@AEAAPEAVDelayQueueEntry@@_J@Z
?handleAlarm@DelayQueue@@QEAAXXZ
?handleTimeout@DelayQueueEntry@@MEAAXXZ
?head@DelayQueue@@AEAAPEAVDelayQueueEntry@@XZ
?removeEntry@DelayQueue@@QEAAPEAVDelayQueueEntry@@_J@Z
?removeEntry@DelayQueue@@QEAAXPEAVDelayQueueEntry@@@Z
?seconds@Timeval@@QEAAJXZ
?seconds@Timeval@@QEBAJXZ
?secs@Timeval@@AEAAAEAJXZ
?synchronize@DelayQueue@@AEAAXXZ
?timeToNextAlarm@DelayQueue@@QEAAAEBVDelayInterval@@XZ
?token@DelayQueueEntry@@QEAA_JXZ
?tokenCounter@DelayQueueEntry@@0_JA
?updateEntry@DelayQueue@@QEAAXPEAVDelayQueueEntry@@VDelayInterval@@@Z
?updateEntry@DelayQueue@@QEAAX_JVDelayInterval@@@Z
?useconds@Timeval@@QEAAJXZ
?useconds@Timeval@@QEBAJXZ
?usecs@Timeval@@AEAAAEAJXZ
??0BasicUsageEnvironment0@@IEAA@AEAVTaskScheduler@@@Z
??1BasicUsageEnvironment0@@MEAA@XZ
??_7BasicUsageEnvironment0@@6B@
??_C@_01LOCGONAA@?$AA@
??_C@_08HPBFPDOD@error?5?$CFd@
??_GBasicUsageEnvironment0@@MEAAPEAXI@Z
??_R0?AVBasicUsageEnvironment0@@@8
??_R1A@?0A@EA@BasicUsageEnvironment0@@8
??_R2BasicUsageEnvironment0@@8
??_R3BasicUsageEnvironment0@@8
??_R4BasicUsageEnvironment0@@6B@
?appendToResultMsg@BasicUsageEnvironment0@@UEAAXPEBD@Z
?getResultMsg@BasicUsageEnvironment0@@UEBAPEBDXZ
?reportBackgroundError@BasicUsageEnvironment0@@UEAAXXZ
?reset@BasicUsageEnvironment0@@AEAAXXZ
?setResultErrMsg@BasicUsageEnvironment0@@UEAAXPEBDH@Z
?setResultMsg@BasicUsageEnvironment0@@UEAAXPEBD00@Z
?setResultMsg@BasicUsageEnvironment0@@UEAAXPEBD0@Z
?setResultMsg@BasicUsageEnvironment0@@UEAAXPEBD@Z
??0BasicUsageEnvironment@@IEAA@AEAVTaskScheduler@@@Z
??1BasicUsageEnvironment@@MEAA@XZ
??6BasicUsageEnvironment@@UEAAAEAVUsageEnvironment@@H@Z
??6BasicUsageEnvironment@@UEAAAEAVUsageEnvironment@@I@Z
??6BasicUsageEnvironment@@UEAAAEAVUsageEnvironment@@N@Z
??6BasicUsageEnvironment@@UEAAAEAVUsageEnvironment@@PEAX@Z
??6BasicUsageEnvironment@@UEAAAEAVUsageEnvironment@@PEBD@Z
??_7BasicUsageEnvironment@@6B@
??_C@_02BBAHNLBA@?$CFp@
??_C@_06LHGEHABH@?$CINULL?$CJ@
??_GBasicUsageEnvironment@@MEAAPEAXI@Z
??_R0?AVBasicUsageEnvironment@@@8
??_R1A@?0A@EA@BasicUsageEnvironment@@8
??_R2BasicUsageEnvironment@@8
??_R3BasicUsageEnvironment@@8
??_R4BasicUsageEnvironment@@6B@
?createNew@BasicUsageEnvironment@@SAPEAV1@AEAVTaskScheduler@@@Z
?getErrno@BasicUsageEnvironment@@UEBAHXZ
??0AlarmHandler@@QEAA@P6AXPEAX@Z0VDelayInterval@@@Z
??0BasicTaskScheduler0@@IEAA@XZ
??0HandlerDescriptor@@AEAA@PEAV0@@Z
??0HandlerIterator@@QEAA@AEAVHandlerSet@@@Z
??0HandlerSet@@QEAA@XZ
??1AlarmHandler@@UEAA@XZ
??1BasicTaskScheduler0@@UEAA@XZ
??1HandlerDescriptor@@EEAA@XZ
??1HandlerIterator@@UEAA@XZ
??1HandlerSet@@UEAA@XZ
??_7AlarmHandler@@6B@
??_7BasicTaskScheduler0@@6B@
??_7HandlerDescriptor@@6B@
??_7HandlerIterator@@6B@
??_7HandlerSet@@6B@
??_GAlarmHandler@@UEAAPEAXI@Z
??_GBasicTaskScheduler0@@UEAAPEAXI@Z
??_GHandlerDescriptor@@EEAAPEAXI@Z
??_GHandlerIterator@@UEAAPEAXI@Z
??_GHandlerSet@@UEAAPEAXI@Z
??_R0?AVAlarmHandler@@@8
??_R0?AVBasicTaskScheduler0@@@8
??_R0?AVHandlerDescriptor@@@8
??_R0?AVHandlerIterator@@@8
??_R0?AVHandlerSet@@@8
??_R1A@?0A@EA@AlarmHandler@@8
??_R1A@?0A@EA@BasicTaskScheduler0@@8
??_R1A@?0A@EA@HandlerDescriptor@@8
??_R1A@?0A@EA@HandlerIterator@@8
??_R1A@?0A@EA@HandlerSet@@8
??_R2AlarmHandler@@8
??_R2BasicTaskScheduler0@@8
??_R2HandlerDescriptor@@8
??_R2HandlerIterator@@8
??_R2HandlerSet@@8
??_R3AlarmHandler@@8
??_R3BasicTaskScheduler0@@8
??_R3HandlerDescriptor@@8
??_R3HandlerIterator@@8
??_R3HandlerSet@@8
??_R4AlarmHandler@@6B@
??_R4BasicTaskScheduler0@@6B@
??_R4HandlerDescriptor@@6B@
??_R4HandlerIterator@@6B@
??_R4HandlerSet@@6B@
?assignHandler@HandlerSet@@QEAAXHHP6AXPEAXH@Z0@Z
?clearHandler@HandlerSet@@QEAAXH@Z
?createEventTrigger@BasicTaskScheduler0@@UEAAIP6AXPEAX@Z@Z
?deleteEventTrigger@BasicTaskScheduler0@@UEAAXI@Z
?doEventLoop@BasicTaskScheduler0@@UEAAXPECD@Z
?handleTimeout@AlarmHandler@@EEAAXXZ
?lookupHandler@HandlerSet@@AEAAPEAVHandlerDescriptor@@H@Z
?moveHandler@HandlerSet@@QEAAXHH@Z
?next@HandlerIterator@@QEAAPEAVHandlerDescriptor@@XZ
?reset@HandlerIterator@@QEAAXXZ
?scheduleDelayedTask@BasicTaskScheduler0@@UEAAPEAX_JP6AXPEAX@Z1@Z
?triggerEvent@BasicTaskScheduler0@@UEAAXIPEAX@Z
?unscheduleDelayedTask@BasicTaskScheduler0@@UEAAXAEAPEAX@Z
??0BasicTaskScheduler@@IEAA@I@Z
??1BasicTaskScheduler@@UEAA@XZ
??_7BasicTaskScheduler@@6B@
??_C@_01KDCPPGHE@r@
??_C@_01KGKMHCOC@e@
??_C@_01NOFIACDB@w@
??_C@_04HNHDLFLM@?5?$CFd?$CI@
??_C@_0CK@OMLKNLAF@socket?5numbers?5used?5in?5the?5sele@
??_C@_0DB@CELLCDMF@BasicTaskScheduler?3?3SingleStep?$CI@
??_GBasicTaskScheduler@@UEAAPEAXI@Z
??_R0?AVBasicTaskScheduler@@@8
??_R1A@?0A@EA@BasicTaskScheduler@@8
??_R2BasicTaskScheduler@@8
??_R3BasicTaskScheduler@@8
??_R4BasicTaskScheduler@@6B@
?SingleStep@BasicTaskScheduler@@MEAAXI@Z
?createNew@BasicTaskScheduler@@SAPEAV1@I@Z
?moveSocketHandling@BasicTaskScheduler@@MEAAXHH@Z
?schedulerTickTask@BasicTaskScheduler@@IEAAXXZ
?schedulerTickTask@BasicTaskScheduler@@KAXPEAX@Z
?setBackgroundHandling@BasicTaskScheduler@@MEAAXHHP6AXPEAXH@Z0@Z
??0BasicHashTable@@QEAA@H@Z
??0Iterator@BasicHashTable@@QEAA@AEBV1@@Z
??1BasicHashTable@@UEAA@XZ
??1Iterator@BasicHashTable@@UEAA@XZ
??_7BasicHashTable@@6B@
??_7Iterator@BasicHashTable@@6B@
??_GBasicHashTable@@UEAAPEAXI@Z
??_GIterator@BasicHashTable@@UEAAPEAXI@Z
??_R0?AVBasicHashTable@@@8
??_R0?AVIterator@BasicHashTable@@@8
??_R1A@?0A@EA@BasicHashTable@@8
??_R1A@?0A@EA@Iterator@BasicHashTable@@8
??_R2BasicHashTable@@8
??_R2Iterator@BasicHashTable@@8
??_R3BasicHashTable@@8
??_R3Iterator@BasicHashTable@@8
??_R4BasicHashTable@@6B@
??_R4Iterator@BasicHashTable@@6B@
?Add@BasicHashTable@@EEAAPEAXPEBDPEAX@Z
?Lookup@BasicHashTable@@EEBAPEAXPEBD@Z
?Remove@BasicHashTable@@EEAA_NPEBD@Z
?assignKey@BasicHashTable@@AEAAXPEAVTableEntry@1@PEBD@Z
?create@HashTable@@SAPEAV1@H@Z
?create@Iterator@HashTable@@SAPEAV12@AEBV2@@Z
?deleteEntry@BasicHashTable@@AEAAXIPEAVTableEntry@1@@Z
?deleteKey@BasicHashTable@@AEAAXPEAVTableEntry@1@@Z
?hashIndexFromKey@BasicHashTable@@AEBAIPEBD@Z
?insertNewEntry@BasicHashTable@@AEAAPEAVTableEntry@1@IPEBD@Z
?keyMatches@BasicHashTable@@AEBA_NPEBD0@Z
?lookupKey@BasicHashTable@@AEBAPEAVTableEntry@1@PEBDAEAI@Z
?next@Iterator@BasicHashTable@@EEAAPEAXAEAPEBD@Z
?numEntries@BasicHashTable@@EEBAIXZ
?randomIndex@BasicHashTable@@AEBAI_K@Z
?rebuild@BasicHashTable@@AEAAXXZ
